
main.elf:     file format elf32-littleriscv


Disassembly of section .text:

00000000 <_isr_handler>:
       0:	0080006f          	j	8 <_isr_routine>
       4:	1440006f          	j	148 <_start>

00000008 <_isr_routine>:
       8:	f8010113          	addi	sp,sp,-128
       c:	00112023          	sw	ra,0(sp)
      10:	00312423          	sw	gp,8(sp)
      14:	00412623          	sw	tp,12(sp)
      18:	00512823          	sw	t0,16(sp)
      1c:	00612a23          	sw	t1,20(sp)
      20:	00712c23          	sw	t2,24(sp)
      24:	00812e23          	sw	s0,28(sp)
      28:	02912023          	sw	s1,32(sp)
      2c:	02a12223          	sw	a0,36(sp)
      30:	02b12423          	sw	a1,40(sp)
      34:	02c12623          	sw	a2,44(sp)
      38:	02d12823          	sw	a3,48(sp)
      3c:	02e12a23          	sw	a4,52(sp)
      40:	02f12c23          	sw	a5,56(sp)
      44:	03012e23          	sw	a6,60(sp)
      48:	05112023          	sw	a7,64(sp)
      4c:	05212223          	sw	s2,68(sp)
      50:	05312423          	sw	s3,72(sp)
      54:	05412623          	sw	s4,76(sp)
      58:	05512823          	sw	s5,80(sp)
      5c:	05612a23          	sw	s6,84(sp)
      60:	05712c23          	sw	s7,88(sp)
      64:	05812e23          	sw	s8,92(sp)
      68:	07912023          	sw	s9,96(sp)
      6c:	07a12223          	sw	s10,100(sp)
      70:	07b12423          	sw	s11,104(sp)
      74:	07c12623          	sw	t3,108(sp)
      78:	07d12823          	sw	t4,112(sp)
      7c:	07e12a23          	sw	t5,116(sp)
      80:	07f12c23          	sw	t6,120(sp)
      84:	342022f3          	csrr	t0,mcause
      88:	80000337          	lui	t1,0x80000
      8c:	02536463          	bltu	t1,t0,b4 <external_irq>
      90:	00028833          	add	a6,t0,zero
      94:	00b00313          	li	t1,11
      98:	00628463          	beq	t0,t1,a0 <skip_init_args>
      9c:	34102573          	csrr	a0,mepc

000000a0 <skip_init_args>:
      a0:	221000ef          	jal	ac0 <handle_exception>
      a4:	341022f3          	csrr	t0,mepc
      a8:	00428293          	addi	t0,t0,4
      ac:	34129073          	csrw	mepc,t0
      b0:	0180006f          	j	c8 <restore>

000000b4 <external_irq>:
      b4:	800002b7          	lui	t0,0x80000
      b8:	fff28293          	addi	t0,t0,-1 # 7fffffff <_stack_end+0x7fef9823>
      bc:	34202373          	csrr	t1,mcause
      c0:	0062f533          	and	a0,t0,t1
      c4:	425030ef          	jal	3ce8 <handle_interrupt>

000000c8 <restore>:
      c8:	00012083          	lw	ra,0(sp)
      cc:	00812183          	lw	gp,8(sp)
      d0:	00c12203          	lw	tp,12(sp)
      d4:	01012283          	lw	t0,16(sp)
      d8:	01412303          	lw	t1,20(sp)
      dc:	01812383          	lw	t2,24(sp)
      e0:	01c12403          	lw	s0,28(sp)
      e4:	02012483          	lw	s1,32(sp)
      e8:	02412503          	lw	a0,36(sp)
      ec:	02812583          	lw	a1,40(sp)
      f0:	02c12603          	lw	a2,44(sp)
      f4:	03012683          	lw	a3,48(sp)
      f8:	03412703          	lw	a4,52(sp)
      fc:	03812783          	lw	a5,56(sp)
     100:	03c12803          	lw	a6,60(sp)
     104:	04012883          	lw	a7,64(sp)
     108:	04412903          	lw	s2,68(sp)
     10c:	04812983          	lw	s3,72(sp)
     110:	04c12a03          	lw	s4,76(sp)
     114:	05012a83          	lw	s5,80(sp)
     118:	05412b03          	lw	s6,84(sp)
     11c:	05812b83          	lw	s7,88(sp)
     120:	05c12c03          	lw	s8,92(sp)
     124:	06012c83          	lw	s9,96(sp)
     128:	06412d03          	lw	s10,100(sp)
     12c:	06812d83          	lw	s11,104(sp)
     130:	06c12e03          	lw	t3,108(sp)
     134:	07012e83          	lw	t4,112(sp)
     138:	07412f03          	lw	t5,116(sp)
     13c:	07812f83          	lw	t6,120(sp)
     140:	08010113          	addi	sp,sp,128
     144:	30200073          	mret

00000148 <_start>:
     148:	30401073          	csrw	mie,zero
     14c:	00106117          	auipc	sp,0x106
     150:	69010113          	addi	sp,sp,1680 # 1067dc <_stack_end>
     154:	00005197          	auipc	gp,0x5
     158:	aa518193          	addi	gp,gp,-1371 # 4bf9 <__global_pointer>
     15c:	00004517          	auipc	a0,0x4
     160:	1c050513          	addi	a0,a0,448 # 431c <welcome_msg>
     164:	00400893          	li	a7,4
     168:	00000073          	ecall
     16c:	71d030ef          	jal	4088 <main>

00000170 <loop>:
     170:	0000006f          	j	170 <loop>

00000174 <enable_interrupts>:
     174:	30486073          	csrsi	mie,16
     178:	3048e073          	csrsi	mie,17
     17c:	3001e073          	csrsi	mstatus,3
     180:	00008067          	ret

00000184 <new_player>:
     184:	12c00793          	li	a5,300
     188:	02f507b3          	mul	a5,a0,a5
     18c:	030008b7          	lui	a7,0x3000
     190:	00005737          	lui	a4,0x5
     194:	93070713          	addi	a4,a4,-1744 # 4930 <mytime+0xac>
     198:	06400693          	li	a3,100
     19c:	00500813          	li	a6,5
     1a0:	011787b3          	add	a5,a5,a7
     1a4:	00a7a023          	sw	a0,0(a5)
     1a8:	00b7a223          	sw	a1,4(a5)
     1ac:	00c7a423          	sw	a2,8(a5)
     1b0:	0107aa23          	sw	a6,20(a5)
     1b4:	00d7a623          	sw	a3,12(a5)
     1b8:	00d7a823          	sw	a3,16(a5)
     1bc:	00e7ae23          	sw	a4,28(a5)
     1c0:	02e7a023          	sw	a4,32(a5)
     1c4:	02e7a223          	sw	a4,36(a5)
     1c8:	02e7a423          	sw	a4,40(a5)
     1cc:	02e7a623          	sw	a4,44(a5)
     1d0:	00078513          	mv	a0,a5
     1d4:	00008067          	ret

000001d8 <setP_hp>:
     1d8:	00c52703          	lw	a4,12(a0)
     1dc:	00050793          	mv	a5,a0
     1e0:	00100513          	li	a0,1
     1e4:	00e585b3          	add	a1,a1,a4
     1e8:	00b04663          	bgtz	a1,1f4 <setP_hp+0x1c>
     1ec:	00000593          	li	a1,0
     1f0:	00000513          	li	a0,0
     1f4:	00b7a623          	sw	a1,12(a5)
     1f8:	00008067          	ret

000001fc <check_damage>:
     1fc:	fd010113          	addi	sp,sp,-48
     200:	03212023          	sw	s2,32(sp)
     204:	01312e23          	sw	s3,28(sp)
     208:	00005937          	lui	s2,0x5
     20c:	000059b7          	lui	s3,0x5
     210:	000057b7          	lui	a5,0x5
     214:	02812423          	sw	s0,40(sp)
     218:	01412c23          	sw	s4,24(sp)
     21c:	01512a23          	sw	s5,20(sp)
     220:	01612823          	sw	s6,16(sp)
     224:	01712623          	sw	s7,12(sp)
     228:	01812423          	sw	s8,8(sp)
     22c:	02112623          	sw	ra,44(sp)
     230:	02912223          	sw	s1,36(sp)
     234:	00050a13          	mv	s4,a0
     238:	01c50413          	addi	s0,a0,28
     23c:	03050b13          	addi	s6,a0,48
     240:	93898993          	addi	s3,s3,-1736 # 4938 <mytime+0xb4>
     244:	94490913          	addi	s2,s2,-1724 # 4944 <mytime+0xc0>
     248:	95078c13          	addi	s8,a5,-1712 # 4950 <mytime+0xcc>
     24c:	00000a93          	li	s5,0
     250:	00f00b93          	li	s7,15
     254:	00042483          	lw	s1,0(s0)
     258:	00098593          	mv	a1,s3
     25c:	00048513          	mv	a0,s1
     260:	2e9000ef          	jal	d48 <strcmp>
     264:	00050793          	mv	a5,a0
     268:	00090593          	mv	a1,s2
     26c:	00048513          	mv	a0,s1
     270:	08078263          	beqz	a5,2f4 <check_damage+0xf8>
     274:	2d5000ef          	jal	d48 <strcmp>
     278:	04051263          	bnez	a0,2bc <check_damage+0xc0>
     27c:	017a2a23          	sw	s7,20(s4)
     280:	00200a93          	li	s5,2
     284:	00440413          	addi	s0,s0,4
     288:	fd6416e3          	bne	s0,s6,254 <check_damage+0x58>
     28c:	02c12083          	lw	ra,44(sp)
     290:	02812403          	lw	s0,40(sp)
     294:	02412483          	lw	s1,36(sp)
     298:	02012903          	lw	s2,32(sp)
     29c:	01c12983          	lw	s3,28(sp)
     2a0:	01812a03          	lw	s4,24(sp)
     2a4:	01412a83          	lw	s5,20(sp)
     2a8:	01012b03          	lw	s6,16(sp)
     2ac:	00c12b83          	lw	s7,12(sp)
     2b0:	00812c03          	lw	s8,8(sp)
     2b4:	03010113          	addi	sp,sp,48
     2b8:	00008067          	ret
     2bc:	00048513          	mv	a0,s1
     2c0:	000c0593          	mv	a1,s8
     2c4:	285000ef          	jal	d48 <strcmp>
     2c8:	00200793          	li	a5,2
     2cc:	00051c63          	bnez	a0,2e4 <check_damage+0xe8>
     2d0:	00800713          	li	a4,8
     2d4:	fafa86e3          	beq	s5,a5,280 <check_damage+0x84>
     2d8:	00ea2a23          	sw	a4,20(s4)
     2dc:	00100a93          	li	s5,1
     2e0:	fa5ff06f          	j	284 <check_damage+0x88>
     2e4:	00500793          	li	a5,5
     2e8:	f80a9ee3          	bnez	s5,284 <check_damage+0x88>
     2ec:	00fa2a23          	sw	a5,20(s4)
     2f0:	f95ff06f          	j	284 <check_damage+0x88>
     2f4:	01400793          	li	a5,20
     2f8:	00fa2a23          	sw	a5,20(s4)
     2fc:	f91ff06f          	j	28c <check_damage+0x90>

00000300 <peek_inventory>:
     300:	fe010113          	addi	sp,sp,-32
     304:	00812c23          	sw	s0,24(sp)
     308:	00912a23          	sw	s1,20(sp)
     30c:	01212823          	sw	s2,16(sp)
     310:	01312623          	sw	s3,12(sp)
     314:	00112e23          	sw	ra,28(sp)
     318:	01c50413          	addi	s0,a0,28
     31c:	00058913          	mv	s2,a1
     320:	00100493          	li	s1,1
     324:	00600993          	li	s3,6
     328:	00042503          	lw	a0,0(s0)
     32c:	00090593          	mv	a1,s2
     330:	219000ef          	jal	d48 <strcmp>
     334:	00050a63          	beqz	a0,348 <peek_inventory+0x48>
     338:	00148493          	addi	s1,s1,1
     33c:	00440413          	addi	s0,s0,4
     340:	ff3494e3          	bne	s1,s3,328 <peek_inventory+0x28>
     344:	00000493          	li	s1,0
     348:	01c12083          	lw	ra,28(sp)
     34c:	01812403          	lw	s0,24(sp)
     350:	01012903          	lw	s2,16(sp)
     354:	00c12983          	lw	s3,12(sp)
     358:	00048513          	mv	a0,s1
     35c:	01412483          	lw	s1,20(sp)
     360:	02010113          	addi	sp,sp,32
     364:	00008067          	ret

00000368 <add_to_inventory>:
     368:	fd010113          	addi	sp,sp,-48
     36c:	01312e23          	sw	s3,28(sp)
     370:	01412c23          	sw	s4,24(sp)
     374:	000059b7          	lui	s3,0x5
     378:	01c50a13          	addi	s4,a0,28
     37c:	02912223          	sw	s1,36(sp)
     380:	03212023          	sw	s2,32(sp)
     384:	01512a23          	sw	s5,20(sp)
     388:	01612823          	sw	s6,16(sp)
     38c:	01712623          	sw	s7,12(sp)
     390:	02112623          	sw	ra,44(sp)
     394:	02812423          	sw	s0,40(sp)
     398:	00050a93          	mv	s5,a0
     39c:	00058b93          	mv	s7,a1
     3a0:	000a0913          	mv	s2,s4
     3a4:	93098993          	addi	s3,s3,-1744 # 4930 <mytime+0xac>
     3a8:	00100493          	li	s1,1
     3ac:	00600b13          	li	s6,6
     3b0:	00092503          	lw	a0,0(s2)
     3b4:	00098593          	mv	a1,s3
     3b8:	191000ef          	jal	d48 <strcmp>
     3bc:	00050413          	mv	s0,a0
     3c0:	04050663          	beqz	a0,40c <add_to_inventory+0xa4>
     3c4:	00148493          	addi	s1,s1,1
     3c8:	00490913          	addi	s2,s2,4
     3cc:	ff6492e3          	bne	s1,s6,3b0 <add_to_inventory+0x48>
     3d0:	00005537          	lui	a0,0x5
     3d4:	95850513          	addi	a0,a0,-1704 # 4958 <mytime+0xd4>
     3d8:	594000ef          	jal	96c <print>
     3dc:	00000513          	li	a0,0
     3e0:	02c12083          	lw	ra,44(sp)
     3e4:	02812403          	lw	s0,40(sp)
     3e8:	02412483          	lw	s1,36(sp)
     3ec:	02012903          	lw	s2,32(sp)
     3f0:	01c12983          	lw	s3,28(sp)
     3f4:	01812a03          	lw	s4,24(sp)
     3f8:	01412a83          	lw	s5,20(sp)
     3fc:	01012b03          	lw	s6,16(sp)
     400:	00c12b83          	lw	s7,12(sp)
     404:	03010113          	addi	sp,sp,48
     408:	00008067          	ret
     40c:	00249793          	slli	a5,s1,0x2
     410:	01812423          	sw	s8,8(sp)
     414:	00fa87b3          	add	a5,s5,a5
     418:	0177ac23          	sw	s7,24(a5)
     41c:	00005937          	lui	s2,0x5
     420:	000059b7          	lui	s3,0x5
     424:	000057b7          	lui	a5,0x5
     428:	94490b93          	addi	s7,s2,-1724 # 4944 <mytime+0xc0>
     42c:	93898993          	addi	s3,s3,-1736 # 4938 <mytime+0xb4>
     430:	95078c13          	addi	s8,a5,-1712 # 4950 <mytime+0xcc>
     434:	030a8b13          	addi	s6,s5,48
     438:	00f00913          	li	s2,15
     43c:	000a2483          	lw	s1,0(s4)
     440:	00098593          	mv	a1,s3
     444:	00048513          	mv	a0,s1
     448:	101000ef          	jal	d48 <strcmp>
     44c:	00050793          	mv	a5,a0
     450:	000b8593          	mv	a1,s7
     454:	00048513          	mv	a0,s1
     458:	06078063          	beqz	a5,4b8 <add_to_inventory+0x150>
     45c:	0ed000ef          	jal	d48 <strcmp>
     460:	02051063          	bnez	a0,480 <add_to_inventory+0x118>
     464:	012aaa23          	sw	s2,20(s5)
     468:	00200413          	li	s0,2
     46c:	004a0a13          	addi	s4,s4,4
     470:	fd6a16e3          	bne	s4,s6,43c <add_to_inventory+0xd4>
     474:	00812c03          	lw	s8,8(sp)
     478:	00100513          	li	a0,1
     47c:	f65ff06f          	j	3e0 <add_to_inventory+0x78>
     480:	00048513          	mv	a0,s1
     484:	000c0593          	mv	a1,s8
     488:	0c1000ef          	jal	d48 <strcmp>
     48c:	00200793          	li	a5,2
     490:	00051c63          	bnez	a0,4a8 <add_to_inventory+0x140>
     494:	00800713          	li	a4,8
     498:	fcf408e3          	beq	s0,a5,468 <add_to_inventory+0x100>
     49c:	00eaaa23          	sw	a4,20(s5)
     4a0:	00100413          	li	s0,1
     4a4:	fc9ff06f          	j	46c <add_to_inventory+0x104>
     4a8:	00500793          	li	a5,5
     4ac:	fc0410e3          	bnez	s0,46c <add_to_inventory+0x104>
     4b0:	00faaa23          	sw	a5,20(s5)
     4b4:	fb9ff06f          	j	46c <add_to_inventory+0x104>
     4b8:	01400793          	li	a5,20
     4bc:	00faaa23          	sw	a5,20(s5)
     4c0:	fb5ff06f          	j	474 <add_to_inventory+0x10c>

000004c4 <remove_from_inventory>:
     4c4:	00259793          	slli	a5,a1,0x2
     4c8:	00f507b3          	add	a5,a0,a5
     4cc:	0187a603          	lw	a2,24(a5)
     4d0:	fd010113          	addi	sp,sp,-48
     4d4:	00005737          	lui	a4,0x5
     4d8:	02812423          	sw	s0,40(sp)
     4dc:	03212023          	sw	s2,32(sp)
     4e0:	01312e23          	sw	s3,28(sp)
     4e4:	01412c23          	sw	s4,24(sp)
     4e8:	01512a23          	sw	s5,20(sp)
     4ec:	01612823          	sw	s6,16(sp)
     4f0:	01712623          	sw	s7,12(sp)
     4f4:	01812423          	sw	s8,8(sp)
     4f8:	01912223          	sw	s9,4(sp)
     4fc:	02112623          	sw	ra,44(sp)
     500:	02912223          	sw	s1,36(sp)
     504:	93070713          	addi	a4,a4,-1744 # 4930 <mytime+0xac>
     508:	00005a37          	lui	s4,0x5
     50c:	000059b7          	lui	s3,0x5
     510:	000056b7          	lui	a3,0x5
     514:	00050913          	mv	s2,a0
     518:	00060c93          	mv	s9,a2
     51c:	00e7ac23          	sw	a4,24(a5)
     520:	01c50413          	addi	s0,a0,28
     524:	03050b13          	addi	s6,a0,48
     528:	938a0a13          	addi	s4,s4,-1736 # 4938 <mytime+0xb4>
     52c:	94498993          	addi	s3,s3,-1724 # 4944 <mytime+0xc0>
     530:	95068c13          	addi	s8,a3,-1712 # 4950 <mytime+0xcc>
     534:	00000a93          	li	s5,0
     538:	00f00b93          	li	s7,15
     53c:	00042483          	lw	s1,0(s0)
     540:	000a0593          	mv	a1,s4
     544:	00048513          	mv	a0,s1
     548:	001000ef          	jal	d48 <strcmp>
     54c:	00050793          	mv	a5,a0
     550:	00098593          	mv	a1,s3
     554:	00048513          	mv	a0,s1
     558:	08078663          	beqz	a5,5e4 <remove_from_inventory+0x120>
     55c:	7ec000ef          	jal	d48 <strcmp>
     560:	04051663          	bnez	a0,5ac <remove_from_inventory+0xe8>
     564:	01792a23          	sw	s7,20(s2)
     568:	00200a93          	li	s5,2
     56c:	00440413          	addi	s0,s0,4
     570:	fd6416e3          	bne	s0,s6,53c <remove_from_inventory+0x78>
     574:	02c12083          	lw	ra,44(sp)
     578:	02812403          	lw	s0,40(sp)
     57c:	02412483          	lw	s1,36(sp)
     580:	02012903          	lw	s2,32(sp)
     584:	01c12983          	lw	s3,28(sp)
     588:	01812a03          	lw	s4,24(sp)
     58c:	01412a83          	lw	s5,20(sp)
     590:	01012b03          	lw	s6,16(sp)
     594:	00c12b83          	lw	s7,12(sp)
     598:	00812c03          	lw	s8,8(sp)
     59c:	000c8513          	mv	a0,s9
     5a0:	00412c83          	lw	s9,4(sp)
     5a4:	03010113          	addi	sp,sp,48
     5a8:	00008067          	ret
     5ac:	00048513          	mv	a0,s1
     5b0:	000c0593          	mv	a1,s8
     5b4:	794000ef          	jal	d48 <strcmp>
     5b8:	00200793          	li	a5,2
     5bc:	00051c63          	bnez	a0,5d4 <remove_from_inventory+0x110>
     5c0:	00800713          	li	a4,8
     5c4:	fafa82e3          	beq	s5,a5,568 <remove_from_inventory+0xa4>
     5c8:	00e92a23          	sw	a4,20(s2)
     5cc:	00100a93          	li	s5,1
     5d0:	f9dff06f          	j	56c <remove_from_inventory+0xa8>
     5d4:	00500793          	li	a5,5
     5d8:	f80a9ae3          	bnez	s5,56c <remove_from_inventory+0xa8>
     5dc:	00f92a23          	sw	a5,20(s2)
     5e0:	f8dff06f          	j	56c <remove_from_inventory+0xa8>
     5e4:	01400793          	li	a5,20
     5e8:	00f92a23          	sw	a5,20(s2)
     5ec:	f89ff06f          	j	574 <remove_from_inventory+0xb0>

000005f0 <print_inventory>:
     5f0:	fd010113          	addi	sp,sp,-48
     5f4:	000057b7          	lui	a5,0x5
     5f8:	02912223          	sw	s1,36(sp)
     5fc:	00050493          	mv	s1,a0
     600:	96c78513          	addi	a0,a5,-1684 # 496c <mytime+0xe8>
     604:	02112623          	sw	ra,44(sp)
     608:	02812423          	sw	s0,40(sp)
     60c:	03212023          	sw	s2,32(sp)
     610:	01312e23          	sw	s3,28(sp)
     614:	01412c23          	sw	s4,24(sp)
     618:	01512a23          	sw	s5,20(sp)
     61c:	01612823          	sw	s6,16(sp)
     620:	34c000ef          	jal	96c <print>
     624:	0104a503          	lw	a0,16(s1)
     628:	00005937          	lui	s2,0x5
     62c:	000059b7          	lui	s3,0x5
     630:	374000ef          	jal	9a4 <print_dec>
     634:	00005537          	lui	a0,0x5
     638:	f7450513          	addi	a0,a0,-140 # 4f74 <__global_pointer+0x37b>
     63c:	330000ef          	jal	96c <print>
     640:	00005537          	lui	a0,0x5
     644:	97850513          	addi	a0,a0,-1672 # 4978 <mytime+0xf4>
     648:	00005ab7          	lui	s5,0x5
     64c:	320000ef          	jal	96c <print>
     650:	00005b37          	lui	s6,0x5
     654:	01c48493          	addi	s1,s1,28
     658:	93090913          	addi	s2,s2,-1744 # 4930 <mytime+0xac>
     65c:	9dc98993          	addi	s3,s3,-1572 # 49dc <mytime+0x158>
     660:	984a8a93          	addi	s5,s5,-1660 # 4984 <mytime+0x100>
     664:	00100413          	li	s0,1
     668:	00600a13          	li	s4,6
     66c:	0004a503          	lw	a0,0(s1)
     670:	00090593          	mv	a1,s2
     674:	6d4000ef          	jal	d48 <strcmp>
     678:	00050793          	mv	a5,a0
     67c:	00040513          	mv	a0,s0
     680:	04078c63          	beqz	a5,6d8 <print_inventory+0xe8>
     684:	320000ef          	jal	9a4 <print_dec>
     688:	00098513          	mv	a0,s3
     68c:	2e0000ef          	jal	96c <print>
     690:	0004a503          	lw	a0,0(s1)
     694:	2d8000ef          	jal	96c <print>
     698:	c50b0513          	addi	a0,s6,-944 # 4c50 <__global_pointer+0x57>
     69c:	2d0000ef          	jal	96c <print>
     6a0:	00140413          	addi	s0,s0,1
     6a4:	00448493          	addi	s1,s1,4
     6a8:	fd4412e3          	bne	s0,s4,66c <print_inventory+0x7c>
     6ac:	02812403          	lw	s0,40(sp)
     6b0:	02c12083          	lw	ra,44(sp)
     6b4:	02412483          	lw	s1,36(sp)
     6b8:	02012903          	lw	s2,32(sp)
     6bc:	01c12983          	lw	s3,28(sp)
     6c0:	01812a03          	lw	s4,24(sp)
     6c4:	01412a83          	lw	s5,20(sp)
     6c8:	c50b0513          	addi	a0,s6,-944
     6cc:	01012b03          	lw	s6,16(sp)
     6d0:	03010113          	addi	sp,sp,48
     6d4:	2980006f          	j	96c <print>
     6d8:	2cc000ef          	jal	9a4 <print_dec>
     6dc:	00098513          	mv	a0,s3
     6e0:	28c000ef          	jal	96c <print>
     6e4:	000a8513          	mv	a0,s5
     6e8:	284000ef          	jal	96c <print>
     6ec:	fb5ff06f          	j	6a0 <print_inventory+0xb0>

000006f0 <new_enemy>:
     6f0:	00b52023          	sw	a1,0(a0)
     6f4:	00c52223          	sw	a2,4(a0)
     6f8:	00d52423          	sw	a3,8(a0)
     6fc:	00d52623          	sw	a3,12(a0)
     700:	00e52823          	sw	a4,16(a0)
     704:	00f52c23          	sw	a5,24(a0)
     708:	00008067          	ret

0000070c <new_room>:
     70c:	00b52023          	sw	a1,0(a0)
     710:	00c52223          	sw	a2,4(a0)
     714:	00d52423          	sw	a3,8(a0)
     718:	00052623          	sw	zero,12(a0)
     71c:	00052823          	sw	zero,16(a0)
     720:	00052a23          	sw	zero,20(a0)
     724:	02e52a23          	sw	a4,52(a0)
     728:	06f52623          	sw	a5,108(a0)
     72c:	00008067          	ret

00000730 <new_npc>:
     730:	0006a283          	lw	t0,0(a3)
     734:	0046af83          	lw	t6,4(a3)
     738:	0086af03          	lw	t5,8(a3)
     73c:	00c6ae83          	lw	t4,12(a3)
     740:	0106ae03          	lw	t3,16(a3)
     744:	0146a303          	lw	t1,20(a3)
     748:	0186a883          	lw	a7,24(a3)
     74c:	01c6a803          	lw	a6,28(a3)
     750:	0246a783          	lw	a5,36(a3)
     754:	00b52023          	sw	a1,0(a0)
     758:	0206a583          	lw	a1,32(a3)
     75c:	00c52223          	sw	a2,4(a0)
     760:	02e52823          	sw	a4,48(a0)
     764:	00552423          	sw	t0,8(a0)
     768:	01f52623          	sw	t6,12(a0)
     76c:	01e52823          	sw	t5,16(a0)
     770:	01d52a23          	sw	t4,20(a0)
     774:	01c52c23          	sw	t3,24(a0)
     778:	00652e23          	sw	t1,28(a0)
     77c:	03152023          	sw	a7,32(a0)
     780:	03052223          	sw	a6,36(a0)
     784:	02b52423          	sw	a1,40(a0)
     788:	02f52623          	sw	a5,44(a0)
     78c:	00008067          	ret

00000790 <display_string>:
     790:	00400893          	li	a7,4
     794:	00000073          	ecall
     798:	00a00513          	li	a0,10
     79c:	00b00893          	li	a7,11
     7a0:	00000073          	ecall
     7a4:	00008067          	ret

000007a8 <timetemplate>:
     7a8:	00004517          	auipc	a0,0x4
     7ac:	c0c50513          	addi	a0,a0,-1012 # 43b4 <timstr>
     7b0:	fe1ff0ef          	jal	790 <display_string>
     7b4:	3e800513          	li	a0,1000
     7b8:	170000ef          	jal	928 <delay>
     7bc:	00004517          	auipc	a0,0x4
     7c0:	bf450513          	addi	a0,a0,-1036 # 43b0 <mytime>
     7c4:	020000ef          	jal	7e4 <tick>
     7c8:	00004517          	auipc	a0,0x4
     7cc:	bec50513          	addi	a0,a0,-1044 # 43b4 <timstr>
     7d0:	00004297          	auipc	t0,0x4
     7d4:	be028293          	addi	t0,t0,-1056 # 43b0 <mytime>
     7d8:	0002a583          	lw	a1,0(t0)
     7dc:	080000ef          	jal	85c <time2string>
     7e0:	fc9ff06f          	j	7a8 <timetemplate>

000007e4 <tick>:
     7e4:	00052283          	lw	t0,0(a0)
     7e8:	00128293          	addi	t0,t0,1
     7ec:	00f2f313          	andi	t1,t0,15
     7f0:	00a33393          	sltiu	t2,t1,10
     7f4:	06039063          	bnez	t2,854 <tiend>
     7f8:	00628293          	addi	t0,t0,6
     7fc:	0f02f313          	andi	t1,t0,240
     800:	06033393          	sltiu	t2,t1,96
     804:	04039863          	bnez	t2,854 <tiend>
     808:	0a028293          	addi	t0,t0,160
     80c:	00f00e13          	li	t3,15
     810:	008e1e13          	slli	t3,t3,0x8
     814:	01c2f333          	and	t1,t0,t3
     818:	00a00e13          	li	t3,10
     81c:	008e1e13          	slli	t3,t3,0x8
     820:	01c323b3          	slt	t2,t1,t3
     824:	02039863          	bnez	t2,854 <tiend>
     828:	60028293          	addi	t0,t0,1536
     82c:	00f00e13          	li	t3,15
     830:	00ce1e13          	slli	t3,t3,0xc
     834:	01c2f333          	and	t1,t0,t3
     838:	00600e13          	li	t3,6
     83c:	00ce1e13          	slli	t3,t3,0xc
     840:	01c323b3          	slt	t2,t1,t3
     844:	00039863          	bnez	t2,854 <tiend>
     848:	00a00e13          	li	t3,10
     84c:	00ce1e13          	slli	t3,t3,0xc
     850:	01c282b3          	add	t0,t0,t3

00000854 <tiend>:
     854:	00552023          	sw	t0,0(a0)
     858:	00008067          	ret

0000085c <time2string>:
     85c:	ffc10113          	addi	sp,sp,-4
     860:	00812023          	sw	s0,0(sp)
     864:	ffc10113          	addi	sp,sp,-4
     868:	00912023          	sw	s1,0(sp)
     86c:	ffc10113          	addi	sp,sp,-4
     870:	01212023          	sw	s2,0(sp)
     874:	ffc10113          	addi	sp,sp,-4
     878:	00112023          	sw	ra,0(sp)
     87c:	000102b7          	lui	t0,0x10
     880:	fff28293          	addi	t0,t0,-1 # ffff <__global_pointer+0xb406>
     884:	0055f5b3          	and	a1,a1,t0
     888:	00050433          	add	s0,a0,zero
     88c:	000584b3          	add	s1,a1,zero
     890:	00c00913          	li	s2,12
     894:	00048533          	add	a0,s1,zero
     898:	01255533          	srl	a0,a0,s2
     89c:	070000ef          	jal	90c <hexasc>
     8a0:	00a40023          	sb	a0,0(s0)
     8a4:	ffc90913          	addi	s2,s2,-4
     8a8:	00048533          	add	a0,s1,zero
     8ac:	01255533          	srl	a0,a0,s2
     8b0:	05c000ef          	jal	90c <hexasc>
     8b4:	00a400a3          	sb	a0,1(s0)
     8b8:	ffc90913          	addi	s2,s2,-4
     8bc:	03a00513          	li	a0,58
     8c0:	00a40123          	sb	a0,2(s0)
     8c4:	00048533          	add	a0,s1,zero
     8c8:	01255533          	srl	a0,a0,s2
     8cc:	040000ef          	jal	90c <hexasc>
     8d0:	00a401a3          	sb	a0,3(s0)
     8d4:	ffc90913          	addi	s2,s2,-4
     8d8:	00048533          	add	a0,s1,zero
     8dc:	030000ef          	jal	90c <hexasc>
     8e0:	00a40223          	sb	a0,4(s0)
     8e4:	000402a3          	sb	zero,5(s0)
     8e8:	00012083          	lw	ra,0(sp)
     8ec:	00410113          	addi	sp,sp,4
     8f0:	00012903          	lw	s2,0(sp)
     8f4:	00410113          	addi	sp,sp,4
     8f8:	00012483          	lw	s1,0(sp)
     8fc:	00410113          	addi	sp,sp,4
     900:	00012403          	lw	s0,0(sp)
     904:	00410113          	addi	sp,sp,4
     908:	00008067          	ret

0000090c <hexasc>:
     90c:	00f57513          	andi	a0,a0,15
     910:	00900313          	li	t1,9
     914:	00a35663          	bge	t1,a0,920 <else>
     918:	03750513          	addi	a0,a0,55
     91c:	0080006f          	j	924 <done>

00000920 <else>:
     920:	03050513          	addi	a0,a0,48

00000924 <done>:
     924:	00008067          	ret

00000928 <delay>:
     928:	00002337          	lui	t1,0x2
     92c:	71030313          	addi	t1,t1,1808 # 2710 <room_init+0x41c>

00000930 <dwhile>:
     930:	00a05c63          	blez	a0,948 <dwhileout>
     934:	00000293          	li	t0,0
     938:	fff50513          	addi	a0,a0,-1

0000093c <dfor>:
     93c:	fe62dae3          	bge	t0,t1,930 <dwhile>
     940:	00128293          	addi	t0,t0,1
     944:	ff9ff06f          	j	93c <dfor>

00000948 <dwhileout>:
     948:	00008067          	ret

0000094c <printc>:
     94c:	04000737          	lui	a4,0x4000
     950:	04470713          	addi	a4,a4,68 # 4000044 <_stack_end+0x3ef9868>
     954:	000106b7          	lui	a3,0x10
     958:	00072783          	lw	a5,0(a4)
     95c:	fed7eee3          	bltu	a5,a3,958 <printc+0xc>
     960:	040007b7          	lui	a5,0x4000
     964:	04a7a023          	sw	a0,64(a5) # 4000040 <_stack_end+0x3ef9864>
     968:	00008067          	ret

0000096c <print>:
     96c:	00054603          	lbu	a2,0(a0)
     970:	02060863          	beqz	a2,9a0 <print+0x34>
     974:	04000737          	lui	a4,0x4000
     978:	040005b7          	lui	a1,0x4000
     97c:	04470713          	addi	a4,a4,68 # 4000044 <_stack_end+0x3ef9868>
     980:	04058593          	addi	a1,a1,64 # 4000040 <_stack_end+0x3ef9864>
     984:	000106b7          	lui	a3,0x10
     988:	00072783          	lw	a5,0(a4)
     98c:	fed7eee3          	bltu	a5,a3,988 <print+0x1c>
     990:	00c5a023          	sw	a2,0(a1)
     994:	00154603          	lbu	a2,1(a0)
     998:	00150513          	addi	a0,a0,1
     99c:	fe0616e3          	bnez	a2,988 <print+0x1c>
     9a0:	00008067          	ret

000009a4 <print_dec>:
     9a4:	3b9ad737          	lui	a4,0x3b9ad
     9a8:	040006b7          	lui	a3,0x4000
     9ac:	04000337          	lui	t1,0x4000
     9b0:	ccccd8b7          	lui	a7,0xccccd
     9b4:	a0070713          	addi	a4,a4,-1536 # 3b9aca00 <_stack_end+0x3b8a6224>
     9b8:	04468693          	addi	a3,a3,68 # 4000044 <_stack_end+0x3ef9868>
     9bc:	04030313          	addi	t1,t1,64 # 4000040 <_stack_end+0x3ef9864>
     9c0:	ccd88893          	addi	a7,a7,-819 # cccccccd <_stack_end+0xccbc64f1>
     9c4:	00a00593          	li	a1,10
     9c8:	00000793          	li	a5,0
     9cc:	00010637          	lui	a2,0x10
     9d0:	04e57663          	bgeu	a0,a4,a1c <print_dec+0x78>
     9d4:	00078813          	mv	a6,a5
     9d8:	00000793          	li	a5,0
     9dc:	04081063          	bnez	a6,a1c <print_dec+0x78>
     9e0:	03173833          	mulhu	a6,a4,a7
     9e4:	fff58593          	addi	a1,a1,-1
     9e8:	02e57533          	remu	a0,a0,a4
     9ec:	00385713          	srli	a4,a6,0x3
     9f0:	fe0590e3          	bnez	a1,9d0 <print_dec+0x2c>
     9f4:	02079263          	bnez	a5,a18 <print_dec+0x74>
     9f8:	04000737          	lui	a4,0x4000
     9fc:	04470713          	addi	a4,a4,68 # 4000044 <_stack_end+0x3ef9868>
     a00:	000106b7          	lui	a3,0x10
     a04:	00072783          	lw	a5,0(a4)
     a08:	fed7eee3          	bltu	a5,a3,a04 <print_dec+0x60>
     a0c:	040007b7          	lui	a5,0x4000
     a10:	03000713          	li	a4,48
     a14:	04e7a023          	sw	a4,64(a5) # 4000040 <_stack_end+0x3ef9864>
     a18:	00008067          	ret
     a1c:	02e55833          	divu	a6,a0,a4
     a20:	03080813          	addi	a6,a6,48
     a24:	0ff87813          	zext.b	a6,a6
     a28:	0006a783          	lw	a5,0(a3) # 10000 <__global_pointer+0xb407>
     a2c:	fec7eee3          	bltu	a5,a2,a28 <print_dec+0x84>
     a30:	01032023          	sw	a6,0(t1)
     a34:	00100793          	li	a5,1
     a38:	fa9ff06f          	j	9e0 <print_dec+0x3c>

00000a3c <print_hex32>:
     a3c:	04000737          	lui	a4,0x4000
     a40:	04470713          	addi	a4,a4,68 # 4000044 <_stack_end+0x3ef9868>
     a44:	000106b7          	lui	a3,0x10
     a48:	00072783          	lw	a5,0(a4)
     a4c:	fed7eee3          	bltu	a5,a3,a48 <print_hex32+0xc>
     a50:	040007b7          	lui	a5,0x4000
     a54:	03000693          	li	a3,48
     a58:	04d7a023          	sw	a3,64(a5) # 4000040 <_stack_end+0x3ef9864>
     a5c:	04478713          	addi	a4,a5,68
     a60:	000106b7          	lui	a3,0x10
     a64:	00072783          	lw	a5,0(a4)
     a68:	fed7eee3          	bltu	a5,a3,a64 <print_hex32+0x28>
     a6c:	04000837          	lui	a6,0x4000
     a70:	04080813          	addi	a6,a6,64 # 4000040 <_stack_end+0x3ef9864>
     a74:	07800793          	li	a5,120
     a78:	04000737          	lui	a4,0x4000
     a7c:	00f82023          	sw	a5,0(a6)
     a80:	04470713          	addi	a4,a4,68 # 4000044 <_stack_end+0x3ef9868>
     a84:	01c00613          	li	a2,28
     a88:	00900313          	li	t1,9
     a8c:	000106b7          	lui	a3,0x10
     a90:	ffc00893          	li	a7,-4
     a94:	00c557b3          	srl	a5,a0,a2
     a98:	00f7f793          	andi	a5,a5,15
     a9c:	03778593          	addi	a1,a5,55
     aa0:	00f36463          	bltu	t1,a5,aa8 <print_hex32+0x6c>
     aa4:	03078593          	addi	a1,a5,48
     aa8:	00072783          	lw	a5,0(a4)
     aac:	fed7eee3          	bltu	a5,a3,aa8 <print_hex32+0x6c>
     ab0:	00b82023          	sw	a1,0(a6)
     ab4:	ffc60613          	addi	a2,a2,-4 # fffc <__global_pointer+0xb403>
     ab8:	fd161ee3          	bne	a2,a7,a94 <print_hex32+0x58>
     abc:	00008067          	ret

00000ac0 <handle_exception>:
     ac0:	00200793          	li	a5,2
     ac4:	1af80463          	beq	a6,a5,c6c <handle_exception+0x1ac>
     ac8:	00b00793          	li	a5,11
     acc:	12f80663          	beq	a6,a5,bf8 <handle_exception+0x138>
     ad0:	14081c63          	bnez	a6,c28 <handle_exception+0x168>
     ad4:	00005637          	lui	a2,0x5
     ad8:	000058b7          	lui	a7,0x5
     adc:	04000737          	lui	a4,0x4000
     ae0:	04000837          	lui	a6,0x4000
     ae4:	98c60613          	addi	a2,a2,-1652 # 498c <mytime+0x108>
     ae8:	9bb88893          	addi	a7,a7,-1605 # 49bb <mytime+0x137>
     aec:	04470713          	addi	a4,a4,68 # 4000044 <_stack_end+0x3ef9868>
     af0:	04080813          	addi	a6,a6,64 # 4000040 <_stack_end+0x3ef9864>
     af4:	00a00593          	li	a1,10
     af8:	000106b7          	lui	a3,0x10
     afc:	00072783          	lw	a5,0(a4)
     b00:	fed7eee3          	bltu	a5,a3,afc <handle_exception+0x3c>
     b04:	00b82023          	sw	a1,0(a6)
     b08:	00160613          	addi	a2,a2,1
     b0c:	00064583          	lbu	a1,0(a2)
     b10:	ff1616e3          	bne	a2,a7,afc <handle_exception+0x3c>
     b14:	00005637          	lui	a2,0x5
     b18:	000058b7          	lui	a7,0x5
     b1c:	04000737          	lui	a4,0x4000
     b20:	04000837          	lui	a6,0x4000
     b24:	a0060613          	addi	a2,a2,-1536 # 4a00 <mytime+0x17c>
     b28:	a1388893          	addi	a7,a7,-1517 # 4a13 <mytime+0x18f>
     b2c:	04470713          	addi	a4,a4,68 # 4000044 <_stack_end+0x3ef9868>
     b30:	04080813          	addi	a6,a6,64 # 4000040 <_stack_end+0x3ef9864>
     b34:	04500593          	li	a1,69
     b38:	000106b7          	lui	a3,0x10
     b3c:	00072783          	lw	a5,0(a4)
     b40:	fed7eee3          	bltu	a5,a3,b3c <handle_exception+0x7c>
     b44:	00b82023          	sw	a1,0(a6)
     b48:	00160613          	addi	a2,a2,1
     b4c:	00064583          	lbu	a1,0(a2)
     b50:	ff1616e3          	bne	a2,a7,b3c <handle_exception+0x7c>
     b54:	04000737          	lui	a4,0x4000
     b58:	04470713          	addi	a4,a4,68 # 4000044 <_stack_end+0x3ef9868>
     b5c:	000106b7          	lui	a3,0x10
     b60:	00072783          	lw	a5,0(a4)
     b64:	fed7eee3          	bltu	a5,a3,b60 <handle_exception+0xa0>
     b68:	040007b7          	lui	a5,0x4000
     b6c:	03000693          	li	a3,48
     b70:	04d7a023          	sw	a3,64(a5) # 4000040 <_stack_end+0x3ef9864>
     b74:	04478713          	addi	a4,a5,68
     b78:	000106b7          	lui	a3,0x10
     b7c:	00072783          	lw	a5,0(a4)
     b80:	fed7eee3          	bltu	a5,a3,b7c <handle_exception+0xbc>
     b84:	04000837          	lui	a6,0x4000
     b88:	04080813          	addi	a6,a6,64 # 4000040 <_stack_end+0x3ef9864>
     b8c:	07800793          	li	a5,120
     b90:	04000737          	lui	a4,0x4000
     b94:	00f82023          	sw	a5,0(a6)
     b98:	04470713          	addi	a4,a4,68 # 4000044 <_stack_end+0x3ef9868>
     b9c:	01c00613          	li	a2,28
     ba0:	00900313          	li	t1,9
     ba4:	000106b7          	lui	a3,0x10
     ba8:	ffc00893          	li	a7,-4
     bac:	00c557b3          	srl	a5,a0,a2
     bb0:	00f7f793          	andi	a5,a5,15
     bb4:	03778593          	addi	a1,a5,55
     bb8:	00f36463          	bltu	t1,a5,bc0 <handle_exception+0x100>
     bbc:	03078593          	addi	a1,a5,48
     bc0:	00072783          	lw	a5,0(a4)
     bc4:	fed7eee3          	bltu	a5,a3,bc0 <handle_exception+0x100>
     bc8:	00b82023          	sw	a1,0(a6)
     bcc:	ffc60613          	addi	a2,a2,-4
     bd0:	fd161ee3          	bne	a2,a7,bac <handle_exception+0xec>
     bd4:	04000737          	lui	a4,0x4000
     bd8:	04470713          	addi	a4,a4,68 # 4000044 <_stack_end+0x3ef9868>
     bdc:	000106b7          	lui	a3,0x10
     be0:	00072783          	lw	a5,0(a4)
     be4:	fed7eee3          	bltu	a5,a3,be0 <handle_exception+0x120>
     be8:	040007b7          	lui	a5,0x4000
     bec:	00a00713          	li	a4,10
     bf0:	04e7a023          	sw	a4,64(a5) # 4000040 <_stack_end+0x3ef9864>
     bf4:	0000006f          	j	bf4 <handle_exception+0x134>
     bf8:	00400793          	li	a5,4
     bfc:	0af88a63          	beq	a7,a5,cb0 <handle_exception+0x1f0>
     c00:	0f089463          	bne	a7,a6,ce8 <handle_exception+0x228>
     c04:	04000737          	lui	a4,0x4000
     c08:	04470713          	addi	a4,a4,68 # 4000044 <_stack_end+0x3ef9868>
     c0c:	000106b7          	lui	a3,0x10
     c10:	00072783          	lw	a5,0(a4)
     c14:	fed7eee3          	bltu	a5,a3,c10 <handle_exception+0x150>
     c18:	040007b7          	lui	a5,0x4000
     c1c:	0ff57513          	zext.b	a0,a0
     c20:	04a7a023          	sw	a0,64(a5) # 4000040 <_stack_end+0x3ef9864>
     c24:	00008067          	ret
     c28:	00005637          	lui	a2,0x5
     c2c:	000058b7          	lui	a7,0x5
     c30:	04000737          	lui	a4,0x4000
     c34:	04000837          	lui	a6,0x4000
     c38:	9e060613          	addi	a2,a2,-1568 # 49e0 <mytime+0x15c>
     c3c:	9fc88893          	addi	a7,a7,-1540 # 49fc <mytime+0x178>
     c40:	04470713          	addi	a4,a4,68 # 4000044 <_stack_end+0x3ef9868>
     c44:	04080813          	addi	a6,a6,64 # 4000040 <_stack_end+0x3ef9864>
     c48:	00a00593          	li	a1,10
     c4c:	000106b7          	lui	a3,0x10
     c50:	00072783          	lw	a5,0(a4)
     c54:	fed7eee3          	bltu	a5,a3,c50 <handle_exception+0x190>
     c58:	00b82023          	sw	a1,0(a6)
     c5c:	00160613          	addi	a2,a2,1
     c60:	00064583          	lbu	a1,0(a2)
     c64:	ff1616e3          	bne	a2,a7,c50 <handle_exception+0x190>
     c68:	eadff06f          	j	b14 <handle_exception+0x54>
     c6c:	00005637          	lui	a2,0x5
     c70:	000058b7          	lui	a7,0x5
     c74:	04000737          	lui	a4,0x4000
     c78:	04000837          	lui	a6,0x4000
     c7c:	9bc60613          	addi	a2,a2,-1604 # 49bc <mytime+0x138>
     c80:	9de88893          	addi	a7,a7,-1570 # 49de <mytime+0x15a>
     c84:	04470713          	addi	a4,a4,68 # 4000044 <_stack_end+0x3ef9868>
     c88:	04080813          	addi	a6,a6,64 # 4000040 <_stack_end+0x3ef9864>
     c8c:	00a00593          	li	a1,10
     c90:	000106b7          	lui	a3,0x10
     c94:	00072783          	lw	a5,0(a4)
     c98:	fed7eee3          	bltu	a5,a3,c94 <handle_exception+0x1d4>
     c9c:	00b82023          	sw	a1,0(a6)
     ca0:	00160613          	addi	a2,a2,1
     ca4:	00064583          	lbu	a1,0(a2)
     ca8:	ff1616e3          	bne	a2,a7,c94 <handle_exception+0x1d4>
     cac:	e69ff06f          	j	b14 <handle_exception+0x54>
     cb0:	00054603          	lbu	a2,0(a0)
     cb4:	02060a63          	beqz	a2,ce8 <handle_exception+0x228>
     cb8:	04000737          	lui	a4,0x4000
     cbc:	040005b7          	lui	a1,0x4000
     cc0:	04470713          	addi	a4,a4,68 # 4000044 <_stack_end+0x3ef9868>
     cc4:	04058593          	addi	a1,a1,64 # 4000040 <_stack_end+0x3ef9864>
     cc8:	000106b7          	lui	a3,0x10
     ccc:	00072783          	lw	a5,0(a4)
     cd0:	fed7eee3          	bltu	a5,a3,ccc <handle_exception+0x20c>
     cd4:	00c5a023          	sw	a2,0(a1)
     cd8:	00154603          	lbu	a2,1(a0)
     cdc:	00150513          	addi	a0,a0,1
     ce0:	fe0616e3          	bnez	a2,ccc <handle_exception+0x20c>
     ce4:	00008067          	ret
     ce8:	00008067          	ret

00000cec <nextprime>:
     cec:	00200793          	li	a5,2
     cf0:	02a7c063          	blt	a5,a0,d10 <nextprime+0x24>
     cf4:	00100693          	li	a3,1
     cf8:	00a05863          	blez	a0,d08 <nextprime+0x1c>
     cfc:	fff50793          	addi	a5,a0,-1
     d00:	00f037b3          	snez	a5,a5
     d04:	00278693          	addi	a3,a5,2
     d08:	00068513          	mv	a0,a3
     d0c:	00008067          	ret
     d10:	00150513          	addi	a0,a0,1
     d14:	00156693          	ori	a3,a0,1
     d18:	00300793          	li	a5,3
     d1c:	02f6e733          	rem	a4,a3,a5
     d20:	4016d613          	srai	a2,a3,0x1
     d24:	00260613          	addi	a2,a2,2
     d28:	00178793          	addi	a5,a5,1
     d2c:	00070a63          	beqz	a4,d40 <nextprime+0x54>
     d30:	fcf60ce3          	beq	a2,a5,d08 <nextprime+0x1c>
     d34:	02f6e733          	rem	a4,a3,a5
     d38:	00178793          	addi	a5,a5,1
     d3c:	fe071ae3          	bnez	a4,d30 <nextprime+0x44>
     d40:	00268693          	addi	a3,a3,2 # 10002 <__global_pointer+0xb409>
     d44:	fd5ff06f          	j	d18 <nextprime+0x2c>

00000d48 <strcmp>:
     d48:	00050283          	lb	t0,0(a0)
     d4c:	00058303          	lb	t1,0(a1)

00000d50 <loop>:
     d50:	02629263          	bne	t0,t1,d74 <diff>
     d54:	00028c63          	beqz	t0,d6c <equal>
     d58:	00150513          	addi	a0,a0,1
     d5c:	00158593          	addi	a1,a1,1
     d60:	00050283          	lb	t0,0(a0)
     d64:	00058303          	lb	t1,0(a1)
     d68:	fe9ff06f          	j	d50 <loop>

00000d6c <equal>:
     d6c:	00000513          	li	a0,0
     d70:	00008067          	ret

00000d74 <diff>:
     d74:	40628533          	sub	a0,t0,t1
     d78:	00008067          	ret

00000d7c <room_exits.constprop.0>:
     d7c:	fd010113          	addi	sp,sp,-48
     d80:	02912223          	sw	s1,36(sp)
     d84:	01412c23          	sw	s4,24(sp)
     d88:	01512a23          	sw	s5,20(sp)
     d8c:	01612823          	sw	s6,16(sp)
     d90:	000054b7          	lui	s1,0x5
     d94:	00005b37          	lui	s6,0x5
     d98:	00005ab7          	lui	s5,0x5
     d9c:	00004a37          	lui	s4,0x4
     da0:	03212023          	sw	s2,32(sp)
     da4:	01312e23          	sw	s3,28(sp)
     da8:	01712623          	sw	s7,12(sp)
     dac:	01812423          	sw	s8,8(sp)
     db0:	02112623          	sw	ra,44(sp)
     db4:	02812423          	sw	s0,40(sp)
     db8:	00050993          	mv	s3,a0
     dbc:	c5048493          	addi	s1,s1,-944 # 4c50 <__global_pointer+0x57>
     dc0:	a14b0b13          	addi	s6,s6,-1516 # 4a14 <mytime+0x190>
     dc4:	9dca8a93          	addi	s5,s5,-1572 # 49dc <mytime+0x158>
     dc8:	408a0a13          	addi	s4,s4,1032 # 4408 <rooms>
     dcc:	00005c37          	lui	s8,0x5
     dd0:	00005937          	lui	s2,0x5
     dd4:	00200b93          	li	s7,2
     dd8:	02800413          	li	s0,40
     ddc:	00048513          	mv	a0,s1
     de0:	fff40413          	addi	s0,s0,-1
     de4:	b89ff0ef          	jal	96c <print>
     de8:	fe041ae3          	bnez	s0,ddc <room_exits.constprop.0+0x60>
     dec:	000b0513          	mv	a0,s6
     df0:	b7dff0ef          	jal	96c <print>
     df4:	0049a503          	lw	a0,4(s3)
     df8:	b75ff0ef          	jal	96c <print>
     dfc:	a24c0513          	addi	a0,s8,-1500 # 4a24 <mytime+0x1a0>
     e00:	b6dff0ef          	jal	96c <print>
     e04:	00c9a783          	lw	a5,12(s3)
     e08:	0a079e63          	bnez	a5,ec4 <room_exits.constprop.0+0x148>
     e0c:	0109a783          	lw	a5,16(s3)
     e10:	04079063          	bnez	a5,e50 <room_exits.constprop.0+0xd4>
     e14:	0149a783          	lw	a5,20(s3)
     e18:	06079a63          	bnez	a5,e8c <room_exits.constprop.0+0x110>
     e1c:	86092a23          	sw	zero,-1932(s2) # 4874 <option>
     e20:	00a00513          	li	a0,10
     e24:	b05ff0ef          	jal	928 <delay>
     e28:	87492783          	lw	a5,-1932(s2)
     e2c:	fe078ae3          	beqz	a5,e20 <room_exits.constprop.0+0xa4>
     e30:	fff78793          	addi	a5,a5,-1
     e34:	00fbea63          	bltu	s7,a5,e48 <room_exits.constprop.0+0xcc>
     e38:	00279793          	slli	a5,a5,0x2
     e3c:	00f987b3          	add	a5,s3,a5
     e40:	00c7a783          	lw	a5,12(a5)
     e44:	0a079c63          	bnez	a5,efc <room_exits.constprop.0+0x180>
     e48:	86092a23          	sw	zero,-1932(s2)
     e4c:	f8dff06f          	j	dd8 <room_exits.constprop.0+0x5c>
     e50:	00200513          	li	a0,2
     e54:	b51ff0ef          	jal	9a4 <print_dec>
     e58:	000a8513          	mv	a0,s5
     e5c:	b11ff0ef          	jal	96c <print>
     e60:	0109a703          	lw	a4,16(s3)
     e64:	00371793          	slli	a5,a4,0x3
     e68:	40e787b3          	sub	a5,a5,a4
     e6c:	00479793          	slli	a5,a5,0x4
     e70:	00fa07b3          	add	a5,s4,a5
     e74:	0047a503          	lw	a0,4(a5)
     e78:	af5ff0ef          	jal	96c <print>
     e7c:	00048513          	mv	a0,s1
     e80:	aedff0ef          	jal	96c <print>
     e84:	0149a783          	lw	a5,20(s3)
     e88:	f8078ae3          	beqz	a5,e1c <room_exits.constprop.0+0xa0>
     e8c:	00300513          	li	a0,3
     e90:	b15ff0ef          	jal	9a4 <print_dec>
     e94:	000a8513          	mv	a0,s5
     e98:	ad5ff0ef          	jal	96c <print>
     e9c:	0149a703          	lw	a4,20(s3)
     ea0:	00371793          	slli	a5,a4,0x3
     ea4:	40e787b3          	sub	a5,a5,a4
     ea8:	00479793          	slli	a5,a5,0x4
     eac:	00fa07b3          	add	a5,s4,a5
     eb0:	0047a503          	lw	a0,4(a5)
     eb4:	ab9ff0ef          	jal	96c <print>
     eb8:	00048513          	mv	a0,s1
     ebc:	ab1ff0ef          	jal	96c <print>
     ec0:	f5dff06f          	j	e1c <room_exits.constprop.0+0xa0>
     ec4:	00100513          	li	a0,1
     ec8:	addff0ef          	jal	9a4 <print_dec>
     ecc:	000a8513          	mv	a0,s5
     ed0:	a9dff0ef          	jal	96c <print>
     ed4:	00c9a703          	lw	a4,12(s3)
     ed8:	00371793          	slli	a5,a4,0x3
     edc:	40e787b3          	sub	a5,a5,a4
     ee0:	00479793          	slli	a5,a5,0x4
     ee4:	00fa07b3          	add	a5,s4,a5
     ee8:	0047a503          	lw	a0,4(a5)
     eec:	a81ff0ef          	jal	96c <print>
     ef0:	00048513          	mv	a0,s1
     ef4:	a79ff0ef          	jal	96c <print>
     ef8:	f15ff06f          	j	e0c <room_exits.constprop.0+0x90>
     efc:	00004737          	lui	a4,0x4
     f00:	3fc72583          	lw	a1,1020(a4) # 43fc <current_room>
     f04:	02c12083          	lw	ra,44(sp)
     f08:	02812403          	lw	s0,40(sp)
     f0c:	00005637          	lui	a2,0x5
     f10:	000056b7          	lui	a3,0x5
     f14:	3ef72e23          	sw	a5,1020(a4)
     f18:	86b62423          	sw	a1,-1944(a2) # 4868 <prev_room>
     f1c:	8606a623          	sw	zero,-1940(a3) # 486c <next_room>
     f20:	02412483          	lw	s1,36(sp)
     f24:	02012903          	lw	s2,32(sp)
     f28:	01c12983          	lw	s3,28(sp)
     f2c:	01812a03          	lw	s4,24(sp)
     f30:	01412a83          	lw	s5,20(sp)
     f34:	01012b03          	lw	s6,16(sp)
     f38:	00c12b83          	lw	s7,12(sp)
     f3c:	00812c03          	lw	s8,8(sp)
     f40:	03010113          	addi	sp,sp,48
     f44:	00008067          	ret

00000f48 <combat.part.0>:
     f48:	fa010113          	addi	sp,sp,-96
     f4c:	03712e23          	sw	s7,60(sp)
     f50:	00100793          	li	a5,1
     f54:	00005bb7          	lui	s7,0x5
     f58:	04812c23          	sw	s0,88(sp)
     f5c:	05312623          	sw	s3,76(sp)
     f60:	05412423          	sw	s4,72(sp)
     f64:	05612023          	sw	s6,64(sp)
     f68:	04112e23          	sw	ra,92(sp)
     f6c:	86fba823          	sw	a5,-1936(s7) # 4870 <in_combat>
     f70:	00005b37          	lui	s6,0x5
     f74:	00050993          	mv	s3,a0
     f78:	00058a13          	mv	s4,a1
     f7c:	02800413          	li	s0,40
     f80:	c50b0513          	addi	a0,s6,-944 # 4c50 <__global_pointer+0x57>
     f84:	fff40413          	addi	s0,s0,-1
     f88:	9e5ff0ef          	jal	96c <print>
     f8c:	fe041ae3          	bnez	s0,f80 <combat.part.0+0x38>
     f90:	00005537          	lui	a0,0x5
     f94:	a4450513          	addi	a0,a0,-1468 # 4a44 <mytime+0x1c0>
     f98:	9d5ff0ef          	jal	96c <print>
     f9c:	01c9a503          	lw	a0,28(s3)
     fa0:	9cdff0ef          	jal	96c <print>
     fa4:	00006537          	lui	a0,0x6
     fa8:	ff050513          	addi	a0,a0,-16 # 5ff0 <__global_pointer+0x13f7>
     fac:	9c1ff0ef          	jal	96c <print>
     fb0:	00001537          	lui	a0,0x1
     fb4:	fa050513          	addi	a0,a0,-96 # fa0 <combat.part.0+0x58>
     fb8:	971ff0ef          	jal	928 <delay>
     fbc:	00ca2783          	lw	a5,12(s4)
     fc0:	0cf05a63          	blez	a5,1094 <combat.part.0+0x14c>
     fc4:	05512223          	sw	s5,68(sp)
     fc8:	03812c23          	sw	s8,56(sp)
     fcc:	03912a23          	sw	s9,52(sp)
     fd0:	00005ab7          	lui	s5,0x5
     fd4:	00005cb7          	lui	s9,0x5
     fd8:	00005c37          	lui	s8,0x5
     fdc:	04912a23          	sw	s1,84(sp)
     fe0:	05212823          	sw	s2,80(sp)
     fe4:	03a12823          	sw	s10,48(sp)
     fe8:	a58a8a93          	addi	s5,s5,-1448 # 4a58 <mytime+0x1d4>
     fec:	bccc8c93          	addi	s9,s9,-1076 # 4bcc <mytime+0x348>
     ff0:	bd4c0c13          	addi	s8,s8,-1068 # 4bd4 <mytime+0x350>
     ff4:	c50b0493          	addi	s1,s6,-944
     ff8:	0209a783          	lw	a5,32(s3)
     ffc:	08f05063          	blez	a5,107c <combat.part.0+0x134>
    1000:	02800413          	li	s0,40
    1004:	00048513          	mv	a0,s1
    1008:	fff40413          	addi	s0,s0,-1
    100c:	961ff0ef          	jal	96c <print>
    1010:	fe041ae3          	bnez	s0,1004 <combat.part.0+0xbc>
    1014:	000a8513          	mv	a0,s5
    1018:	955ff0ef          	jal	96c <print>
    101c:	00005937          	lui	s2,0x5
    1020:	87492783          	lw	a5,-1932(s2) # 4874 <option>
    1024:	00079a63          	bnez	a5,1038 <combat.part.0+0xf0>
    1028:	00a00513          	li	a0,10
    102c:	8fdff0ef          	jal	928 <delay>
    1030:	87492783          	lw	a5,-1932(s2)
    1034:	fe078ae3          	beqz	a5,1028 <combat.part.0+0xe0>
    1038:	02800413          	li	s0,40
    103c:	00048513          	mv	a0,s1
    1040:	fff40413          	addi	s0,s0,-1
    1044:	929ff0ef          	jal	96c <print>
    1048:	fe041ae3          	bnez	s0,103c <combat.part.0+0xf4>
    104c:	87492783          	lw	a5,-1932(s2)
    1050:	00100713          	li	a4,1
    1054:	06e78263          	beq	a5,a4,10b8 <combat.part.0+0x170>
    1058:	00200713          	li	a4,2
    105c:	28e78e63          	beq	a5,a4,12f8 <combat.part.0+0x3b0>
    1060:	00300713          	li	a4,3
    1064:	44e78263          	beq	a5,a4,14a8 <combat.part.0+0x560>
    1068:	00400713          	li	a4,4
    106c:	86092a23          	sw	zero,-1932(s2)
    1070:	56e78e63          	beq	a5,a4,15ec <combat.part.0+0x6a4>
    1074:	00ca2783          	lw	a5,12(s4)
    1078:	f8f040e3          	bgtz	a5,ff8 <combat.part.0+0xb0>
    107c:	05412483          	lw	s1,84(sp)
    1080:	05012903          	lw	s2,80(sp)
    1084:	04412a83          	lw	s5,68(sp)
    1088:	03812c03          	lw	s8,56(sp)
    108c:	03412c83          	lw	s9,52(sp)
    1090:	03012d03          	lw	s10,48(sp)
    1094:	05c12083          	lw	ra,92(sp)
    1098:	05812403          	lw	s0,88(sp)
    109c:	860ba823          	sw	zero,-1936(s7)
    10a0:	04c12983          	lw	s3,76(sp)
    10a4:	04812a03          	lw	s4,72(sp)
    10a8:	04012b03          	lw	s6,64(sp)
    10ac:	03c12b83          	lw	s7,60(sp)
    10b0:	06010113          	addi	sp,sp,96
    10b4:	00008067          	ret
    10b8:	00005537          	lui	a0,0x5
    10bc:	a9850513          	addi	a0,a0,-1384 # 4a98 <mytime+0x214>
    10c0:	86092a23          	sw	zero,-1932(s2)
    10c4:	8a9ff0ef          	jal	96c <print>
    10c8:	7d000513          	li	a0,2000
    10cc:	85dff0ef          	jal	928 <delay>
    10d0:	014a2703          	lw	a4,20(s4)
    10d4:	00500793          	li	a5,5
    10d8:	62f70e63          	beq	a4,a5,1714 <combat.part.0+0x7cc>
    10dc:	00005537          	lui	a0,0x5
    10e0:	ad050513          	addi	a0,a0,-1328 # 4ad0 <mytime+0x24c>
    10e4:	889ff0ef          	jal	96c <print>
    10e8:	01c9a503          	lw	a0,28(s3)
    10ec:	881ff0ef          	jal	96c <print>
    10f0:	00005537          	lui	a0,0x5
    10f4:	ac050513          	addi	a0,a0,-1344 # 4ac0 <mytime+0x23c>
    10f8:	875ff0ef          	jal	96c <print>
    10fc:	0209a783          	lw	a5,32(s3)
    1100:	014a2703          	lw	a4,20(s4)
    1104:	7d000513          	li	a0,2000
    1108:	40e787b3          	sub	a5,a5,a4
    110c:	02f9a023          	sw	a5,32(s3)
    1110:	819ff0ef          	jal	928 <delay>
    1114:	0209a683          	lw	a3,32(s3)
    1118:	68d05c63          	blez	a3,17b0 <combat.part.0+0x868>
    111c:	0249a703          	lw	a4,36(s3)
    1120:	41f75793          	srai	a5,a4,0x1f
    1124:	0037f793          	andi	a5,a5,3
    1128:	00e787b3          	add	a5,a5,a4
    112c:	4027d793          	srai	a5,a5,0x2
    1130:	5ed7d863          	bge	a5,a3,1720 <combat.part.0+0x7d8>
    1134:	01f75793          	srli	a5,a4,0x1f
    1138:	00e787b3          	add	a5,a5,a4
    113c:	4017d793          	srai	a5,a5,0x1
    1140:	60d7de63          	bge	a5,a3,175c <combat.part.0+0x814>
    1144:	00005437          	lui	s0,0x5
    1148:	8a040413          	addi	s0,s0,-1888 # 48a0 <mytime+0x1c>
    114c:	00004937          	lui	s2,0x4
    1150:	00810d13          	addi	s10,sp,8
    1154:	000c8513          	mv	a0,s9
    1158:	815ff0ef          	jal	96c <print>
    115c:	01c9a503          	lw	a0,28(s3)
    1160:	80dff0ef          	jal	96c <print>
    1164:	000c0513          	mv	a0,s8
    1168:	805ff0ef          	jal	96c <print>
    116c:	7d000513          	li	a0,2000
    1170:	fb8ff0ef          	jal	928 <delay>
    1174:	00005537          	lui	a0,0x5
    1178:	c0050513          	addi	a0,a0,-1024 # 4c00 <__global_pointer+0x7>
    117c:	ff0ff0ef          	jal	96c <print>
    1180:	01c9a503          	lw	a0,28(s3)
    1184:	fe8ff0ef          	jal	96c <print>
    1188:	00005537          	lui	a0,0x5
    118c:	c0850513          	addi	a0,a0,-1016 # 4c08 <__global_pointer+0xf>
    1190:	fdcff0ef          	jal	96c <print>
    1194:	3e800513          	li	a0,1000
    1198:	f90ff0ef          	jal	928 <delay>
    119c:	0289a583          	lw	a1,40(s3)
    11a0:	000a0513          	mv	a0,s4
    11a4:	40b005b3          	neg	a1,a1
    11a8:	830ff0ef          	jal	1d8 <setP_hp>
    11ac:	00ca2683          	lw	a3,12(s4)
    11b0:	66666737          	lui	a4,0x66666
    11b4:	66770713          	addi	a4,a4,1639 # 66666667 <_stack_end+0x6655fe8b>
    11b8:	02e69733          	mulh	a4,a3,a4
    11bc:	00442783          	lw	a5,4(s0)
    11c0:	41f6d613          	srai	a2,a3,0x1f
    11c4:	00042803          	lw	a6,0(s0)
    11c8:	00c42583          	lw	a1,12(s0)
    11cc:	40a92023          	sw	a0,1024(s2) # 4400 <alive>
    11d0:	00842503          	lw	a0,8(s0)
    11d4:	00f12623          	sw	a5,12(sp)
    11d8:	01012423          	sw	a6,8(sp)
    11dc:	00a12823          	sw	a0,16(sp)
    11e0:	40275713          	srai	a4,a4,0x2
    11e4:	40c70733          	sub	a4,a4,a2
    11e8:	00271793          	slli	a5,a4,0x2
    11ec:	00e787b3          	add	a5,a5,a4
    11f0:	00b12a23          	sw	a1,20(sp)
    11f4:	01042e03          	lw	t3,16(s0)
    11f8:	02442583          	lw	a1,36(s0)
    11fc:	01442303          	lw	t1,20(s0)
    1200:	01842883          	lw	a7,24(s0)
    1204:	01c42803          	lw	a6,28(s0)
    1208:	02042503          	lw	a0,32(s0)
    120c:	00179793          	slli	a5,a5,0x1
    1210:	40f687b3          	sub	a5,a3,a5
    1214:	00279793          	slli	a5,a5,0x2
    1218:	01c12c23          	sw	t3,24(sp)
    121c:	00612e23          	sw	t1,28(sp)
    1220:	03112023          	sw	a7,32(sp)
    1224:	03012223          	sw	a6,36(sp)
    1228:	02a12423          	sw	a0,40(sp)
    122c:	02b12623          	sw	a1,44(sp)
    1230:	00fd07b3          	add	a5,s10,a5
    1234:	0007a583          	lw	a1,0(a5)
    1238:	040007b7          	lui	a5,0x4000
    123c:	04b7a823          	sw	a1,80(a5) # 4000050 <_stack_end+0x3ef9874>
    1240:	00900793          	li	a5,9
    1244:	24d7da63          	bge	a5,a3,1498 <combat.part.0+0x550>
    1248:	ccccd5b7          	lui	a1,0xccccd
    124c:	ccd58593          	addi	a1,a1,-819 # cccccccd <_stack_end+0xccbc64f1>
    1250:	02b735b3          	mulhu	a1,a4,a1
    1254:	04000537          	lui	a0,0x4000
    1258:	06300813          	li	a6,99
    125c:	0035d593          	srli	a1,a1,0x3
    1260:	00259793          	slli	a5,a1,0x2
    1264:	00b787b3          	add	a5,a5,a1
    1268:	00179793          	slli	a5,a5,0x1
    126c:	40f707b3          	sub	a5,a4,a5
    1270:	00279793          	slli	a5,a5,0x2
    1274:	00fd07b3          	add	a5,s10,a5
    1278:	0007a783          	lw	a5,0(a5)
    127c:	06f52023          	sw	a5,96(a0) # 4000060 <_stack_end+0x3ef9884>
    1280:	40d84063          	blt	a6,a3,1680 <combat.part.0+0x738>
    1284:	040007b7          	lui	a5,0x4000
    1288:	0ff00713          	li	a4,255
    128c:	06e7a823          	sw	a4,112(a5) # 4000070 <_stack_end+0x3ef9894>
    1290:	040007b7          	lui	a5,0x4000
    1294:	0ff00693          	li	a3,255
    1298:	08d7a023          	sw	a3,128(a5) # 4000080 <_stack_end+0x3ef98a4>
    129c:	08900693          	li	a3,137
    12a0:	0ad7a023          	sw	a3,160(a5)
    12a4:	08c00713          	li	a4,140
    12a8:	00005537          	lui	a0,0x5
    12ac:	ce850513          	addi	a0,a0,-792 # 4ce8 <__global_pointer+0xef>
    12b0:	08e7a823          	sw	a4,144(a5)
    12b4:	eb8ff0ef          	jal	96c <print>
    12b8:	0289a503          	lw	a0,40(s3)
    12bc:	ee8ff0ef          	jal	9a4 <print_dec>
    12c0:	00005537          	lui	a0,0x5
    12c4:	cf450513          	addi	a0,a0,-780 # 4cf4 <__global_pointer+0xfb>
    12c8:	ea4ff0ef          	jal	96c <print>
    12cc:	7d000513          	li	a0,2000
    12d0:	e58ff0ef          	jal	928 <delay>
    12d4:	40092783          	lw	a5,1024(s2)
    12d8:	4a078e63          	beqz	a5,1794 <combat.part.0+0x84c>
    12dc:	00005537          	lui	a0,0x5
    12e0:	d3c50513          	addi	a0,a0,-708 # 4d3c <__global_pointer+0x143>
    12e4:	e88ff0ef          	jal	96c <print>
    12e8:	00001537          	lui	a0,0x1
    12ec:	fa050513          	addi	a0,a0,-96 # fa0 <combat.part.0+0x58>
    12f0:	e38ff0ef          	jal	928 <delay>
    12f4:	d81ff06f          	j	1074 <combat.part.0+0x12c>
    12f8:	00005537          	lui	a0,0x5
    12fc:	b6850513          	addi	a0,a0,-1176 # 4b68 <mytime+0x2e4>
    1300:	86092a23          	sw	zero,-1932(s2)
    1304:	e68ff0ef          	jal	96c <print>
    1308:	7d000513          	li	a0,2000
    130c:	e1cff0ef          	jal	928 <delay>
    1310:	00005537          	lui	a0,0x5
    1314:	b8050513          	addi	a0,a0,-1152 # 4b80 <mytime+0x2fc>
    1318:	e54ff0ef          	jal	96c <print>
    131c:	00001537          	lui	a0,0x1
    1320:	fa050513          	addi	a0,a0,-96 # fa0 <combat.part.0+0x58>
    1324:	e04ff0ef          	jal	928 <delay>
    1328:	00005537          	lui	a0,0x5
    132c:	bcc50513          	addi	a0,a0,-1076 # 4bcc <mytime+0x348>
    1330:	e3cff0ef          	jal	96c <print>
    1334:	01c9a503          	lw	a0,28(s3)
    1338:	00005437          	lui	s0,0x5
    133c:	8a040413          	addi	s0,s0,-1888 # 48a0 <mytime+0x1c>
    1340:	e2cff0ef          	jal	96c <print>
    1344:	00005537          	lui	a0,0x5
    1348:	bd450513          	addi	a0,a0,-1068 # 4bd4 <mytime+0x350>
    134c:	e20ff0ef          	jal	96c <print>
    1350:	7d000513          	li	a0,2000
    1354:	dd4ff0ef          	jal	928 <delay>
    1358:	00005537          	lui	a0,0x5
    135c:	c0050513          	addi	a0,a0,-1024 # 4c00 <__global_pointer+0x7>
    1360:	e0cff0ef          	jal	96c <print>
    1364:	01c9a503          	lw	a0,28(s3)
    1368:	00810d13          	addi	s10,sp,8
    136c:	00004937          	lui	s2,0x4
    1370:	dfcff0ef          	jal	96c <print>
    1374:	00005537          	lui	a0,0x5
    1378:	c0850513          	addi	a0,a0,-1016 # 4c08 <__global_pointer+0xf>
    137c:	df0ff0ef          	jal	96c <print>
    1380:	3e800513          	li	a0,1000
    1384:	da4ff0ef          	jal	928 <delay>
    1388:	0289a783          	lw	a5,40(s3)
    138c:	000a0513          	mv	a0,s4
    1390:	01f7d593          	srli	a1,a5,0x1f
    1394:	00f585b3          	add	a1,a1,a5
    1398:	4015d593          	srai	a1,a1,0x1
    139c:	40b005b3          	neg	a1,a1
    13a0:	e39fe0ef          	jal	1d8 <setP_hp>
    13a4:	00ca2683          	lw	a3,12(s4)
    13a8:	66666737          	lui	a4,0x66666
    13ac:	66770713          	addi	a4,a4,1639 # 66666667 <_stack_end+0x6655fe8b>
    13b0:	02e69733          	mulh	a4,a3,a4
    13b4:	00442583          	lw	a1,4(s0)
    13b8:	00042803          	lw	a6,0(s0)
    13bc:	00842783          	lw	a5,8(s0)
    13c0:	00b12623          	sw	a1,12(sp)
    13c4:	00c42583          	lw	a1,12(s0)
    13c8:	01012423          	sw	a6,8(sp)
    13cc:	01042803          	lw	a6,16(s0)
    13d0:	00b12a23          	sw	a1,20(sp)
    13d4:	01442583          	lw	a1,20(s0)
    13d8:	40275713          	srai	a4,a4,0x2
    13dc:	41f6d613          	srai	a2,a3,0x1f
    13e0:	00f12823          	sw	a5,16(sp)
    13e4:	01012c23          	sw	a6,24(sp)
    13e8:	00b12e23          	sw	a1,28(sp)
    13ec:	01842803          	lw	a6,24(s0)
    13f0:	01c42583          	lw	a1,28(s0)
    13f4:	40c707b3          	sub	a5,a4,a2
    13f8:	00279713          	slli	a4,a5,0x2
    13fc:	00f70733          	add	a4,a4,a5
    1400:	03012023          	sw	a6,32(sp)
    1404:	02b12223          	sw	a1,36(sp)
    1408:	02042803          	lw	a6,32(s0)
    140c:	02442583          	lw	a1,36(s0)
    1410:	00171713          	slli	a4,a4,0x1
    1414:	40e68733          	sub	a4,a3,a4
    1418:	00271713          	slli	a4,a4,0x2
    141c:	03012423          	sw	a6,40(sp)
    1420:	02b12623          	sw	a1,44(sp)
    1424:	00ed0733          	add	a4,s10,a4
    1428:	00072583          	lw	a1,0(a4)
    142c:	40a92023          	sw	a0,1024(s2) # 4400 <alive>
    1430:	04000737          	lui	a4,0x4000
    1434:	04b72823          	sw	a1,80(a4) # 4000050 <_stack_end+0x3ef9874>
    1438:	00900713          	li	a4,9
    143c:	1cd74e63          	blt	a4,a3,1618 <combat.part.0+0x6d0>
    1440:	040007b7          	lui	a5,0x4000
    1444:	0ff00713          	li	a4,255
    1448:	06e7a023          	sw	a4,96(a5) # 4000060 <_stack_end+0x3ef9884>
    144c:	040007b7          	lui	a5,0x4000
    1450:	0ff00713          	li	a4,255
    1454:	06e7a823          	sw	a4,112(a5) # 4000070 <_stack_end+0x3ef9894>
    1458:	040007b7          	lui	a5,0x4000
    145c:	0ff00693          	li	a3,255
    1460:	08d7a023          	sw	a3,128(a5) # 4000080 <_stack_end+0x3ef98a4>
    1464:	08900693          	li	a3,137
    1468:	0ad7a023          	sw	a3,160(a5)
    146c:	08c00713          	li	a4,140
    1470:	00005537          	lui	a0,0x5
    1474:	08e7a823          	sw	a4,144(a5)
    1478:	cb850513          	addi	a0,a0,-840 # 4cb8 <__global_pointer+0xbf>
    147c:	cf0ff0ef          	jal	96c <print>
    1480:	0289a783          	lw	a5,40(s3)
    1484:	01f7d513          	srli	a0,a5,0x1f
    1488:	00f50533          	add	a0,a0,a5
    148c:	40155513          	srai	a0,a0,0x1
    1490:	d14ff0ef          	jal	9a4 <print_dec>
    1494:	e2dff06f          	j	12c0 <combat.part.0+0x378>
    1498:	040007b7          	lui	a5,0x4000
    149c:	0ff00713          	li	a4,255
    14a0:	06e7a023          	sw	a4,96(a5) # 4000060 <_stack_end+0x3ef9884>
    14a4:	de1ff06f          	j	1284 <combat.part.0+0x33c>
    14a8:	000055b7          	lui	a1,0x5
    14ac:	c1458593          	addi	a1,a1,-1004 # 4c14 <__global_pointer+0x1b>
    14b0:	000a0513          	mv	a0,s4
    14b4:	86092a23          	sw	zero,-1932(s2)
    14b8:	e49fe0ef          	jal	300 <peek_inventory>
    14bc:	00050413          	mv	s0,a0
    14c0:	2a050e63          	beqz	a0,177c <combat.part.0+0x834>
    14c4:	00005537          	lui	a0,0x5
    14c8:	c2450513          	addi	a0,a0,-988 # 4c24 <__global_pointer+0x2b>
    14cc:	ca0ff0ef          	jal	96c <print>
    14d0:	3e800513          	li	a0,1000
    14d4:	c54ff0ef          	jal	928 <delay>
    14d8:	00005537          	lui	a0,0x5
    14dc:	c5450513          	addi	a0,a0,-940 # 4c54 <__global_pointer+0x5b>
    14e0:	c8cff0ef          	jal	96c <print>
    14e4:	00040593          	mv	a1,s0
    14e8:	000a0513          	mv	a0,s4
    14ec:	fd9fe0ef          	jal	4c4 <remove_from_inventory>
    14f0:	03200593          	li	a1,50
    14f4:	000a0513          	mv	a0,s4
    14f8:	ce1fe0ef          	jal	1d8 <setP_hp>
    14fc:	00ca2683          	lw	a3,12(s4)
    1500:	66666737          	lui	a4,0x66666
    1504:	66770713          	addi	a4,a4,1639 # 66666667 <_stack_end+0x6655fe8b>
    1508:	02e69733          	mulh	a4,a3,a4
    150c:	00005437          	lui	s0,0x5
    1510:	8a040413          	addi	s0,s0,-1888 # 48a0 <mytime+0x1c>
    1514:	00042803          	lw	a6,0(s0)
    1518:	00442583          	lw	a1,4(s0)
    151c:	00842783          	lw	a5,8(s0)
    1520:	01012423          	sw	a6,8(sp)
    1524:	00b12623          	sw	a1,12(sp)
    1528:	00c42803          	lw	a6,12(s0)
    152c:	01042583          	lw	a1,16(s0)
    1530:	40275713          	srai	a4,a4,0x2
    1534:	41f6d613          	srai	a2,a3,0x1f
    1538:	00f12823          	sw	a5,16(sp)
    153c:	01012a23          	sw	a6,20(sp)
    1540:	00b12c23          	sw	a1,24(sp)
    1544:	01842803          	lw	a6,24(s0)
    1548:	01c42583          	lw	a1,28(s0)
    154c:	40c707b3          	sub	a5,a4,a2
    1550:	00279713          	slli	a4,a5,0x2
    1554:	00f70733          	add	a4,a4,a5
    1558:	03012023          	sw	a6,32(sp)
    155c:	02b12223          	sw	a1,36(sp)
    1560:	01442883          	lw	a7,20(s0)
    1564:	02442583          	lw	a1,36(s0)
    1568:	02042803          	lw	a6,32(s0)
    156c:	00171713          	slli	a4,a4,0x1
    1570:	40e68733          	sub	a4,a3,a4
    1574:	00271713          	slli	a4,a4,0x2
    1578:	00810d13          	addi	s10,sp,8
    157c:	01112e23          	sw	a7,28(sp)
    1580:	03012423          	sw	a6,40(sp)
    1584:	02b12623          	sw	a1,44(sp)
    1588:	00ed0733          	add	a4,s10,a4
    158c:	00072583          	lw	a1,0(a4)
    1590:	00004937          	lui	s2,0x4
    1594:	04000737          	lui	a4,0x4000
    1598:	40a92023          	sw	a0,1024(s2) # 4400 <alive>
    159c:	04b72823          	sw	a1,80(a4) # 4000050 <_stack_end+0x3ef9874>
    15a0:	00900713          	li	a4,9
    15a4:	10d74463          	blt	a4,a3,16ac <combat.part.0+0x764>
    15a8:	040007b7          	lui	a5,0x4000
    15ac:	0ff00713          	li	a4,255
    15b0:	06e7a023          	sw	a4,96(a5) # 4000060 <_stack_end+0x3ef9884>
    15b4:	040007b7          	lui	a5,0x4000
    15b8:	0ff00713          	li	a4,255
    15bc:	06e7a823          	sw	a4,112(a5) # 4000070 <_stack_end+0x3ef9894>
    15c0:	040007b7          	lui	a5,0x4000
    15c4:	0ff00693          	li	a3,255
    15c8:	08d7a023          	sw	a3,128(a5) # 4000080 <_stack_end+0x3ef98a4>
    15cc:	08900693          	li	a3,137
    15d0:	0ad7a023          	sw	a3,160(a5)
    15d4:	08c00713          	li	a4,140
    15d8:	00001537          	lui	a0,0x1
    15dc:	08e7a823          	sw	a4,144(a5)
    15e0:	fa050513          	addi	a0,a0,-96 # fa0 <combat.part.0+0x58>
    15e4:	b44ff0ef          	jal	928 <delay>
    15e8:	b6dff06f          	j	1154 <combat.part.0+0x20c>
    15ec:	00005537          	lui	a0,0x5
    15f0:	c8c50513          	addi	a0,a0,-884 # 4c8c <__global_pointer+0x93>
    15f4:	b78ff0ef          	jal	96c <print>
    15f8:	00001537          	lui	a0,0x1
    15fc:	fa050513          	addi	a0,a0,-96 # fa0 <combat.part.0+0x58>
    1600:	b28ff0ef          	jal	928 <delay>
    1604:	000057b7          	lui	a5,0x5
    1608:	8687a703          	lw	a4,-1944(a5) # 4868 <prev_room>
    160c:	000057b7          	lui	a5,0x5
    1610:	86e7a623          	sw	a4,-1940(a5) # 486c <next_room>
    1614:	a69ff06f          	j	107c <combat.part.0+0x134>
    1618:	ccccd737          	lui	a4,0xccccd
    161c:	ccd70713          	addi	a4,a4,-819 # cccccccd <_stack_end+0xccbc64f1>
    1620:	02e7b733          	mulhu	a4,a5,a4
    1624:	04000537          	lui	a0,0x4000
    1628:	06300813          	li	a6,99
    162c:	00375713          	srli	a4,a4,0x3
    1630:	00271593          	slli	a1,a4,0x2
    1634:	00e58733          	add	a4,a1,a4
    1638:	00171713          	slli	a4,a4,0x1
    163c:	40e78733          	sub	a4,a5,a4
    1640:	00271713          	slli	a4,a4,0x2
    1644:	00ed0733          	add	a4,s10,a4
    1648:	00072783          	lw	a5,0(a4)
    164c:	06f52023          	sw	a5,96(a0) # 4000060 <_stack_end+0x3ef9884>
    1650:	ded85ee3          	bge	a6,a3,144c <combat.part.0+0x504>
    1654:	51eb87b7          	lui	a5,0x51eb8
    1658:	51f78793          	addi	a5,a5,1311 # 51eb851f <_stack_end+0x51db1d43>
    165c:	02f697b3          	mulh	a5,a3,a5
    1660:	04000737          	lui	a4,0x4000
    1664:	4057d793          	srai	a5,a5,0x5
    1668:	40c787b3          	sub	a5,a5,a2
    166c:	00279793          	slli	a5,a5,0x2
    1670:	00fd07b3          	add	a5,s10,a5
    1674:	0007a783          	lw	a5,0(a5)
    1678:	06f72823          	sw	a5,112(a4) # 4000070 <_stack_end+0x3ef9894>
    167c:	dddff06f          	j	1458 <combat.part.0+0x510>
    1680:	51eb87b7          	lui	a5,0x51eb8
    1684:	51f78793          	addi	a5,a5,1311 # 51eb851f <_stack_end+0x51db1d43>
    1688:	02f697b3          	mulh	a5,a3,a5
    168c:	04000737          	lui	a4,0x4000
    1690:	4057d793          	srai	a5,a5,0x5
    1694:	40c787b3          	sub	a5,a5,a2
    1698:	00279793          	slli	a5,a5,0x2
    169c:	00fd07b3          	add	a5,s10,a5
    16a0:	0007a783          	lw	a5,0(a5)
    16a4:	06f72823          	sw	a5,112(a4) # 4000070 <_stack_end+0x3ef9894>
    16a8:	be9ff06f          	j	1290 <combat.part.0+0x348>
    16ac:	ccccd737          	lui	a4,0xccccd
    16b0:	ccd70713          	addi	a4,a4,-819 # cccccccd <_stack_end+0xccbc64f1>
    16b4:	02e7b733          	mulhu	a4,a5,a4
    16b8:	04000537          	lui	a0,0x4000
    16bc:	06300813          	li	a6,99
    16c0:	00375713          	srli	a4,a4,0x3
    16c4:	00271593          	slli	a1,a4,0x2
    16c8:	00e58733          	add	a4,a1,a4
    16cc:	00171713          	slli	a4,a4,0x1
    16d0:	40e78733          	sub	a4,a5,a4
    16d4:	00271713          	slli	a4,a4,0x2
    16d8:	00ed0733          	add	a4,s10,a4
    16dc:	00072783          	lw	a5,0(a4)
    16e0:	06f52023          	sw	a5,96(a0) # 4000060 <_stack_end+0x3ef9884>
    16e4:	ecd858e3          	bge	a6,a3,15b4 <combat.part.0+0x66c>
    16e8:	51eb87b7          	lui	a5,0x51eb8
    16ec:	51f78793          	addi	a5,a5,1311 # 51eb851f <_stack_end+0x51db1d43>
    16f0:	02f697b3          	mulh	a5,a3,a5
    16f4:	04000737          	lui	a4,0x4000
    16f8:	4057d793          	srai	a5,a5,0x5
    16fc:	40c787b3          	sub	a5,a5,a2
    1700:	00279793          	slli	a5,a5,0x2
    1704:	00fd07b3          	add	a5,s10,a5
    1708:	0007a783          	lw	a5,0(a5)
    170c:	06f72823          	sw	a5,112(a4) # 4000070 <_stack_end+0x3ef9894>
    1710:	eb1ff06f          	j	15c0 <combat.part.0+0x678>
    1714:	00005537          	lui	a0,0x5
    1718:	ab050513          	addi	a0,a0,-1360 # 4ab0 <mytime+0x22c>
    171c:	9c9ff06f          	j	10e4 <combat.part.0+0x19c>
    1720:	00005537          	lui	a0,0x5
    1724:	b2050513          	addi	a0,a0,-1248 # 4b20 <mytime+0x29c>
    1728:	a44ff0ef          	jal	96c <print>
    172c:	01c9a503          	lw	a0,28(s3)
    1730:	a3cff0ef          	jal	96c <print>
    1734:	00005537          	lui	a0,0x5
    1738:	b3450513          	addi	a0,a0,-1228 # 4b34 <mytime+0x2b0>
    173c:	a30ff0ef          	jal	96c <print>
    1740:	7d000513          	li	a0,2000
    1744:	00005437          	lui	s0,0x5
    1748:	9e0ff0ef          	jal	928 <delay>
    174c:	00810d13          	addi	s10,sp,8
    1750:	8a040413          	addi	s0,s0,-1888 # 48a0 <mytime+0x1c>
    1754:	00004937          	lui	s2,0x4
    1758:	9fdff06f          	j	1154 <combat.part.0+0x20c>
    175c:	00005537          	lui	a0,0x5
    1760:	b2050513          	addi	a0,a0,-1248 # 4b20 <mytime+0x29c>
    1764:	a08ff0ef          	jal	96c <print>
    1768:	01c9a503          	lw	a0,28(s3)
    176c:	a00ff0ef          	jal	96c <print>
    1770:	00005537          	lui	a0,0x5
    1774:	b5850513          	addi	a0,a0,-1192 # 4b58 <mytime+0x2d4>
    1778:	fc5ff06f          	j	173c <combat.part.0+0x7f4>
    177c:	00005537          	lui	a0,0x5
    1780:	c6850513          	addi	a0,a0,-920 # 4c68 <__global_pointer+0x6f>
    1784:	9e8ff0ef          	jal	96c <print>
    1788:	7d000513          	li	a0,2000
    178c:	99cff0ef          	jal	928 <delay>
    1790:	8e5ff06f          	j	1074 <combat.part.0+0x12c>
    1794:	00005537          	lui	a0,0x5
    1798:	d0050513          	addi	a0,a0,-768 # 4d00 <__global_pointer+0x107>
    179c:	9d0ff0ef          	jal	96c <print>
    17a0:	00001537          	lui	a0,0x1
    17a4:	fa050513          	addi	a0,a0,-96 # fa0 <combat.part.0+0x58>
    17a8:	980ff0ef          	jal	928 <delay>
    17ac:	8d1ff06f          	j	107c <combat.part.0+0x134>
    17b0:	00005537          	lui	a0,0x5
    17b4:	af050513          	addi	a0,a0,-1296 # 4af0 <mytime+0x26c>
    17b8:	9b4ff0ef          	jal	96c <print>
    17bc:	01c9a503          	lw	a0,28(s3)
    17c0:	9acff0ef          	jal	96c <print>
    17c4:	00005537          	lui	a0,0x5
    17c8:	b0450513          	addi	a0,a0,-1276 # 4b04 <mytime+0x280>
    17cc:	9a0ff0ef          	jal	96c <print>
    17d0:	0309a503          	lw	a0,48(s3)
    17d4:	998ff0ef          	jal	96c <print>
    17d8:	c50b0513          	addi	a0,s6,-944
    17dc:	990ff0ef          	jal	96c <print>
    17e0:	0309a583          	lw	a1,48(s3)
    17e4:	000a0513          	mv	a0,s4
    17e8:	b81fe0ef          	jal	368 <add_to_inventory>
    17ec:	00001537          	lui	a0,0x1
    17f0:	77050513          	addi	a0,a0,1904 # 1770 <combat.part.0+0x828>
    17f4:	934ff0ef          	jal	928 <delay>
    17f8:	885ff06f          	j	107c <combat.part.0+0x134>

000017fc <clearsc>:
    17fc:	ff010113          	addi	sp,sp,-16
    1800:	00912223          	sw	s1,4(sp)
    1804:	000054b7          	lui	s1,0x5
    1808:	00812423          	sw	s0,8(sp)
    180c:	00112623          	sw	ra,12(sp)
    1810:	c5048493          	addi	s1,s1,-944 # 4c50 <__global_pointer+0x57>
    1814:	02800413          	li	s0,40
    1818:	00048513          	mv	a0,s1
    181c:	fff40413          	addi	s0,s0,-1
    1820:	94cff0ef          	jal	96c <print>
    1824:	fe041ae3          	bnez	s0,1818 <clearsc+0x1c>
    1828:	00c12083          	lw	ra,12(sp)
    182c:	00812403          	lw	s0,8(sp)
    1830:	00412483          	lw	s1,4(sp)
    1834:	01010113          	addi	sp,sp,16
    1838:	00008067          	ret

0000183c <set_leds>:
    183c:	040007b7          	lui	a5,0x4000
    1840:	00a7a023          	sw	a0,0(a5) # 4000000 <_stack_end+0x3ef9824>
    1844:	00008067          	ret

00001848 <set_displays>:
    1848:	004007b7          	lui	a5,0x400
    184c:	00578793          	addi	a5,a5,5 # 400005 <_stack_end+0x2f9829>
    1850:	00f50533          	add	a0,a0,a5
    1854:	00451513          	slli	a0,a0,0x4
    1858:	00b52023          	sw	a1,0(a0)
    185c:	00008067          	ret

00001860 <get_sw>:
    1860:	040007b7          	lui	a5,0x4000
    1864:	0107a503          	lw	a0,16(a5) # 4000010 <_stack_end+0x3ef9834>
    1868:	3ff57513          	andi	a0,a0,1023
    186c:	00008067          	ret

00001870 <get_btn>:
    1870:	040007b7          	lui	a5,0x4000
    1874:	0d07a503          	lw	a0,208(a5) # 40000d0 <_stack_end+0x3ef98f4>
    1878:	0c07a823          	sw	zero,208(a5)
    187c:	00157513          	andi	a0,a0,1
    1880:	00008067          	ret

00001884 <hp2display>:
    1884:	666667b7          	lui	a5,0x66666
    1888:	66778793          	addi	a5,a5,1639 # 66666667 <_stack_end+0x6655fe8b>
    188c:	02f517b3          	mulh	a5,a0,a5
    1890:	00005737          	lui	a4,0x5
    1894:	8a070713          	addi	a4,a4,-1888 # 48a0 <mytime+0x1c>
    1898:	41f55613          	srai	a2,a0,0x1f
    189c:	00072803          	lw	a6,0(a4)
    18a0:	fd010113          	addi	sp,sp,-48
    18a4:	00472283          	lw	t0,4(a4)
    18a8:	01012423          	sw	a6,8(sp)
    18ac:	00872f83          	lw	t6,8(a4)
    18b0:	00c72f03          	lw	t5,12(a4)
    18b4:	4027d793          	srai	a5,a5,0x2
    18b8:	40c787b3          	sub	a5,a5,a2
    18bc:	00279693          	slli	a3,a5,0x2
    18c0:	00f686b3          	add	a3,a3,a5
    18c4:	01072e83          	lw	t4,16(a4)
    18c8:	01472e03          	lw	t3,20(a4)
    18cc:	01872303          	lw	t1,24(a4)
    18d0:	01c72883          	lw	a7,28(a4)
    18d4:	02072803          	lw	a6,32(a4)
    18d8:	00169693          	slli	a3,a3,0x1
    18dc:	02472703          	lw	a4,36(a4)
    18e0:	40d506b3          	sub	a3,a0,a3
    18e4:	00269693          	slli	a3,a3,0x2
    18e8:	00810593          	addi	a1,sp,8
    18ec:	02e12623          	sw	a4,44(sp)
    18f0:	00512623          	sw	t0,12(sp)
    18f4:	01f12823          	sw	t6,16(sp)
    18f8:	01e12a23          	sw	t5,20(sp)
    18fc:	01d12c23          	sw	t4,24(sp)
    1900:	01c12e23          	sw	t3,28(sp)
    1904:	02612023          	sw	t1,32(sp)
    1908:	03112223          	sw	a7,36(sp)
    190c:	03012423          	sw	a6,40(sp)
    1910:	00b686b3          	add	a3,a3,a1
    1914:	0006a683          	lw	a3,0(a3)
    1918:	04000737          	lui	a4,0x4000
    191c:	04d72823          	sw	a3,80(a4) # 4000050 <_stack_end+0x3ef9874>
    1920:	00900713          	li	a4,9
    1924:	06a75863          	bge	a4,a0,1994 <hp2display+0x110>
    1928:	ccccd737          	lui	a4,0xccccd
    192c:	ccd70713          	addi	a4,a4,-819 # cccccccd <_stack_end+0xccbc64f1>
    1930:	02e7b733          	mulhu	a4,a5,a4
    1934:	04000837          	lui	a6,0x4000
    1938:	06300893          	li	a7,99
    193c:	00375713          	srli	a4,a4,0x3
    1940:	00271693          	slli	a3,a4,0x2
    1944:	00e68733          	add	a4,a3,a4
    1948:	00171713          	slli	a4,a4,0x1
    194c:	40e78733          	sub	a4,a5,a4
    1950:	00271713          	slli	a4,a4,0x2
    1954:	00b70733          	add	a4,a4,a1
    1958:	00072783          	lw	a5,0(a4)
    195c:	06f82023          	sw	a5,96(a6) # 4000060 <_stack_end+0x3ef9884>
    1960:	04a8c263          	blt	a7,a0,19a4 <hp2display+0x120>
    1964:	040007b7          	lui	a5,0x4000
    1968:	0ff00713          	li	a4,255
    196c:	06e7a823          	sw	a4,112(a5) # 4000070 <_stack_end+0x3ef9894>
    1970:	040007b7          	lui	a5,0x4000
    1974:	0ff00693          	li	a3,255
    1978:	08d7a023          	sw	a3,128(a5) # 4000080 <_stack_end+0x3ef98a4>
    197c:	08900693          	li	a3,137
    1980:	0ad7a023          	sw	a3,160(a5)
    1984:	08c00713          	li	a4,140
    1988:	08e7a823          	sw	a4,144(a5)
    198c:	03010113          	addi	sp,sp,48
    1990:	00008067          	ret
    1994:	040007b7          	lui	a5,0x4000
    1998:	0ff00713          	li	a4,255
    199c:	06e7a023          	sw	a4,96(a5) # 4000060 <_stack_end+0x3ef9884>
    19a0:	fc5ff06f          	j	1964 <hp2display+0xe0>
    19a4:	51eb87b7          	lui	a5,0x51eb8
    19a8:	51f78793          	addi	a5,a5,1311 # 51eb851f <_stack_end+0x51db1d43>
    19ac:	02f517b3          	mulh	a5,a0,a5
    19b0:	04000737          	lui	a4,0x4000
    19b4:	4057d793          	srai	a5,a5,0x5
    19b8:	40c787b3          	sub	a5,a5,a2
    19bc:	00279793          	slli	a5,a5,0x2
    19c0:	00b787b3          	add	a5,a5,a1
    19c4:	0007a783          	lw	a5,0(a5)
    19c8:	06f72823          	sw	a5,112(a4) # 4000070 <_stack_end+0x3ef9894>
    19cc:	fa5ff06f          	j	1970 <hp2display+0xec>

000019d0 <set_hp>:
    19d0:	fc010113          	addi	sp,sp,-64
    19d4:	02812c23          	sw	s0,56(sp)
    19d8:	02112e23          	sw	ra,60(sp)
    19dc:	00050413          	mv	s0,a0
    19e0:	ff8fe0ef          	jal	1d8 <setP_hp>
    19e4:	00c42603          	lw	a2,12(s0)
    19e8:	666667b7          	lui	a5,0x66666
    19ec:	66778793          	addi	a5,a5,1639 # 66666667 <_stack_end+0x6655fe8b>
    19f0:	02f617b3          	mulh	a5,a2,a5
    19f4:	00005737          	lui	a4,0x5
    19f8:	8a070713          	addi	a4,a4,-1888 # 48a0 <mytime+0x1c>
    19fc:	41f65593          	srai	a1,a2,0x1f
    1a00:	00072883          	lw	a7,0(a4)
    1a04:	00472803          	lw	a6,4(a4)
    1a08:	00872283          	lw	t0,8(a4)
    1a0c:	01112423          	sw	a7,8(sp)
    1a10:	00c72f83          	lw	t6,12(a4)
    1a14:	02072883          	lw	a7,32(a4)
    1a18:	4027d793          	srai	a5,a5,0x2
    1a1c:	40b787b3          	sub	a5,a5,a1
    1a20:	00279693          	slli	a3,a5,0x2
    1a24:	00f686b3          	add	a3,a3,a5
    1a28:	01072f03          	lw	t5,16(a4)
    1a2c:	01472e83          	lw	t4,20(a4)
    1a30:	01872e03          	lw	t3,24(a4)
    1a34:	01c72303          	lw	t1,28(a4)
    1a38:	00169693          	slli	a3,a3,0x1
    1a3c:	02472703          	lw	a4,36(a4)
    1a40:	40d606b3          	sub	a3,a2,a3
    1a44:	01012623          	sw	a6,12(sp)
    1a48:	00269693          	slli	a3,a3,0x2
    1a4c:	00810813          	addi	a6,sp,8
    1a50:	03112423          	sw	a7,40(sp)
    1a54:	02e12623          	sw	a4,44(sp)
    1a58:	00512823          	sw	t0,16(sp)
    1a5c:	01f12a23          	sw	t6,20(sp)
    1a60:	01e12c23          	sw	t5,24(sp)
    1a64:	01d12e23          	sw	t4,28(sp)
    1a68:	03c12023          	sw	t3,32(sp)
    1a6c:	02612223          	sw	t1,36(sp)
    1a70:	01068733          	add	a4,a3,a6
    1a74:	00072683          	lw	a3,0(a4)
    1a78:	000048b7          	lui	a7,0x4
    1a7c:	04000737          	lui	a4,0x4000
    1a80:	40a8a023          	sw	a0,1024(a7) # 4400 <alive>
    1a84:	04d72823          	sw	a3,80(a4) # 4000050 <_stack_end+0x3ef9874>
    1a88:	00900713          	li	a4,9
    1a8c:	06c75c63          	bge	a4,a2,1b04 <set_hp+0x134>
    1a90:	ccccd737          	lui	a4,0xccccd
    1a94:	ccd70713          	addi	a4,a4,-819 # cccccccd <_stack_end+0xccbc64f1>
    1a98:	02e7b733          	mulhu	a4,a5,a4
    1a9c:	04000537          	lui	a0,0x4000
    1aa0:	06300893          	li	a7,99
    1aa4:	00375713          	srli	a4,a4,0x3
    1aa8:	00271693          	slli	a3,a4,0x2
    1aac:	00e68733          	add	a4,a3,a4
    1ab0:	00171713          	slli	a4,a4,0x1
    1ab4:	40e78733          	sub	a4,a5,a4
    1ab8:	00271713          	slli	a4,a4,0x2
    1abc:	01070733          	add	a4,a4,a6
    1ac0:	00072783          	lw	a5,0(a4)
    1ac4:	06f52023          	sw	a5,96(a0) # 4000060 <_stack_end+0x3ef9884>
    1ac8:	04c8c663          	blt	a7,a2,1b14 <set_hp+0x144>
    1acc:	040007b7          	lui	a5,0x4000
    1ad0:	0ff00713          	li	a4,255
    1ad4:	06e7a823          	sw	a4,112(a5) # 4000070 <_stack_end+0x3ef9894>
    1ad8:	040007b7          	lui	a5,0x4000
    1adc:	0ff00693          	li	a3,255
    1ae0:	08d7a023          	sw	a3,128(a5) # 4000080 <_stack_end+0x3ef98a4>
    1ae4:	03c12083          	lw	ra,60(sp)
    1ae8:	03812403          	lw	s0,56(sp)
    1aec:	08900693          	li	a3,137
    1af0:	0ad7a023          	sw	a3,160(a5)
    1af4:	08c00713          	li	a4,140
    1af8:	08e7a823          	sw	a4,144(a5)
    1afc:	04010113          	addi	sp,sp,64
    1b00:	00008067          	ret
    1b04:	040007b7          	lui	a5,0x4000
    1b08:	0ff00713          	li	a4,255
    1b0c:	06e7a023          	sw	a4,96(a5) # 4000060 <_stack_end+0x3ef9884>
    1b10:	fbdff06f          	j	1acc <set_hp+0xfc>
    1b14:	51eb87b7          	lui	a5,0x51eb8
    1b18:	51f78793          	addi	a5,a5,1311 # 51eb851f <_stack_end+0x51db1d43>
    1b1c:	02f617b3          	mulh	a5,a2,a5
    1b20:	04000737          	lui	a4,0x4000
    1b24:	4057d793          	srai	a5,a5,0x5
    1b28:	40b787b3          	sub	a5,a5,a1
    1b2c:	00279793          	slli	a5,a5,0x2
    1b30:	010787b3          	add	a5,a5,a6
    1b34:	0007a783          	lw	a5,0(a5)
    1b38:	06f72823          	sw	a5,112(a4) # 4000070 <_stack_end+0x3ef9894>
    1b3c:	f9dff06f          	j	1ad8 <set_hp+0x108>

00001b40 <set_hourtime>:
    1b40:	040007b7          	lui	a5,0x4000
    1b44:	0107a603          	lw	a2,16(a5) # 4000010 <_stack_end+0x3ef9834>
    1b48:	0107a703          	lw	a4,16(a5)
    1b4c:	01078793          	addi	a5,a5,16
    1b50:	0007a783          	lw	a5,0(a5)
    1b54:	0807f793          	andi	a5,a5,128
    1b58:	08079263          	bnez	a5,1bdc <set_hourtime+0x9c>
    1b5c:	040007b7          	lui	a5,0x4000
    1b60:	0d07a683          	lw	a3,208(a5) # 40000d0 <_stack_end+0x3ef98f4>
    1b64:	0c07a823          	sw	zero,208(a5)
    1b68:	0016f793          	andi	a5,a3,1
    1b6c:	06078863          	beqz	a5,1bdc <set_hourtime+0x9c>
    1b70:	40875713          	srai	a4,a4,0x8
    1b74:	000055b7          	lui	a1,0x5
    1b78:	00377713          	andi	a4,a4,3
    1b7c:	00100513          	li	a0,1
    1b80:	8805a783          	lw	a5,-1920(a1) # 4880 <hourtime>
    1b84:	03f67693          	andi	a3,a2,63
    1b88:	0aa70063          	beq	a4,a0,1c28 <set_hourtime+0xe8>
    1b8c:	00200613          	li	a2,2
    1b90:	04c71863          	bne	a4,a2,1be0 <set_hourtime+0xa0>
    1b94:	ccccd737          	lui	a4,0xccccd
    1b98:	ccd70713          	addi	a4,a4,-819 # cccccccd <_stack_end+0xccbc64f1>
    1b9c:	02e6b733          	mulhu	a4,a3,a4
    1ba0:	00ff0637          	lui	a2,0xff0
    1ba4:	0ff60613          	addi	a2,a2,255 # ff00ff <_stack_end+0xee9923>
    1ba8:	00c7f7b3          	and	a5,a5,a2
    1bac:	00375713          	srli	a4,a4,0x3
    1bb0:	00271613          	slli	a2,a4,0x2
    1bb4:	00e60633          	add	a2,a2,a4
    1bb8:	00161613          	slli	a2,a2,0x1
    1bbc:	40c686b3          	sub	a3,a3,a2
    1bc0:	00869693          	slli	a3,a3,0x8
    1bc4:	00c71713          	slli	a4,a4,0xc
    1bc8:	00d70733          	add	a4,a4,a3
    1bcc:	00f707b3          	add	a5,a4,a5
    1bd0:	88f5a023          	sw	a5,-1920(a1)
    1bd4:	00005737          	lui	a4,0x5
    1bd8:	88f72223          	sw	a5,-1916(a4) # 4884 <mytime>
    1bdc:	00008067          	ret
    1be0:	00300613          	li	a2,3
    1be4:	fec718e3          	bne	a4,a2,1bd4 <set_hourtime+0x94>
    1be8:	ccccd737          	lui	a4,0xccccd
    1bec:	ccd70713          	addi	a4,a4,-819 # cccccccd <_stack_end+0xccbc64f1>
    1bf0:	02e6b733          	mulhu	a4,a3,a4
    1bf4:	01079793          	slli	a5,a5,0x10
    1bf8:	0107d793          	srli	a5,a5,0x10
    1bfc:	00375713          	srli	a4,a4,0x3
    1c00:	00271613          	slli	a2,a4,0x2
    1c04:	00e60633          	add	a2,a2,a4
    1c08:	00161613          	slli	a2,a2,0x1
    1c0c:	40c686b3          	sub	a3,a3,a2
    1c10:	01069693          	slli	a3,a3,0x10
    1c14:	01471713          	slli	a4,a4,0x14
    1c18:	00d70733          	add	a4,a4,a3
    1c1c:	00f707b3          	add	a5,a4,a5
    1c20:	88f5a023          	sw	a5,-1920(a1)
    1c24:	fb1ff06f          	j	1bd4 <set_hourtime+0x94>
    1c28:	ccccd737          	lui	a4,0xccccd
    1c2c:	ccd70713          	addi	a4,a4,-819 # cccccccd <_stack_end+0xccbc64f1>
    1c30:	02e6b733          	mulhu	a4,a3,a4
    1c34:	01000637          	lui	a2,0x1000
    1c38:	f0060613          	addi	a2,a2,-256 # ffff00 <_stack_end+0xef9724>
    1c3c:	00c7f7b3          	and	a5,a5,a2
    1c40:	00375713          	srli	a4,a4,0x3
    1c44:	00271613          	slli	a2,a4,0x2
    1c48:	00e60633          	add	a2,a2,a4
    1c4c:	00161613          	slli	a2,a2,0x1
    1c50:	40c686b3          	sub	a3,a3,a2
    1c54:	00471713          	slli	a4,a4,0x4
    1c58:	00d70733          	add	a4,a4,a3
    1c5c:	00f707b3          	add	a5,a4,a5
    1c60:	88f5a023          	sw	a5,-1920(a1)
    1c64:	f71ff06f          	j	1bd4 <set_hourtime+0x94>

00001c68 <time2display>:
    1c68:	000057b7          	lui	a5,0x5
    1c6c:	8a078793          	addi	a5,a5,-1888 # 48a0 <mytime+0x1c>
    1c70:	0087a703          	lw	a4,8(a5)
    1c74:	fb010113          	addi	sp,sp,-80
    1c78:	0007a603          	lw	a2,0(a5)
    1c7c:	00e12423          	sw	a4,8(sp)
    1c80:	0147a703          	lw	a4,20(a5)
    1c84:	0047a683          	lw	a3,4(a5)
    1c88:	00c12023          	sw	a2,0(sp)
    1c8c:	00e12a23          	sw	a4,20(sp)
    1c90:	00c7a603          	lw	a2,12(a5)
    1c94:	0207a703          	lw	a4,32(a5)
    1c98:	00d12223          	sw	a3,4(sp)
    1c9c:	0107a683          	lw	a3,16(a5)
    1ca0:	00c12623          	sw	a2,12(sp)
    1ca4:	02e12023          	sw	a4,32(sp)
    1ca8:	0187a603          	lw	a2,24(a5)
    1cac:	02c7a703          	lw	a4,44(a5)
    1cb0:	00d12823          	sw	a3,16(sp)
    1cb4:	01c7a683          	lw	a3,28(a5)
    1cb8:	00c12c23          	sw	a2,24(sp)
    1cbc:	02e12623          	sw	a4,44(sp)
    1cc0:	0247a603          	lw	a2,36(a5)
    1cc4:	0307a703          	lw	a4,48(a5)
    1cc8:	00d12e23          	sw	a3,28(sp)
    1ccc:	0287a683          	lw	a3,40(a5)
    1cd0:	02c12223          	sw	a2,36(sp)
    1cd4:	02e12823          	sw	a4,48(sp)
    1cd8:	0347a603          	lw	a2,52(a5)
    1cdc:	00f57713          	andi	a4,a0,15
    1ce0:	00271713          	slli	a4,a4,0x2
    1ce4:	0387ae83          	lw	t4,56(a5)
    1ce8:	03c7ae03          	lw	t3,60(a5)
    1cec:	0407a303          	lw	t1,64(a5)
    1cf0:	0447a883          	lw	a7,68(a5)
    1cf4:	00e10733          	add	a4,sp,a4
    1cf8:	02d12423          	sw	a3,40(sp)
    1cfc:	0487a803          	lw	a6,72(a5)
    1d00:	04c7a583          	lw	a1,76(a5)
    1d04:	02c12a23          	sw	a2,52(sp)
    1d08:	00072603          	lw	a2,0(a4)
    1d0c:	00255793          	srli	a5,a0,0x2
    1d10:	04b12623          	sw	a1,76(sp)
    1d14:	03d12c23          	sw	t4,56(sp)
    1d18:	03c12e23          	sw	t3,60(sp)
    1d1c:	04612023          	sw	t1,64(sp)
    1d20:	05112223          	sw	a7,68(sp)
    1d24:	05012423          	sw	a6,72(sp)
    1d28:	04000737          	lui	a4,0x4000
    1d2c:	03c7f793          	andi	a5,a5,60
    1d30:	04c72823          	sw	a2,80(a4) # 4000050 <_stack_end+0x3ef9874>
    1d34:	00f107b3          	add	a5,sp,a5
    1d38:	0007a583          	lw	a1,0(a5)
    1d3c:	00655793          	srli	a5,a0,0x6
    1d40:	04000737          	lui	a4,0x4000
    1d44:	03c7f793          	andi	a5,a5,60
    1d48:	06b72023          	sw	a1,96(a4) # 4000060 <_stack_end+0x3ef9884>
    1d4c:	002787b3          	add	a5,a5,sp
    1d50:	0287a583          	lw	a1,40(a5)
    1d54:	00a55793          	srli	a5,a0,0xa
    1d58:	04000737          	lui	a4,0x4000
    1d5c:	03c7f793          	andi	a5,a5,60
    1d60:	06b72823          	sw	a1,112(a4) # 4000070 <_stack_end+0x3ef9894>
    1d64:	00f107b3          	add	a5,sp,a5
    1d68:	0007a583          	lw	a1,0(a5)
    1d6c:	00e55793          	srli	a5,a0,0xe
    1d70:	04000737          	lui	a4,0x4000
    1d74:	03c7f793          	andi	a5,a5,60
    1d78:	08b72023          	sw	a1,128(a4) # 4000080 <_stack_end+0x3ef98a4>
    1d7c:	002787b3          	add	a5,a5,sp
    1d80:	0287a703          	lw	a4,40(a5)
    1d84:	01255513          	srli	a0,a0,0x12
    1d88:	040007b7          	lui	a5,0x4000
    1d8c:	03c57513          	andi	a0,a0,60
    1d90:	08e7a823          	sw	a4,144(a5) # 4000090 <_stack_end+0x3ef98b4>
    1d94:	00a10533          	add	a0,sp,a0
    1d98:	00052703          	lw	a4,0(a0)
    1d9c:	040007b7          	lui	a5,0x4000
    1da0:	0ae7a023          	sw	a4,160(a5) # 40000a0 <_stack_end+0x3ef98c4>
    1da4:	05010113          	addi	sp,sp,80
    1da8:	00008067          	ret

00001dac <tick_hour>:
    1dac:	000057b7          	lui	a5,0x5
    1db0:	8847d783          	lhu	a5,-1916(a5) # 4884 <mytime>
    1db4:	000056b7          	lui	a3,0x5
    1db8:	8806a703          	lw	a4,-1920(a3) # 4880 <hourtime>
    1dbc:	02079c63          	bnez	a5,1df4 <tick_hour+0x48>
    1dc0:	41075613          	srai	a2,a4,0x10
    1dc4:	00900593          	li	a1,9
    1dc8:	04b60063          	beq	a2,a1,1e08 <tick_hour+0x5c>
    1dcc:	01900593          	li	a1,25
    1dd0:	04b60263          	beq	a2,a1,1e14 <tick_hour+0x68>
    1dd4:	02300593          	li	a1,35
    1dd8:	02b60463          	beq	a2,a1,1e00 <tick_hour+0x54>
    1ddc:	000107b7          	lui	a5,0x10
    1de0:	00f70733          	add	a4,a4,a5
    1de4:	00ff07b7          	lui	a5,0xff0
    1de8:	00f777b3          	and	a5,a4,a5
    1dec:	88f6a023          	sw	a5,-1920(a3)
    1df0:	00008067          	ret
    1df4:	00ff0637          	lui	a2,0xff0
    1df8:	00c77733          	and	a4,a4,a2
    1dfc:	00e7e7b3          	or	a5,a5,a4
    1e00:	88f6a023          	sw	a5,-1920(a3)
    1e04:	00008067          	ret
    1e08:	001007b7          	lui	a5,0x100
    1e0c:	88f6a023          	sw	a5,-1920(a3)
    1e10:	00008067          	ret
    1e14:	002007b7          	lui	a5,0x200
    1e18:	88f6a023          	sw	a5,-1920(a3)
    1e1c:	00008067          	ret

00001e20 <wait_for_option>:
    1e20:	ff010113          	addi	sp,sp,-16
    1e24:	00812423          	sw	s0,8(sp)
    1e28:	00005437          	lui	s0,0x5
    1e2c:	87442783          	lw	a5,-1932(s0) # 4874 <option>
    1e30:	00112623          	sw	ra,12(sp)
    1e34:	00079a63          	bnez	a5,1e48 <wait_for_option+0x28>
    1e38:	00a00513          	li	a0,10
    1e3c:	aedfe0ef          	jal	928 <delay>
    1e40:	87442783          	lw	a5,-1932(s0)
    1e44:	fe078ae3          	beqz	a5,1e38 <wait_for_option+0x18>
    1e48:	00c12083          	lw	ra,12(sp)
    1e4c:	00812403          	lw	s0,8(sp)
    1e50:	01010113          	addi	sp,sp,16
    1e54:	00008067          	ret

00001e58 <combat>:
    1e58:	03452703          	lw	a4,52(a0)
    1e5c:	00070863          	beqz	a4,1e6c <combat+0x14>
    1e60:	02052783          	lw	a5,32(a0)
    1e64:	00f05463          	blez	a5,1e6c <combat+0x14>
    1e68:	8e0ff06f          	j	f48 <combat.part.0>
    1e6c:	00008067          	ret

00001e70 <shop>:
    1e70:	fc010113          	addi	sp,sp,-64
    1e74:	02912a23          	sw	s1,52(sp)
    1e78:	03312623          	sw	s3,44(sp)
    1e7c:	000054b7          	lui	s1,0x5
    1e80:	000059b7          	lui	s3,0x5
    1e84:	03212823          	sw	s2,48(sp)
    1e88:	03412423          	sw	s4,40(sp)
    1e8c:	03512223          	sw	s5,36(sp)
    1e90:	03612023          	sw	s6,32(sp)
    1e94:	01712e23          	sw	s7,28(sp)
    1e98:	02112e23          	sw	ra,60(sp)
    1e9c:	02812c23          	sw	s0,56(sp)
    1ea0:	00050a13          	mv	s4,a0
    1ea4:	c5048493          	addi	s1,s1,-944 # 4c50 <__global_pointer+0x57>
    1ea8:	d6c98993          	addi	s3,s3,-660 # 4d6c <__global_pointer+0x173>
    1eac:	00005937          	lui	s2,0x5
    1eb0:	00100a93          	li	s5,1
    1eb4:	00200b13          	li	s6,2
    1eb8:	00300b93          	li	s7,3
    1ebc:	02800413          	li	s0,40
    1ec0:	00048513          	mv	a0,s1
    1ec4:	fff40413          	addi	s0,s0,-1
    1ec8:	aa5fe0ef          	jal	96c <print>
    1ecc:	fe041ae3          	bnez	s0,1ec0 <shop+0x50>
    1ed0:	00098513          	mv	a0,s3
    1ed4:	a99fe0ef          	jal	96c <print>
    1ed8:	87492783          	lw	a5,-1932(s2) # 4874 <option>
    1edc:	00079a63          	bnez	a5,1ef0 <shop+0x80>
    1ee0:	00a00513          	li	a0,10
    1ee4:	a45fe0ef          	jal	928 <delay>
    1ee8:	87492783          	lw	a5,-1932(s2)
    1eec:	fe078ae3          	beqz	a5,1ee0 <shop+0x70>
    1ef0:	02800413          	li	s0,40
    1ef4:	00048513          	mv	a0,s1
    1ef8:	fff40413          	addi	s0,s0,-1
    1efc:	a71fe0ef          	jal	96c <print>
    1f00:	fe041ae3          	bnez	s0,1ef4 <shop+0x84>
    1f04:	87492783          	lw	a5,-1932(s2)
    1f08:	07578063          	beq	a5,s5,1f68 <shop+0xf8>
    1f0c:	0f678c63          	beq	a5,s6,2004 <shop+0x194>
    1f10:	0f779663          	bne	a5,s7,1ffc <shop+0x18c>
    1f14:	00005537          	lui	a0,0x5
    1f18:	04050513          	addi	a0,a0,64 # 5040 <__global_pointer+0x447>
    1f1c:	86092a23          	sw	zero,-1932(s2)
    1f20:	a4dfe0ef          	jal	96c <print>
    1f24:	7d000513          	li	a0,2000
    1f28:	a01fe0ef          	jal	928 <delay>
    1f2c:	00005537          	lui	a0,0x5
    1f30:	06050513          	addi	a0,a0,96 # 5060 <__global_pointer+0x467>
    1f34:	a39fe0ef          	jal	96c <print>
    1f38:	03812403          	lw	s0,56(sp)
    1f3c:	03c12083          	lw	ra,60(sp)
    1f40:	03412483          	lw	s1,52(sp)
    1f44:	03012903          	lw	s2,48(sp)
    1f48:	02c12983          	lw	s3,44(sp)
    1f4c:	02812a03          	lw	s4,40(sp)
    1f50:	02412a83          	lw	s5,36(sp)
    1f54:	02012b03          	lw	s6,32(sp)
    1f58:	01c12b83          	lw	s7,28(sp)
    1f5c:	7d000513          	li	a0,2000
    1f60:	04010113          	addi	sp,sp,64
    1f64:	9c5fe06f          	j	928 <delay>
    1f68:	00005437          	lui	s0,0x5
    1f6c:	000057b7          	lui	a5,0x5
    1f70:	01812c23          	sw	s8,24(sp)
    1f74:	01a12823          	sw	s10,16(sp)
    1f78:	01b12623          	sw	s11,12(sp)
    1f7c:	01912a23          	sw	s9,20(sp)
    1f80:	dcc40d93          	addi	s11,s0,-564 # 4dcc <__global_pointer+0x1d3>
    1f84:	da478d13          	addi	s10,a5,-604 # 4da4 <__global_pointer+0x1ab>
    1f88:	00100c13          	li	s8,1
    1f8c:	00300413          	li	s0,3
    1f90:	000d0513          	mv	a0,s10
    1f94:	86092a23          	sw	zero,-1932(s2)
    1f98:	9d5fe0ef          	jal	96c <print>
    1f9c:	010a2503          	lw	a0,16(s4)
    1fa0:	a05fe0ef          	jal	9a4 <print_dec>
    1fa4:	000d8513          	mv	a0,s11
    1fa8:	9c5fe0ef          	jal	96c <print>
    1fac:	87492783          	lw	a5,-1932(s2)
    1fb0:	00079a63          	bnez	a5,1fc4 <shop+0x154>
    1fb4:	00a00513          	li	a0,10
    1fb8:	971fe0ef          	jal	928 <delay>
    1fbc:	87492783          	lw	a5,-1932(s2)
    1fc0:	fe078ae3          	beqz	a5,1fb4 <shop+0x144>
    1fc4:	02800c93          	li	s9,40
    1fc8:	00048513          	mv	a0,s1
    1fcc:	fffc8c93          	addi	s9,s9,-1
    1fd0:	99dfe0ef          	jal	96c <print>
    1fd4:	fe0c9ae3          	bnez	s9,1fc8 <shop+0x158>
    1fd8:	87492783          	lw	a5,-1932(s2)
    1fdc:	21878263          	beq	a5,s8,21e0 <shop+0x370>
    1fe0:	00200713          	li	a4,2
    1fe4:	22e78463          	beq	a5,a4,220c <shop+0x39c>
    1fe8:	fa8794e3          	bne	a5,s0,1f90 <shop+0x120>
    1fec:	01812c03          	lw	s8,24(sp)
    1ff0:	01412c83          	lw	s9,20(sp)
    1ff4:	01012d03          	lw	s10,16(sp)
    1ff8:	00c12d83          	lw	s11,12(sp)
    1ffc:	86092a23          	sw	zero,-1932(s2)
    2000:	ebdff06f          	j	1ebc <shop+0x4c>
    2004:	01812c23          	sw	s8,24(sp)
    2008:	01912a23          	sw	s9,20(sp)
    200c:	00005c37          	lui	s8,0x5
    2010:	00005cb7          	lui	s9,0x5
    2014:	01a12823          	sw	s10,16(sp)
    2018:	888c0c13          	addi	s8,s8,-1912 # 4888 <mytime+0x4>
    201c:	e8cc8d13          	addi	s10,s9,-372 # 4e8c <__global_pointer+0x293>
    2020:	00500c93          	li	s9,5
    2024:	000d0513          	mv	a0,s10
    2028:	86092a23          	sw	zero,-1932(s2)
    202c:	941fe0ef          	jal	96c <print>
    2030:	87492783          	lw	a5,-1932(s2)
    2034:	00079a63          	bnez	a5,2048 <shop+0x1d8>
    2038:	00a00513          	li	a0,10
    203c:	8edfe0ef          	jal	928 <delay>
    2040:	87492783          	lw	a5,-1932(s2)
    2044:	fe078ae3          	beqz	a5,2038 <shop+0x1c8>
    2048:	02800413          	li	s0,40
    204c:	00048513          	mv	a0,s1
    2050:	fff40413          	addi	s0,s0,-1
    2054:	919fe0ef          	jal	96c <print>
    2058:	fe041ae3          	bnez	s0,204c <shop+0x1dc>
    205c:	87492783          	lw	a5,-1932(s2)
    2060:	fcfce2e3          	bltu	s9,a5,2024 <shop+0x1b4>
    2064:	00279793          	slli	a5,a5,0x2
    2068:	00fc07b3          	add	a5,s8,a5
    206c:	0007a783          	lw	a5,0(a5)
    2070:	00078067          	jr	a5
    2074:	01812c03          	lw	s8,24(sp)
    2078:	01412c83          	lw	s9,20(sp)
    207c:	01012d03          	lw	s10,16(sp)
    2080:	86092a23          	sw	zero,-1932(s2)
    2084:	e39ff06f          	j	1ebc <shop+0x4c>
    2088:	000055b7          	lui	a1,0x5
    208c:	94458593          	addi	a1,a1,-1724 # 4944 <mytime+0xc0>
    2090:	000a0513          	mv	a0,s4
    2094:	86092a23          	sw	zero,-1932(s2)
    2098:	a68fe0ef          	jal	300 <peek_inventory>
    209c:	00050593          	mv	a1,a0
    20a0:	12050863          	beqz	a0,21d0 <shop+0x360>
    20a4:	000a0513          	mv	a0,s4
    20a8:	c1cfe0ef          	jal	4c4 <remove_from_inventory>
    20ac:	00005537          	lui	a0,0x5
    20b0:	ff850513          	addi	a0,a0,-8 # 4ff8 <__global_pointer+0x3ff>
    20b4:	8b9fe0ef          	jal	96c <print>
    20b8:	010a2783          	lw	a5,16(s4)
    20bc:	03278793          	addi	a5,a5,50
    20c0:	00fa2823          	sw	a5,16(s4)
    20c4:	0ac0006f          	j	2170 <shop+0x300>
    20c8:	000055b7          	lui	a1,0x5
    20cc:	fa858593          	addi	a1,a1,-88 # 4fa8 <__global_pointer+0x3af>
    20d0:	000a0513          	mv	a0,s4
    20d4:	86092a23          	sw	zero,-1932(s2)
    20d8:	a28fe0ef          	jal	300 <peek_inventory>
    20dc:	00050593          	mv	a1,a0
    20e0:	0e050063          	beqz	a0,21c0 <shop+0x350>
    20e4:	000a0513          	mv	a0,s4
    20e8:	bdcfe0ef          	jal	4c4 <remove_from_inventory>
    20ec:	00005537          	lui	a0,0x5
    20f0:	fb450513          	addi	a0,a0,-76 # 4fb4 <__global_pointer+0x3bb>
    20f4:	879fe0ef          	jal	96c <print>
    20f8:	010a2783          	lw	a5,16(s4)
    20fc:	06478793          	addi	a5,a5,100
    2100:	00fa2823          	sw	a5,16(s4)
    2104:	06c0006f          	j	2170 <shop+0x300>
    2108:	000055b7          	lui	a1,0x5
    210c:	c1458593          	addi	a1,a1,-1004 # 4c14 <__global_pointer+0x1b>
    2110:	000a0513          	mv	a0,s4
    2114:	86092a23          	sw	zero,-1932(s2)
    2118:	9e8fe0ef          	jal	300 <peek_inventory>
    211c:	00050593          	mv	a1,a0
    2120:	08050863          	beqz	a0,21b0 <shop+0x340>
    2124:	000a0513          	mv	a0,s4
    2128:	b9cfe0ef          	jal	4c4 <remove_from_inventory>
    212c:	00005537          	lui	a0,0x5
    2130:	f5c50513          	addi	a0,a0,-164 # 4f5c <__global_pointer+0x363>
    2134:	839fe0ef          	jal	96c <print>
    2138:	010a2783          	lw	a5,16(s4)
    213c:	01478793          	addi	a5,a5,20
    2140:	00fa2823          	sw	a5,16(s4)
    2144:	02c0006f          	j	2170 <shop+0x300>
    2148:	000055b7          	lui	a1,0x5
    214c:	93858593          	addi	a1,a1,-1736 # 4938 <mytime+0xb4>
    2150:	000a0513          	mv	a0,s4
    2154:	86092a23          	sw	zero,-1932(s2)
    2158:	9a8fe0ef          	jal	300 <peek_inventory>
    215c:	00050593          	mv	a1,a0
    2160:	02051663          	bnez	a0,218c <shop+0x31c>
    2164:	00005537          	lui	a0,0x5
    2168:	f3450513          	addi	a0,a0,-204 # 4f34 <__global_pointer+0x33b>
    216c:	801fe0ef          	jal	96c <print>
    2170:	00001537          	lui	a0,0x1
    2174:	fa050513          	addi	a0,a0,-96 # fa0 <combat.part.0+0x58>
    2178:	fb0fe0ef          	jal	928 <delay>
    217c:	01812c03          	lw	s8,24(sp)
    2180:	01412c83          	lw	s9,20(sp)
    2184:	01012d03          	lw	s10,16(sp)
    2188:	d35ff06f          	j	1ebc <shop+0x4c>
    218c:	000a0513          	mv	a0,s4
    2190:	b34fe0ef          	jal	4c4 <remove_from_inventory>
    2194:	00005537          	lui	a0,0x5
    2198:	f1850513          	addi	a0,a0,-232 # 4f18 <__global_pointer+0x31f>
    219c:	fd0fe0ef          	jal	96c <print>
    21a0:	010a2783          	lw	a5,16(s4)
    21a4:	01978793          	addi	a5,a5,25
    21a8:	00fa2823          	sw	a5,16(s4)
    21ac:	fc5ff06f          	j	2170 <shop+0x300>
    21b0:	00005537          	lui	a0,0x5
    21b4:	f7c50513          	addi	a0,a0,-132 # 4f7c <__global_pointer+0x383>
    21b8:	fb4fe0ef          	jal	96c <print>
    21bc:	fb5ff06f          	j	2170 <shop+0x300>
    21c0:	00005537          	lui	a0,0x5
    21c4:	fd450513          	addi	a0,a0,-44 # 4fd4 <__global_pointer+0x3db>
    21c8:	fa4fe0ef          	jal	96c <print>
    21cc:	fa5ff06f          	j	2170 <shop+0x300>
    21d0:	00005537          	lui	a0,0x5
    21d4:	01850513          	addi	a0,a0,24 # 5018 <__global_pointer+0x41f>
    21d8:	f94fe0ef          	jal	96c <print>
    21dc:	f95ff06f          	j	2170 <shop+0x300>
    21e0:	010a2703          	lw	a4,16(s4)
    21e4:	86092a23          	sw	zero,-1932(s2)
    21e8:	04a00793          	li	a5,74
    21ec:	06e7d263          	bge	a5,a4,2250 <shop+0x3e0>
    21f0:	000055b7          	lui	a1,0x5
    21f4:	94458593          	addi	a1,a1,-1724 # 4944 <mytime+0xc0>
    21f8:	000a0513          	mv	a0,s4
    21fc:	96cfe0ef          	jal	368 <add_to_inventory>
    2200:	07850c63          	beq	a0,s8,2278 <shop+0x408>
    2204:	00c12d83          	lw	s11,12(sp)
    2208:	f69ff06f          	j	2170 <shop+0x300>
    220c:	010a2703          	lw	a4,16(s4)
    2210:	86092a23          	sw	zero,-1932(s2)
    2214:	01800793          	li	a5,24
    2218:	04e7d663          	bge	a5,a4,2264 <shop+0x3f4>
    221c:	000055b7          	lui	a1,0x5
    2220:	c1458593          	addi	a1,a1,-1004 # 4c14 <__global_pointer+0x1b>
    2224:	000a0513          	mv	a0,s4
    2228:	940fe0ef          	jal	368 <add_to_inventory>
    222c:	fd851ce3          	bne	a0,s8,2204 <shop+0x394>
    2230:	010a2783          	lw	a5,16(s4)
    2234:	00005537          	lui	a0,0x5
    2238:	e4c50513          	addi	a0,a0,-436 # 4e4c <__global_pointer+0x253>
    223c:	fe778793          	addi	a5,a5,-25
    2240:	00fa2823          	sw	a5,16(s4)
    2244:	f28fe0ef          	jal	96c <print>
    2248:	00c12d83          	lw	s11,12(sp)
    224c:	f25ff06f          	j	2170 <shop+0x300>
    2250:	00005537          	lui	a0,0x5
    2254:	e2050513          	addi	a0,a0,-480 # 4e20 <__global_pointer+0x227>
    2258:	f14fe0ef          	jal	96c <print>
    225c:	00c12d83          	lw	s11,12(sp)
    2260:	f11ff06f          	j	2170 <shop+0x300>
    2264:	00005537          	lui	a0,0x5
    2268:	e6050513          	addi	a0,a0,-416 # 4e60 <__global_pointer+0x267>
    226c:	f00fe0ef          	jal	96c <print>
    2270:	00c12d83          	lw	s11,12(sp)
    2274:	efdff06f          	j	2170 <shop+0x300>
    2278:	010a2783          	lw	a5,16(s4)
    227c:	00005537          	lui	a0,0x5
    2280:	e1050513          	addi	a0,a0,-496 # 4e10 <__global_pointer+0x217>
    2284:	fb578793          	addi	a5,a5,-75
    2288:	00fa2823          	sw	a5,16(s4)
    228c:	ee0fe0ef          	jal	96c <print>
    2290:	00c12d83          	lw	s11,12(sp)
    2294:	eddff06f          	j	2170 <shop+0x300>

00002298 <timer_timeout>:
    2298:	040007b7          	lui	a5,0x4000
    229c:	0207d683          	lhu	a3,32(a5) # 4000020 <_stack_end+0x3ef9844>
    22a0:	00300713          	li	a4,3
    22a4:	02078793          	addi	a5,a5,32
    22a8:	00000513          	li	a0,0
    22ac:	00e68463          	beq	a3,a4,22b4 <timer_timeout+0x1c>
    22b0:	00008067          	ret
    22b4:	00200713          	li	a4,2
    22b8:	00e79023          	sh	a4,0(a5)
    22bc:	00100513          	li	a0,1
    22c0:	00008067          	ret

000022c4 <init>:
    22c4:	ffffc6b7          	lui	a3,0xffffc
    22c8:	040007b7          	lui	a5,0x4000
    22cc:	6bf68693          	addi	a3,a3,1727 # ffffc6bf <_stack_end+0xffef5ee3>
    22d0:	02d79423          	sh	a3,40(a5) # 4000028 <_stack_end+0x3ef984c>
    22d4:	02d00693          	li	a3,45
    22d8:	02d79623          	sh	a3,44(a5)
    22dc:	00700693          	li	a3,7
    22e0:	02d79223          	sh	a3,36(a5)
    22e4:	03f00693          	li	a3,63
    22e8:	00d7ac23          	sw	a3,24(a5)
    22ec:	00d7ae23          	sw	a3,28(a5)
    22f0:	e85fd06f          	j	174 <enable_interrupts>

000022f4 <room_init>:
    22f4:	ed010113          	addi	sp,sp,-304
    22f8:	00100793          	li	a5,1
    22fc:	000056b7          	lui	a3,0x5
    2300:	00005637          	lui	a2,0x5
    2304:	12812423          	sw	s0,296(sp)
    2308:	00078593          	mv	a1,a5
    230c:	00000713          	li	a4,0
    2310:	06010513          	addi	a0,sp,96
    2314:	06c68693          	addi	a3,a3,108 # 506c <__global_pointer+0x473>
    2318:	15860613          	addi	a2,a2,344 # 5158 <__global_pointer+0x55f>
    231c:	00004437          	lui	s0,0x4
    2320:	12112623          	sw	ra,300(sp)
    2324:	40840413          	addi	s0,s0,1032 # 4408 <rooms>
    2328:	be4fe0ef          	jal	70c <new_room>
    232c:	06010793          	addi	a5,sp,96
    2330:	07040713          	addi	a4,s0,112
    2334:	0d010813          	addi	a6,sp,208
    2338:	0007a503          	lw	a0,0(a5)
    233c:	0047a583          	lw	a1,4(a5)
    2340:	0087a603          	lw	a2,8(a5)
    2344:	00c7a683          	lw	a3,12(a5)
    2348:	00a72023          	sw	a0,0(a4)
    234c:	00b72223          	sw	a1,4(a4)
    2350:	00c72423          	sw	a2,8(a4)
    2354:	00d72623          	sw	a3,12(a4)
    2358:	01078793          	addi	a5,a5,16
    235c:	01070713          	addi	a4,a4,16
    2360:	fd079ce3          	bne	a5,a6,2338 <room_init+0x44>
    2364:	000056b7          	lui	a3,0x5
    2368:	00005637          	lui	a2,0x5
    236c:	00000793          	li	a5,0
    2370:	00100713          	li	a4,1
    2374:	16068693          	addi	a3,a3,352 # 5160 <__global_pointer+0x567>
    2378:	1e860613          	addi	a2,a2,488 # 51e8 <__global_pointer+0x5ef>
    237c:	00200593          	li	a1,2
    2380:	06010513          	addi	a0,sp,96
    2384:	b88fe0ef          	jal	70c <new_room>
    2388:	06010793          	addi	a5,sp,96
    238c:	0e040713          	addi	a4,s0,224
    2390:	0d010813          	addi	a6,sp,208
    2394:	0007a503          	lw	a0,0(a5)
    2398:	0047a583          	lw	a1,4(a5)
    239c:	0087a603          	lw	a2,8(a5)
    23a0:	00c7a683          	lw	a3,12(a5)
    23a4:	00a72023          	sw	a0,0(a4)
    23a8:	00b72223          	sw	a1,4(a4)
    23ac:	00c72423          	sw	a2,8(a4)
    23b0:	00d72623          	sw	a3,12(a4)
    23b4:	01078793          	addi	a5,a5,16
    23b8:	01070713          	addi	a4,a4,16
    23bc:	fd079ce3          	bne	a5,a6,2394 <room_init+0xa0>
    23c0:	000056b7          	lui	a3,0x5
    23c4:	00005637          	lui	a2,0x5
    23c8:	00000793          	li	a5,0
    23cc:	00000713          	li	a4,0
    23d0:	1f468693          	addi	a3,a3,500 # 51f4 <__global_pointer+0x5fb>
    23d4:	28060613          	addi	a2,a2,640 # 5280 <__global_pointer+0x687>
    23d8:	00300593          	li	a1,3
    23dc:	06010513          	addi	a0,sp,96
    23e0:	b2cfe0ef          	jal	70c <new_room>
    23e4:	06010793          	addi	a5,sp,96
    23e8:	15040713          	addi	a4,s0,336
    23ec:	0d010813          	addi	a6,sp,208
    23f0:	0007a503          	lw	a0,0(a5)
    23f4:	0047a583          	lw	a1,4(a5)
    23f8:	0087a603          	lw	a2,8(a5)
    23fc:	00c7a683          	lw	a3,12(a5)
    2400:	00a72023          	sw	a0,0(a4)
    2404:	00b72223          	sw	a1,4(a4)
    2408:	00c72423          	sw	a2,8(a4)
    240c:	00d72623          	sw	a3,12(a4)
    2410:	01078793          	addi	a5,a5,16
    2414:	01070713          	addi	a4,a4,16
    2418:	fd079ce3          	bne	a5,a6,23f0 <room_init+0xfc>
    241c:	000056b7          	lui	a3,0x5
    2420:	00005637          	lui	a2,0x5
    2424:	00100793          	li	a5,1
    2428:	00000713          	li	a4,0
    242c:	28c68693          	addi	a3,a3,652 # 528c <__global_pointer+0x693>
    2430:	3a060613          	addi	a2,a2,928 # 53a0 <__global_pointer+0x7a7>
    2434:	00400593          	li	a1,4
    2438:	06010513          	addi	a0,sp,96
    243c:	ad0fe0ef          	jal	70c <new_room>
    2440:	06010793          	addi	a5,sp,96
    2444:	1c040713          	addi	a4,s0,448
    2448:	0d010813          	addi	a6,sp,208
    244c:	0007a503          	lw	a0,0(a5)
    2450:	0047a583          	lw	a1,4(a5)
    2454:	0087a603          	lw	a2,8(a5)
    2458:	00c7a683          	lw	a3,12(a5)
    245c:	00a72023          	sw	a0,0(a4)
    2460:	00b72223          	sw	a1,4(a4)
    2464:	00c72423          	sw	a2,8(a4)
    2468:	00d72623          	sw	a3,12(a4)
    246c:	01078793          	addi	a5,a5,16
    2470:	01070713          	addi	a4,a4,16
    2474:	fd079ce3          	bne	a5,a6,244c <room_init+0x158>
    2478:	000056b7          	lui	a3,0x5
    247c:	00005637          	lui	a2,0x5
    2480:	00100793          	li	a5,1
    2484:	00000713          	li	a4,0
    2488:	3ac68693          	addi	a3,a3,940 # 53ac <__global_pointer+0x7b3>
    248c:	43460613          	addi	a2,a2,1076 # 5434 <__global_pointer+0x83b>
    2490:	00500593          	li	a1,5
    2494:	06010513          	addi	a0,sp,96
    2498:	a74fe0ef          	jal	70c <new_room>
    249c:	06010793          	addi	a5,sp,96
    24a0:	23040713          	addi	a4,s0,560
    24a4:	0d010813          	addi	a6,sp,208
    24a8:	0007a503          	lw	a0,0(a5)
    24ac:	0047a583          	lw	a1,4(a5)
    24b0:	0087a603          	lw	a2,8(a5)
    24b4:	00c7a683          	lw	a3,12(a5)
    24b8:	00a72023          	sw	a0,0(a4)
    24bc:	00b72223          	sw	a1,4(a4)
    24c0:	00c72423          	sw	a2,8(a4)
    24c4:	00d72623          	sw	a3,12(a4)
    24c8:	01078793          	addi	a5,a5,16
    24cc:	01070713          	addi	a4,a4,16
    24d0:	fd079ce3          	bne	a5,a6,24a8 <room_init+0x1b4>
    24d4:	00100793          	li	a5,1
    24d8:	000056b7          	lui	a3,0x5
    24dc:	00005637          	lui	a2,0x5
    24e0:	00078713          	mv	a4,a5
    24e4:	44068693          	addi	a3,a3,1088 # 5440 <__global_pointer+0x847>
    24e8:	49860613          	addi	a2,a2,1176 # 5498 <__global_pointer+0x89f>
    24ec:	00600593          	li	a1,6
    24f0:	06010513          	addi	a0,sp,96
    24f4:	a18fe0ef          	jal	70c <new_room>
    24f8:	06010793          	addi	a5,sp,96
    24fc:	2a040713          	addi	a4,s0,672
    2500:	0d010813          	addi	a6,sp,208
    2504:	0007a503          	lw	a0,0(a5)
    2508:	0047a583          	lw	a1,4(a5)
    250c:	0087a603          	lw	a2,8(a5)
    2510:	00c7a683          	lw	a3,12(a5)
    2514:	00a72023          	sw	a0,0(a4)
    2518:	00b72223          	sw	a1,4(a4)
    251c:	00c72423          	sw	a2,8(a4)
    2520:	00d72623          	sw	a3,12(a4)
    2524:	01078793          	addi	a5,a5,16
    2528:	01070713          	addi	a4,a4,16
    252c:	fd079ce3          	bne	a5,a6,2504 <room_init+0x210>
    2530:	000056b7          	lui	a3,0x5
    2534:	00005637          	lui	a2,0x5
    2538:	00000793          	li	a5,0
    253c:	00000713          	li	a4,0
    2540:	4a868693          	addi	a3,a3,1192 # 54a8 <__global_pointer+0x8af>
    2544:	57860613          	addi	a2,a2,1400 # 5578 <__global_pointer+0x97f>
    2548:	00700593          	li	a1,7
    254c:	06010513          	addi	a0,sp,96
    2550:	9bcfe0ef          	jal	70c <new_room>
    2554:	06010793          	addi	a5,sp,96
    2558:	31040713          	addi	a4,s0,784
    255c:	0d010813          	addi	a6,sp,208
    2560:	0007a503          	lw	a0,0(a5)
    2564:	0047a583          	lw	a1,4(a5)
    2568:	0087a603          	lw	a2,8(a5)
    256c:	00c7a683          	lw	a3,12(a5)
    2570:	00a72023          	sw	a0,0(a4)
    2574:	00b72223          	sw	a1,4(a4)
    2578:	00c72423          	sw	a2,8(a4)
    257c:	00d72623          	sw	a3,12(a4)
    2580:	01078793          	addi	a5,a5,16
    2584:	01070713          	addi	a4,a4,16
    2588:	fd079ce3          	bne	a5,a6,2560 <room_init+0x26c>
    258c:	000056b7          	lui	a3,0x5
    2590:	00005637          	lui	a2,0x5
    2594:	00000793          	li	a5,0
    2598:	00000713          	li	a4,0
    259c:	58468693          	addi	a3,a3,1412 # 5584 <__global_pointer+0x98b>
    25a0:	60860613          	addi	a2,a2,1544 # 5608 <__global_pointer+0xa0f>
    25a4:	00800593          	li	a1,8
    25a8:	06010513          	addi	a0,sp,96
    25ac:	960fe0ef          	jal	70c <new_room>
    25b0:	06010793          	addi	a5,sp,96
    25b4:	38040713          	addi	a4,s0,896
    25b8:	0d010813          	addi	a6,sp,208
    25bc:	0007a503          	lw	a0,0(a5)
    25c0:	0047a583          	lw	a1,4(a5)
    25c4:	0087a603          	lw	a2,8(a5)
    25c8:	00c7a683          	lw	a3,12(a5)
    25cc:	00a72023          	sw	a0,0(a4)
    25d0:	00b72223          	sw	a1,4(a4)
    25d4:	00c72423          	sw	a2,8(a4)
    25d8:	00d72623          	sw	a3,12(a4)
    25dc:	01078793          	addi	a5,a5,16
    25e0:	01070713          	addi	a4,a4,16
    25e4:	fd079ce3          	bne	a5,a6,25bc <room_init+0x2c8>
    25e8:	000056b7          	lui	a3,0x5
    25ec:	00005637          	lui	a2,0x5
    25f0:	00000793          	li	a5,0
    25f4:	00100713          	li	a4,1
    25f8:	61c68693          	addi	a3,a3,1564 # 561c <__global_pointer+0xa23>
    25fc:	6e460613          	addi	a2,a2,1764 # 56e4 <__global_pointer+0xaeb>
    2600:	00900593          	li	a1,9
    2604:	06010513          	addi	a0,sp,96
    2608:	904fe0ef          	jal	70c <new_room>
    260c:	06010793          	addi	a5,sp,96
    2610:	3f040713          	addi	a4,s0,1008
    2614:	0d010813          	addi	a6,sp,208
    2618:	0007a503          	lw	a0,0(a5)
    261c:	0047a583          	lw	a1,4(a5)
    2620:	0087a603          	lw	a2,8(a5)
    2624:	00c7a683          	lw	a3,12(a5)
    2628:	00a72023          	sw	a0,0(a4)
    262c:	00b72223          	sw	a1,4(a4)
    2630:	00c72423          	sw	a2,8(a4)
    2634:	00d72623          	sw	a3,12(a4)
    2638:	01078793          	addi	a5,a5,16
    263c:	01070713          	addi	a4,a4,16
    2640:	fd079ce3          	bne	a5,a6,2618 <room_init+0x324>
    2644:	00300693          	li	a3,3
    2648:	000057b7          	lui	a5,0x5
    264c:	00005637          	lui	a2,0x5
    2650:	00400f13          	li	t5,4
    2654:	00600813          	li	a6,6
    2658:	00700e93          	li	t4,7
    265c:	00800e13          	li	t3,8
    2660:	00200593          	li	a1,2
    2664:	00500713          	li	a4,5
    2668:	00100893          	li	a7,1
    266c:	00900313          	li	t1,9
    2670:	04010513          	addi	a0,sp,64
    2674:	fa878793          	addi	a5,a5,-88 # 4fa8 <__global_pointer+0x3af>
    2678:	6f060613          	addi	a2,a2,1776 # 56f0 <__global_pointer+0xaf7>
    267c:	0ed42823          	sw	a3,240(s0)
    2680:	22d42e23          	sw	a3,572(s0)
    2684:	01400693          	li	a3,20
    2688:	0f142623          	sw	a7,236(s0)
    268c:	0fe42a23          	sw	t5,244(s0)
    2690:	25e42023          	sw	t5,576(s0)
    2694:	25042223          	sw	a6,580(s0)
    2698:	31042e23          	sw	a6,796(s0)
    269c:	2bd42823          	sw	t4,688(s0)
    26a0:	39d42623          	sw	t4,908(s0)
    26a4:	33c42023          	sw	t3,800(s0)
    26a8:	3fc42e23          	sw	t3,1020(s0)
    26ac:	38642823          	sw	t1,912(s0)
    26b0:	06b42e23          	sw	a1,124(s0)
    26b4:	14b42e23          	sw	a1,348(s0)
    26b8:	1cb42623          	sw	a1,460(s0)
    26bc:	16e42023          	sw	a4,352(s0)
    26c0:	1ce42823          	sw	a4,464(s0)
    26c4:	2ae42623          	sw	a4,684(s0)
    26c8:	828fe0ef          	jal	6f0 <new_enemy>
    26cc:	04012683          	lw	a3,64(sp)
    26d0:	04412703          	lw	a4,68(sp)
    26d4:	04812783          	lw	a5,72(sp)
    26d8:	0ed42c23          	sw	a3,248(s0)
    26dc:	0ee42e23          	sw	a4,252(s0)
    26e0:	10f42023          	sw	a5,256(s0)
    26e4:	04c12683          	lw	a3,76(sp)
    26e8:	05012703          	lw	a4,80(sp)
    26ec:	05412783          	lw	a5,84(sp)
    26f0:	10d42223          	sw	a3,260(s0)
    26f4:	10e42423          	sw	a4,264(s0)
    26f8:	10f42623          	sw	a5,268(s0)
    26fc:	05812703          	lw	a4,88(sp)
    2700:	000057b7          	lui	a5,0x5
    2704:	00600593          	li	a1,6
    2708:	10e42823          	sw	a4,272(s0)
    270c:	00005737          	lui	a4,0x5
    2710:	6f870613          	addi	a2,a4,1784 # 56f8 <__global_pointer+0xaff>
    2714:	04010513          	addi	a0,sp,64
    2718:	93878793          	addi	a5,a5,-1736 # 4938 <mytime+0xb4>
    271c:	00c00713          	li	a4,12
    2720:	03200693          	li	a3,50
    2724:	fcdfd0ef          	jal	6f0 <new_enemy>
    2728:	04012683          	lw	a3,64(sp)
    272c:	04412703          	lw	a4,68(sp)
    2730:	04812783          	lw	a5,72(sp)
    2734:	2ad42c23          	sw	a3,696(s0)
    2738:	2ae42e23          	sw	a4,700(s0)
    273c:	2cf42023          	sw	a5,704(s0)
    2740:	04c12683          	lw	a3,76(sp)
    2744:	05012703          	lw	a4,80(sp)
    2748:	05412783          	lw	a5,84(sp)
    274c:	2cd42223          	sw	a3,708(s0)
    2750:	2ce42423          	sw	a4,712(s0)
    2754:	2cf42623          	sw	a5,716(s0)
    2758:	05812703          	lw	a4,88(sp)
    275c:	000057b7          	lui	a5,0x5
    2760:	00005637          	lui	a2,0x5
    2764:	2ce42823          	sw	a4,720(s0)
    2768:	00900593          	li	a1,9
    276c:	04010513          	addi	a0,sp,64
    2770:	70078793          	addi	a5,a5,1792 # 5700 <__global_pointer+0xb07>
    2774:	70c60613          	addi	a2,a2,1804 # 570c <__global_pointer+0xb13>
    2778:	01400713          	li	a4,20
    277c:	06400693          	li	a3,100
    2780:	f71fd0ef          	jal	6f0 <new_enemy>
    2784:	04012603          	lw	a2,64(sp)
    2788:	04412683          	lw	a3,68(sp)
    278c:	04812703          	lw	a4,72(sp)
    2790:	40c42423          	sw	a2,1032(s0)
    2794:	40d42623          	sw	a3,1036(s0)
    2798:	40e42823          	sw	a4,1040(s0)
    279c:	04c12603          	lw	a2,76(sp)
    27a0:	05012683          	lw	a3,80(sp)
    27a4:	05412703          	lw	a4,84(sp)
    27a8:	40c42a23          	sw	a2,1044(s0)
    27ac:	40d42c23          	sw	a3,1048(s0)
    27b0:	40e42e23          	sw	a4,1052(s0)
    27b4:	05812603          	lw	a2,88(sp)
    27b8:	000057b7          	lui	a5,0x5
    27bc:	8a078793          	addi	a5,a5,-1888 # 48a0 <mytime+0x1c>
    27c0:	0507a683          	lw	a3,80(a5)
    27c4:	0547a703          	lw	a4,84(a5)
    27c8:	42c42023          	sw	a2,1056(s0)
    27cc:	0587a603          	lw	a2,88(a5)
    27d0:	10d12423          	sw	a3,264(sp)
    27d4:	10e12623          	sw	a4,268(sp)
    27d8:	05c7a683          	lw	a3,92(a5)
    27dc:	0607a703          	lw	a4,96(a5)
    27e0:	10c12823          	sw	a2,272(sp)
    27e4:	0647a603          	lw	a2,100(a5)
    27e8:	10d12a23          	sw	a3,276(sp)
    27ec:	10e12c23          	sw	a4,280(sp)
    27f0:	0687a683          	lw	a3,104(a5)
    27f4:	06c7a703          	lw	a4,108(a5)
    27f8:	10c12e23          	sw	a2,284(sp)
    27fc:	0707a603          	lw	a2,112(a5)
    2800:	0ed12023          	sw	a3,224(sp)
    2804:	0ee12223          	sw	a4,228(sp)
    2808:	0747a683          	lw	a3,116(a5)
    280c:	0ec12423          	sw	a2,232(sp)
    2810:	08c7a803          	lw	a6,140(a5)
    2814:	0787af83          	lw	t6,120(a5)
    2818:	07c7af03          	lw	t5,124(a5)
    281c:	0807ae83          	lw	t4,128(a5)
    2820:	0847ae03          	lw	t3,132(a5)
    2824:	0887a303          	lw	t1,136(a5)
    2828:	00005737          	lui	a4,0x5
    282c:	00005637          	lui	a2,0x5
    2830:	71470793          	addi	a5,a4,1812 # 5714 <__global_pointer+0xb1b>
    2834:	0ed12623          	sw	a3,236(sp)
    2838:	00000713          	li	a4,0
    283c:	00100593          	li	a1,1
    2840:	00010513          	mv	a0,sp
    2844:	10810693          	addi	a3,sp,264
    2848:	74460613          	addi	a2,a2,1860 # 5744 <__global_pointer+0xb4b>
    284c:	0cf12e23          	sw	a5,220(sp)
    2850:	11012223          	sw	a6,260(sp)
    2854:	0ff12823          	sw	t6,240(sp)
    2858:	0fe12a23          	sw	t5,244(sp)
    285c:	0fd12c23          	sw	t4,248(sp)
    2860:	0fc12e23          	sw	t3,252(sp)
    2864:	10612023          	sw	t1,256(sp)
    2868:	ec9fd0ef          	jal	730 <new_npc>
    286c:	00010713          	mv	a4,sp
    2870:	0a840793          	addi	a5,s0,168
    2874:	03010813          	addi	a6,sp,48
    2878:	00072503          	lw	a0,0(a4)
    287c:	00472583          	lw	a1,4(a4)
    2880:	00872603          	lw	a2,8(a4)
    2884:	00c72683          	lw	a3,12(a4)
    2888:	00a7a023          	sw	a0,0(a5)
    288c:	00b7a223          	sw	a1,4(a5)
    2890:	00c7a423          	sw	a2,8(a5)
    2894:	00d7a623          	sw	a3,12(a5)
    2898:	01070713          	addi	a4,a4,16
    289c:	01078793          	addi	a5,a5,16
    28a0:	fd071ce3          	bne	a4,a6,2878 <room_init+0x584>
    28a4:	00082703          	lw	a4,0(a6)
    28a8:	00005637          	lui	a2,0x5
    28ac:	74c60613          	addi	a2,a2,1868 # 574c <__global_pointer+0xb53>
    28b0:	00e7a023          	sw	a4,0(a5)
    28b4:	0e010693          	addi	a3,sp,224
    28b8:	00000713          	li	a4,0
    28bc:	00400593          	li	a1,4
    28c0:	00010513          	mv	a0,sp
    28c4:	e6dfd0ef          	jal	730 <new_npc>
    28c8:	00010713          	mv	a4,sp
    28cc:	1f840793          	addi	a5,s0,504
    28d0:	03010813          	addi	a6,sp,48
    28d4:	00072503          	lw	a0,0(a4)
    28d8:	00472583          	lw	a1,4(a4)
    28dc:	00872603          	lw	a2,8(a4)
    28e0:	00c72683          	lw	a3,12(a4)
    28e4:	00a7a023          	sw	a0,0(a5)
    28e8:	00b7a223          	sw	a1,4(a5)
    28ec:	00c7a423          	sw	a2,8(a5)
    28f0:	00d7a623          	sw	a3,12(a5)
    28f4:	01070713          	addi	a4,a4,16
    28f8:	01078793          	addi	a5,a5,16
    28fc:	fd071ce3          	bne	a4,a6,28d4 <room_init+0x5e0>
    2900:	00082703          	lw	a4,0(a6)
    2904:	00005637          	lui	a2,0x5
    2908:	75860613          	addi	a2,a2,1880 # 5758 <__global_pointer+0xb5f>
    290c:	00e7a023          	sw	a4,0(a5)
    2910:	0dc10693          	addi	a3,sp,220
    2914:	00100713          	li	a4,1
    2918:	00500593          	li	a1,5
    291c:	00010513          	mv	a0,sp
    2920:	e11fd0ef          	jal	730 <new_npc>
    2924:	00010713          	mv	a4,sp
    2928:	26840793          	addi	a5,s0,616
    292c:	03010813          	addi	a6,sp,48
    2930:	00072503          	lw	a0,0(a4)
    2934:	00472583          	lw	a1,4(a4)
    2938:	00872603          	lw	a2,8(a4)
    293c:	00c72683          	lw	a3,12(a4)
    2940:	00a7a023          	sw	a0,0(a5)
    2944:	00b7a223          	sw	a1,4(a5)
    2948:	00c7a423          	sw	a2,8(a5)
    294c:	00d7a623          	sw	a3,12(a5)
    2950:	01070713          	addi	a4,a4,16
    2954:	01078793          	addi	a5,a5,16
    2958:	fd071ce3          	bne	a4,a6,2930 <room_init+0x63c>
    295c:	00082703          	lw	a4,0(a6)
    2960:	000056b7          	lui	a3,0x5
    2964:	6f868613          	addi	a2,a3,1784 # 56f8 <__global_pointer+0xaff>
    2968:	00e7a023          	sw	a4,0(a5)
    296c:	0f410693          	addi	a3,sp,244
    2970:	00000713          	li	a4,0
    2974:	00600593          	li	a1,6
    2978:	00010513          	mv	a0,sp
    297c:	db5fd0ef          	jal	730 <new_npc>
    2980:	00010793          	mv	a5,sp
    2984:	2d840413          	addi	s0,s0,728
    2988:	03010813          	addi	a6,sp,48
    298c:	0007a583          	lw	a1,0(a5)
    2990:	0047a603          	lw	a2,4(a5)
    2994:	0087a683          	lw	a3,8(a5)
    2998:	00c7a703          	lw	a4,12(a5)
    299c:	00b42023          	sw	a1,0(s0)
    29a0:	00c42223          	sw	a2,4(s0)
    29a4:	00d42423          	sw	a3,8(s0)
    29a8:	00e42623          	sw	a4,12(s0)
    29ac:	01078793          	addi	a5,a5,16
    29b0:	01040413          	addi	s0,s0,16
    29b4:	fd079ce3          	bne	a5,a6,298c <room_init+0x698>
    29b8:	0007a783          	lw	a5,0(a5)
    29bc:	12c12083          	lw	ra,300(sp)
    29c0:	00f42023          	sw	a5,0(s0)
    29c4:	12812403          	lw	s0,296(sp)
    29c8:	13010113          	addi	sp,sp,304
    29cc:	00008067          	ret

000029d0 <player_init>:
    29d0:	000055b7          	lui	a1,0x5
    29d4:	ff010113          	addi	sp,sp,-16
    29d8:	76058593          	addi	a1,a1,1888 # 5760 <__global_pointer+0xb67>
    29dc:	01600613          	li	a2,22
    29e0:	00100513          	li	a0,1
    29e4:	00112623          	sw	ra,12(sp)
    29e8:	f9cfd0ef          	jal	184 <new_player>
    29ec:	00c12083          	lw	ra,12(sp)
    29f0:	000057b7          	lui	a5,0x5
    29f4:	86a7ac23          	sw	a0,-1928(a5) # 4878 <p>
    29f8:	01010113          	addi	sp,sp,16
    29fc:	00008067          	ret

00002a00 <room_exits>:
    2a00:	fd010113          	addi	sp,sp,-48
    2a04:	02912223          	sw	s1,36(sp)
    2a08:	01412c23          	sw	s4,24(sp)
    2a0c:	01512a23          	sw	s5,20(sp)
    2a10:	01612823          	sw	s6,16(sp)
    2a14:	000054b7          	lui	s1,0x5
    2a18:	00005b37          	lui	s6,0x5
    2a1c:	00005ab7          	lui	s5,0x5
    2a20:	00004a37          	lui	s4,0x4
    2a24:	03212023          	sw	s2,32(sp)
    2a28:	01312e23          	sw	s3,28(sp)
    2a2c:	01712623          	sw	s7,12(sp)
    2a30:	01812423          	sw	s8,8(sp)
    2a34:	02112623          	sw	ra,44(sp)
    2a38:	02812423          	sw	s0,40(sp)
    2a3c:	00050993          	mv	s3,a0
    2a40:	c5048493          	addi	s1,s1,-944 # 4c50 <__global_pointer+0x57>
    2a44:	a14b0b13          	addi	s6,s6,-1516 # 4a14 <mytime+0x190>
    2a48:	9dca8a93          	addi	s5,s5,-1572 # 49dc <mytime+0x158>
    2a4c:	408a0a13          	addi	s4,s4,1032 # 4408 <rooms>
    2a50:	00005c37          	lui	s8,0x5
    2a54:	00005937          	lui	s2,0x5
    2a58:	00200b93          	li	s7,2
    2a5c:	02800413          	li	s0,40
    2a60:	00048513          	mv	a0,s1
    2a64:	fff40413          	addi	s0,s0,-1
    2a68:	f05fd0ef          	jal	96c <print>
    2a6c:	fe041ae3          	bnez	s0,2a60 <room_exits+0x60>
    2a70:	000b0513          	mv	a0,s6
    2a74:	ef9fd0ef          	jal	96c <print>
    2a78:	0049a503          	lw	a0,4(s3)
    2a7c:	ef1fd0ef          	jal	96c <print>
    2a80:	a24c0513          	addi	a0,s8,-1500 # 4a24 <mytime+0x1a0>
    2a84:	ee9fd0ef          	jal	96c <print>
    2a88:	00c9a783          	lw	a5,12(s3)
    2a8c:	0a079e63          	bnez	a5,2b48 <room_exits+0x148>
    2a90:	0109a783          	lw	a5,16(s3)
    2a94:	04079063          	bnez	a5,2ad4 <room_exits+0xd4>
    2a98:	0149a783          	lw	a5,20(s3)
    2a9c:	06079a63          	bnez	a5,2b10 <room_exits+0x110>
    2aa0:	86092a23          	sw	zero,-1932(s2) # 4874 <option>
    2aa4:	00a00513          	li	a0,10
    2aa8:	e81fd0ef          	jal	928 <delay>
    2aac:	87492783          	lw	a5,-1932(s2)
    2ab0:	fe078ae3          	beqz	a5,2aa4 <room_exits+0xa4>
    2ab4:	fff78793          	addi	a5,a5,-1
    2ab8:	00fbea63          	bltu	s7,a5,2acc <room_exits+0xcc>
    2abc:	00279793          	slli	a5,a5,0x2
    2ac0:	00f987b3          	add	a5,s3,a5
    2ac4:	00c7a783          	lw	a5,12(a5)
    2ac8:	0a079c63          	bnez	a5,2b80 <room_exits+0x180>
    2acc:	86092a23          	sw	zero,-1932(s2)
    2ad0:	f8dff06f          	j	2a5c <room_exits+0x5c>
    2ad4:	00200513          	li	a0,2
    2ad8:	ecdfd0ef          	jal	9a4 <print_dec>
    2adc:	000a8513          	mv	a0,s5
    2ae0:	e8dfd0ef          	jal	96c <print>
    2ae4:	0109a703          	lw	a4,16(s3)
    2ae8:	00371793          	slli	a5,a4,0x3
    2aec:	40e787b3          	sub	a5,a5,a4
    2af0:	00479793          	slli	a5,a5,0x4
    2af4:	00fa07b3          	add	a5,s4,a5
    2af8:	0047a503          	lw	a0,4(a5)
    2afc:	e71fd0ef          	jal	96c <print>
    2b00:	00048513          	mv	a0,s1
    2b04:	e69fd0ef          	jal	96c <print>
    2b08:	0149a783          	lw	a5,20(s3)
    2b0c:	f8078ae3          	beqz	a5,2aa0 <room_exits+0xa0>
    2b10:	00300513          	li	a0,3
    2b14:	e91fd0ef          	jal	9a4 <print_dec>
    2b18:	000a8513          	mv	a0,s5
    2b1c:	e51fd0ef          	jal	96c <print>
    2b20:	0149a703          	lw	a4,20(s3)
    2b24:	00371793          	slli	a5,a4,0x3
    2b28:	40e787b3          	sub	a5,a5,a4
    2b2c:	00479793          	slli	a5,a5,0x4
    2b30:	00fa07b3          	add	a5,s4,a5
    2b34:	0047a503          	lw	a0,4(a5)
    2b38:	e35fd0ef          	jal	96c <print>
    2b3c:	00048513          	mv	a0,s1
    2b40:	e2dfd0ef          	jal	96c <print>
    2b44:	f5dff06f          	j	2aa0 <room_exits+0xa0>
    2b48:	00100513          	li	a0,1
    2b4c:	e59fd0ef          	jal	9a4 <print_dec>
    2b50:	000a8513          	mv	a0,s5
    2b54:	e19fd0ef          	jal	96c <print>
    2b58:	00c9a703          	lw	a4,12(s3)
    2b5c:	00371793          	slli	a5,a4,0x3
    2b60:	40e787b3          	sub	a5,a5,a4
    2b64:	00479793          	slli	a5,a5,0x4
    2b68:	00fa07b3          	add	a5,s4,a5
    2b6c:	0047a503          	lw	a0,4(a5)
    2b70:	dfdfd0ef          	jal	96c <print>
    2b74:	00048513          	mv	a0,s1
    2b78:	df5fd0ef          	jal	96c <print>
    2b7c:	f15ff06f          	j	2a90 <room_exits+0x90>
    2b80:	00004737          	lui	a4,0x4
    2b84:	3fc72583          	lw	a1,1020(a4) # 43fc <current_room>
    2b88:	02c12083          	lw	ra,44(sp)
    2b8c:	02812403          	lw	s0,40(sp)
    2b90:	00005637          	lui	a2,0x5
    2b94:	000056b7          	lui	a3,0x5
    2b98:	3ef72e23          	sw	a5,1020(a4)
    2b9c:	86b62423          	sw	a1,-1944(a2) # 4868 <prev_room>
    2ba0:	8606a623          	sw	zero,-1940(a3) # 486c <next_room>
    2ba4:	02412483          	lw	s1,36(sp)
    2ba8:	02012903          	lw	s2,32(sp)
    2bac:	01c12983          	lw	s3,28(sp)
    2bb0:	01812a03          	lw	s4,24(sp)
    2bb4:	01412a83          	lw	s5,20(sp)
    2bb8:	01012b03          	lw	s6,16(sp)
    2bbc:	00c12b83          	lw	s7,12(sp)
    2bc0:	00812c03          	lw	s8,8(sp)
    2bc4:	03010113          	addi	sp,sp,48
    2bc8:	00008067          	ret

00002bcc <talk_to_npc>:
    2bcc:	fe010113          	addi	sp,sp,-32
    2bd0:	01412423          	sw	s4,8(sp)
    2bd4:	00050a13          	mv	s4,a0
    2bd8:	00001537          	lui	a0,0x1
    2bdc:	01312623          	sw	s3,12(sp)
    2be0:	fa050513          	addi	a0,a0,-96 # fa0 <combat.part.0+0x58>
    2be4:	000059b7          	lui	s3,0x5
    2be8:	00812c23          	sw	s0,24(sp)
    2bec:	00912a23          	sw	s1,20(sp)
    2bf0:	01512223          	sw	s5,4(sp)
    2bf4:	00112e23          	sw	ra,28(sp)
    2bf8:	01212823          	sw	s2,16(sp)
    2bfc:	00058a93          	mv	s5,a1
    2c00:	c5098493          	addi	s1,s3,-944 # 4c50 <__global_pointer+0x57>
    2c04:	d25fd0ef          	jal	928 <delay>
    2c08:	02800413          	li	s0,40
    2c0c:	00048513          	mv	a0,s1
    2c10:	fff40413          	addi	s0,s0,-1
    2c14:	d59fd0ef          	jal	96c <print>
    2c18:	fe041ae3          	bnez	s0,2c0c <talk_to_npc+0x40>
    2c1c:	03ca2503          	lw	a0,60(s4)
    2c20:	000055b7          	lui	a1,0x5
    2c24:	74458593          	addi	a1,a1,1860 # 5744 <__global_pointer+0xb4b>
    2c28:	920fe0ef          	jal	d48 <strcmp>
    2c2c:	00050913          	mv	s2,a0
    2c30:	0c051663          	bnez	a0,2cfc <talk_to_npc+0x130>
    2c34:	040a2783          	lw	a5,64(s4)
    2c38:	040a0413          	addi	s0,s4,64
    2c3c:	06078863          	beqz	a5,2cac <talk_to_npc+0xe0>
    2c40:	00005ab7          	lui	s5,0x5
    2c44:	000057b7          	lui	a5,0x5
    2c48:	c5098493          	addi	s1,s3,-944
    2c4c:	778a8a93          	addi	s5,s5,1912 # 5778 <__global_pointer+0xb7f>
    2c50:	dc878993          	addi	s3,a5,-568 # 4dc8 <__global_pointer+0x1cf>
    2c54:	0440006f          	j	2c98 <talk_to_npc+0xcc>
    2c58:	d15fd0ef          	jal	96c <print>
    2c5c:	03ca2503          	lw	a0,60(s4)
    2c60:	d0dfd0ef          	jal	96c <print>
    2c64:	00098513          	mv	a0,s3
    2c68:	d05fd0ef          	jal	96c <print>
    2c6c:	00042503          	lw	a0,0(s0)
    2c70:	00440413          	addi	s0,s0,4
    2c74:	00190913          	addi	s2,s2,1
    2c78:	cf5fd0ef          	jal	96c <print>
    2c7c:	00048513          	mv	a0,s1
    2c80:	cedfd0ef          	jal	96c <print>
    2c84:	00001537          	lui	a0,0x1
    2c88:	fa050513          	addi	a0,a0,-96 # fa0 <combat.part.0+0x58>
    2c8c:	c9dfd0ef          	jal	928 <delay>
    2c90:	00042783          	lw	a5,0(s0)
    2c94:	00078c63          	beqz	a5,2cac <talk_to_npc+0xe0>
    2c98:	00197793          	andi	a5,s2,1
    2c9c:	00048513          	mv	a0,s1
    2ca0:	fa078ce3          	beqz	a5,2c58 <talk_to_npc+0x8c>
    2ca4:	000a8513          	mv	a0,s5
    2ca8:	fc1ff06f          	j	2c68 <talk_to_npc+0x9c>
    2cac:	00005537          	lui	a0,0x5
    2cb0:	76850513          	addi	a0,a0,1896 # 5768 <__global_pointer+0xb6f>
    2cb4:	cb9fd0ef          	jal	96c <print>
    2cb8:	00005437          	lui	s0,0x5
    2cbc:	87442783          	lw	a5,-1932(s0) # 4874 <option>
    2cc0:	00079a63          	bnez	a5,2cd4 <talk_to_npc+0x108>
    2cc4:	00a00513          	li	a0,10
    2cc8:	c61fd0ef          	jal	928 <delay>
    2ccc:	87442783          	lw	a5,-1932(s0)
    2cd0:	fe078ae3          	beqz	a5,2cc4 <talk_to_npc+0xf8>
    2cd4:	000a0513          	mv	a0,s4
    2cd8:	01812403          	lw	s0,24(sp)
    2cdc:	01c12083          	lw	ra,28(sp)
    2ce0:	01412483          	lw	s1,20(sp)
    2ce4:	01012903          	lw	s2,16(sp)
    2ce8:	00c12983          	lw	s3,12(sp)
    2cec:	00812a03          	lw	s4,8(sp)
    2cf0:	00412a83          	lw	s5,4(sp)
    2cf4:	02010113          	addi	sp,sp,32
    2cf8:	884fe06f          	j	d7c <room_exits.constprop.0>
    2cfc:	03ca2503          	lw	a0,60(s4)
    2d00:	000055b7          	lui	a1,0x5
    2d04:	74c58593          	addi	a1,a1,1868 # 574c <__global_pointer+0xb53>
    2d08:	840fe0ef          	jal	d48 <strcmp>
    2d0c:	0e051663          	bnez	a0,2df8 <talk_to_npc+0x22c>
    2d10:	00048513          	mv	a0,s1
    2d14:	01612023          	sw	s6,0(sp)
    2d18:	c55fd0ef          	jal	96c <print>
    2d1c:	03ca2503          	lw	a0,60(s4)
    2d20:	00005437          	lui	s0,0x5
    2d24:	00100913          	li	s2,1
    2d28:	c45fd0ef          	jal	96c <print>
    2d2c:	00005537          	lui	a0,0x5
    2d30:	dc850513          	addi	a0,a0,-568 # 4dc8 <__global_pointer+0x1cf>
    2d34:	c39fd0ef          	jal	96c <print>
    2d38:	040a2503          	lw	a0,64(s4)
    2d3c:	00200b13          	li	s6,2
    2d40:	c2dfd0ef          	jal	96c <print>
    2d44:	00048513          	mv	a0,s1
    2d48:	c25fd0ef          	jal	96c <print>
    2d4c:	00005537          	lui	a0,0x5
    2d50:	77c50513          	addi	a0,a0,1916 # 577c <__global_pointer+0xb83>
    2d54:	c19fd0ef          	jal	96c <print>
    2d58:	010aa503          	lw	a0,16(s5)
    2d5c:	c49fd0ef          	jal	9a4 <print_dec>
    2d60:	00048513          	mv	a0,s1
    2d64:	c09fd0ef          	jal	96c <print>
    2d68:	044a2503          	lw	a0,68(s4)
    2d6c:	01800493          	li	s1,24
    2d70:	bfdfd0ef          	jal	96c <print>
    2d74:	048a2503          	lw	a0,72(s4)
    2d78:	bf5fd0ef          	jal	96c <print>
    2d7c:	86042a23          	sw	zero,-1932(s0) # 4874 <option>
    2d80:	00a00513          	li	a0,10
    2d84:	ba5fd0ef          	jal	928 <delay>
    2d88:	87442783          	lw	a5,-1932(s0)
    2d8c:	fe078ae3          	beqz	a5,2d80 <talk_to_npc+0x1b4>
    2d90:	010aa703          	lw	a4,16(s5)
    2d94:	1ce4d663          	bge	s1,a4,2f60 <talk_to_npc+0x394>
    2d98:	1f278463          	beq	a5,s2,2f80 <talk_to_npc+0x3b4>
    2d9c:	ff6790e3          	bne	a5,s6,2d7c <talk_to_npc+0x1b0>
    2da0:	7d000513          	li	a0,2000
    2da4:	86042a23          	sw	zero,-1932(s0)
    2da8:	b81fd0ef          	jal	928 <delay>
    2dac:	00005537          	lui	a0,0x5
    2db0:	7b050513          	addi	a0,a0,1968 # 57b0 <__global_pointer+0xbb7>
    2db4:	bb9fd0ef          	jal	96c <print>
    2db8:	050a2503          	lw	a0,80(s4)
    2dbc:	bb1fd0ef          	jal	96c <print>
    2dc0:	00001537          	lui	a0,0x1
    2dc4:	fa050513          	addi	a0,a0,-96 # fa0 <combat.part.0+0x58>
    2dc8:	b61fd0ef          	jal	928 <delay>
    2dcc:	00005537          	lui	a0,0x5
    2dd0:	7f050513          	addi	a0,a0,2032 # 57f0 <__global_pointer+0xbf7>
    2dd4:	b99fd0ef          	jal	96c <print>
    2dd8:	87442783          	lw	a5,-1932(s0)
    2ddc:	00079a63          	bnez	a5,2df0 <talk_to_npc+0x224>
    2de0:	00a00513          	li	a0,10
    2de4:	b45fd0ef          	jal	928 <delay>
    2de8:	87442783          	lw	a5,-1932(s0)
    2dec:	fe078ae3          	beqz	a5,2de0 <talk_to_npc+0x214>
    2df0:	00012b03          	lw	s6,0(sp)
    2df4:	ee1ff06f          	j	2cd4 <talk_to_npc+0x108>
    2df8:	03ca2503          	lw	a0,60(s4)
    2dfc:	000055b7          	lui	a1,0x5
    2e00:	75858593          	addi	a1,a1,1880 # 5758 <__global_pointer+0xb5f>
    2e04:	f45fd0ef          	jal	d48 <strcmp>
    2e08:	10050a63          	beqz	a0,2f1c <talk_to_npc+0x350>
    2e0c:	03ca2503          	lw	a0,60(s4)
    2e10:	000055b7          	lui	a1,0x5
    2e14:	6f858593          	addi	a1,a1,1784 # 56f8 <__global_pointer+0xaff>
    2e18:	f31fd0ef          	jal	d48 <strcmp>
    2e1c:	0c051e63          	bnez	a0,2ef8 <talk_to_npc+0x32c>
    2e20:	020a2783          	lw	a5,32(s4)
    2e24:	26f05463          	blez	a5,308c <talk_to_npc+0x4c0>
    2e28:	00048513          	mv	a0,s1
    2e2c:	01612023          	sw	s6,0(sp)
    2e30:	b3dfd0ef          	jal	96c <print>
    2e34:	03ca2503          	lw	a0,60(s4)
    2e38:	00005437          	lui	s0,0x5
    2e3c:	03100913          	li	s2,49
    2e40:	b2dfd0ef          	jal	96c <print>
    2e44:	00005537          	lui	a0,0x5
    2e48:	dc850513          	addi	a0,a0,-568 # 4dc8 <__global_pointer+0x1cf>
    2e4c:	b21fd0ef          	jal	96c <print>
    2e50:	040a2503          	lw	a0,64(s4)
    2e54:	00100493          	li	s1,1
    2e58:	00200b13          	li	s6,2
    2e5c:	b11fd0ef          	jal	96c <print>
    2e60:	044a2503          	lw	a0,68(s4)
    2e64:	b09fd0ef          	jal	96c <print>
    2e68:	048a2503          	lw	a0,72(s4)
    2e6c:	b01fd0ef          	jal	96c <print>
    2e70:	86042a23          	sw	zero,-1932(s0) # 4874 <option>
    2e74:	00a00513          	li	a0,10
    2e78:	ab1fd0ef          	jal	928 <delay>
    2e7c:	87442783          	lw	a5,-1932(s0)
    2e80:	fe078ae3          	beqz	a5,2e74 <talk_to_npc+0x2a8>
    2e84:	010aa703          	lw	a4,16(s5)
    2e88:	1ee95263          	bge	s2,a4,306c <talk_to_npc+0x4a0>
    2e8c:	18978063          	beq	a5,s1,300c <talk_to_npc+0x440>
    2e90:	ff6790e3          	bne	a5,s6,2e70 <talk_to_npc+0x2a4>
    2e94:	c5098513          	addi	a0,s3,-944
    2e98:	86042a23          	sw	zero,-1932(s0)
    2e9c:	ad1fd0ef          	jal	96c <print>
    2ea0:	050a2503          	lw	a0,80(s4)
    2ea4:	ac9fd0ef          	jal	96c <print>
    2ea8:	00001537          	lui	a0,0x1
    2eac:	fa050513          	addi	a0,a0,-96 # fa0 <combat.part.0+0x58>
    2eb0:	a79fd0ef          	jal	928 <delay>
    2eb4:	034a2783          	lw	a5,52(s4)
    2eb8:	00078c63          	beqz	a5,2ed0 <talk_to_npc+0x304>
    2ebc:	020a2783          	lw	a5,32(s4)
    2ec0:	00f05863          	blez	a5,2ed0 <talk_to_npc+0x304>
    2ec4:	000a8593          	mv	a1,s5
    2ec8:	000a0513          	mv	a0,s4
    2ecc:	87cfe0ef          	jal	f48 <combat.part.0>
    2ed0:	000057b7          	lui	a5,0x5
    2ed4:	86c7a703          	lw	a4,-1940(a5) # 486c <next_room>
    2ed8:	f0070ce3          	beqz	a4,2df0 <talk_to_npc+0x224>
    2edc:	8607a623          	sw	zero,-1940(a5)
    2ee0:	000047b7          	lui	a5,0x4
    2ee4:	3fc7a603          	lw	a2,1020(a5) # 43fc <current_room>
    2ee8:	00012b03          	lw	s6,0(sp)
    2eec:	000056b7          	lui	a3,0x5
    2ef0:	3ee7ae23          	sw	a4,1020(a5)
    2ef4:	86c6a423          	sw	a2,-1944(a3) # 4868 <prev_room>
    2ef8:	01c12083          	lw	ra,28(sp)
    2efc:	01812403          	lw	s0,24(sp)
    2f00:	01412483          	lw	s1,20(sp)
    2f04:	01012903          	lw	s2,16(sp)
    2f08:	00c12983          	lw	s3,12(sp)
    2f0c:	00812a03          	lw	s4,8(sp)
    2f10:	00412a83          	lw	s5,4(sp)
    2f14:	02010113          	addi	sp,sp,32
    2f18:	00008067          	ret
    2f1c:	00048513          	mv	a0,s1
    2f20:	a4dfd0ef          	jal	96c <print>
    2f24:	03ca2503          	lw	a0,60(s4)
    2f28:	a45fd0ef          	jal	96c <print>
    2f2c:	00005537          	lui	a0,0x5
    2f30:	dc850513          	addi	a0,a0,-568 # 4dc8 <__global_pointer+0x1cf>
    2f34:	a39fd0ef          	jal	96c <print>
    2f38:	040a2503          	lw	a0,64(s4)
    2f3c:	a31fd0ef          	jal	96c <print>
    2f40:	00048513          	mv	a0,s1
    2f44:	a29fd0ef          	jal	96c <print>
    2f48:	00001537          	lui	a0,0x1
    2f4c:	bb850513          	addi	a0,a0,-1096 # bb8 <handle_exception+0xf8>
    2f50:	9d9fd0ef          	jal	928 <delay>
    2f54:	000a8513          	mv	a0,s5
    2f58:	f19fe0ef          	jal	1e70 <shop>
    2f5c:	d79ff06f          	j	2cd4 <talk_to_npc+0x108>
    2f60:	00200713          	li	a4,2
    2f64:	e2e78ee3          	beq	a5,a4,2da0 <talk_to_npc+0x1d4>
    2f68:	00005537          	lui	a0,0x5
    2f6c:	7d050513          	addi	a0,a0,2000 # 57d0 <__global_pointer+0xbd7>
    2f70:	9fdfd0ef          	jal	96c <print>
    2f74:	7d000513          	li	a0,2000
    2f78:	9b1fd0ef          	jal	928 <delay>
    2f7c:	e25ff06f          	j	2da0 <talk_to_npc+0x1d4>
    2f80:	fe770713          	addi	a4,a4,-25
    2f84:	00005537          	lui	a0,0x5
    2f88:	00eaa823          	sw	a4,16(s5)
    2f8c:	78c50513          	addi	a0,a0,1932 # 578c <__global_pointer+0xb93>
    2f90:	86042a23          	sw	zero,-1932(s0)
    2f94:	9d9fd0ef          	jal	96c <print>
    2f98:	010aa503          	lw	a0,16(s5)
    2f9c:	a09fd0ef          	jal	9a4 <print_dec>
    2fa0:	00005537          	lui	a0,0x5
    2fa4:	7a850513          	addi	a0,a0,1960 # 57a8 <__global_pointer+0xbaf>
    2fa8:	9c5fd0ef          	jal	96c <print>
    2fac:	00001537          	lui	a0,0x1
    2fb0:	fa050513          	addi	a0,a0,-96 # fa0 <combat.part.0+0x58>
    2fb4:	975fd0ef          	jal	928 <delay>
    2fb8:	00005537          	lui	a0,0x5
    2fbc:	7b050513          	addi	a0,a0,1968 # 57b0 <__global_pointer+0xbb7>
    2fc0:	9adfd0ef          	jal	96c <print>
    2fc4:	04ca2503          	lw	a0,76(s4)
    2fc8:	9a5fd0ef          	jal	96c <print>
    2fcc:	c5098513          	addi	a0,s3,-944
    2fd0:	99dfd0ef          	jal	96c <print>
    2fd4:	00002537          	lui	a0,0x2
    2fd8:	f4050513          	addi	a0,a0,-192 # 1f40 <shop+0xd0>
    2fdc:	94dfd0ef          	jal	928 <delay>
    2fe0:	00005537          	lui	a0,0x5
    2fe4:	7c050513          	addi	a0,a0,1984 # 57c0 <__global_pointer+0xbc7>
    2fe8:	985fd0ef          	jal	96c <print>
    2fec:	87442783          	lw	a5,-1932(s0)
    2ff0:	e00790e3          	bnez	a5,2df0 <talk_to_npc+0x224>
    2ff4:	00a00513          	li	a0,10
    2ff8:	931fd0ef          	jal	928 <delay>
    2ffc:	87442783          	lw	a5,-1932(s0)
    3000:	fe078ae3          	beqz	a5,2ff4 <talk_to_npc+0x428>
    3004:	00012b03          	lw	s6,0(sp)
    3008:	ccdff06f          	j	2cd4 <talk_to_npc+0x108>
    300c:	fce70713          	addi	a4,a4,-50
    3010:	00006537          	lui	a0,0x6
    3014:	00eaa823          	sw	a4,16(s5)
    3018:	82850513          	addi	a0,a0,-2008 # 5828 <__global_pointer+0xc2f>
    301c:	86042a23          	sw	zero,-1932(s0)
    3020:	94dfd0ef          	jal	96c <print>
    3024:	010aa503          	lw	a0,16(s5)
    3028:	97dfd0ef          	jal	9a4 <print_dec>
    302c:	00005537          	lui	a0,0x5
    3030:	7a850513          	addi	a0,a0,1960 # 57a8 <__global_pointer+0xbaf>
    3034:	939fd0ef          	jal	96c <print>
    3038:	7d000513          	li	a0,2000
    303c:	8edfd0ef          	jal	928 <delay>
    3040:	00006537          	lui	a0,0x6
    3044:	84450513          	addi	a0,a0,-1980 # 5844 <__global_pointer+0xc4b>
    3048:	925fd0ef          	jal	96c <print>
    304c:	04ca2503          	lw	a0,76(s4)
    3050:	91dfd0ef          	jal	96c <print>
    3054:	00001537          	lui	a0,0x1
    3058:	fa050513          	addi	a0,a0,-96 # fa0 <combat.part.0+0x58>
    305c:	8cdfd0ef          	jal	928 <delay>
    3060:	000a0513          	mv	a0,s4
    3064:	00012b03          	lw	s6,0(sp)
    3068:	c71ff06f          	j	2cd8 <talk_to_npc+0x10c>
    306c:	00200713          	li	a4,2
    3070:	e2e782e3          	beq	a5,a4,2e94 <talk_to_npc+0x2c8>
    3074:	00005537          	lui	a0,0x5
    3078:	7d050513          	addi	a0,a0,2000 # 57d0 <__global_pointer+0xbd7>
    307c:	8f1fd0ef          	jal	96c <print>
    3080:	3e800513          	li	a0,1000
    3084:	8a5fd0ef          	jal	928 <delay>
    3088:	e0dff06f          	j	2e94 <talk_to_npc+0x2c8>
    308c:	00005537          	lui	a0,0x5
    3090:	7fc50513          	addi	a0,a0,2044 # 57fc <__global_pointer+0xc03>
    3094:	8d9fd0ef          	jal	96c <print>
    3098:	7d000513          	li	a0,2000
    309c:	88dfd0ef          	jal	928 <delay>
    30a0:	00005537          	lui	a0,0x5
    30a4:	7f050513          	addi	a0,a0,2032 # 57f0 <__global_pointer+0xbf7>
    30a8:	8c5fd0ef          	jal	96c <print>
    30ac:	00005437          	lui	s0,0x5
    30b0:	87442783          	lw	a5,-1932(s0) # 4874 <option>
    30b4:	c20790e3          	bnez	a5,2cd4 <talk_to_npc+0x108>
    30b8:	00a00513          	li	a0,10
    30bc:	86dfd0ef          	jal	928 <delay>
    30c0:	87442783          	lw	a5,-1932(s0)
    30c4:	fe078ae3          	beqz	a5,30b8 <talk_to_npc+0x4ec>
    30c8:	c0dff06f          	j	2cd4 <talk_to_npc+0x108>

000030cc <win>:
    30cc:	ff010113          	addi	sp,sp,-16
    30d0:	00912223          	sw	s1,4(sp)
    30d4:	000054b7          	lui	s1,0x5
    30d8:	00812423          	sw	s0,8(sp)
    30dc:	00112623          	sw	ra,12(sp)
    30e0:	c5048493          	addi	s1,s1,-944 # 4c50 <__global_pointer+0x57>
    30e4:	02800413          	li	s0,40
    30e8:	00048513          	mv	a0,s1
    30ec:	fff40413          	addi	s0,s0,-1
    30f0:	87dfd0ef          	jal	96c <print>
    30f4:	fe041ae3          	bnez	s0,30e8 <win+0x1c>
    30f8:	000054b7          	lui	s1,0x5
    30fc:	8844a583          	lw	a1,-1916(s1) # 4884 <mytime>
    3100:	00006437          	lui	s0,0x6
    3104:	32440513          	addi	a0,s0,804 # 6324 <__global_pointer+0x172b>
    3108:	f54fd0ef          	jal	85c <time2string>
    310c:	00006537          	lui	a0,0x6
    3110:	9ac50513          	addi	a0,a0,-1620 # 59ac <__global_pointer+0xdb3>
    3114:	859fd0ef          	jal	96c <print>
    3118:	00001537          	lui	a0,0x1
    311c:	fa050513          	addi	a0,a0,-96 # fa0 <combat.part.0+0x58>
    3120:	809fd0ef          	jal	928 <delay>
    3124:	00006537          	lui	a0,0x6
    3128:	a0850513          	addi	a0,a0,-1528 # 5a08 <__global_pointer+0xe0f>
    312c:	841fd0ef          	jal	96c <print>
    3130:	00001537          	lui	a0,0x1
    3134:	fa050513          	addi	a0,a0,-96 # fa0 <combat.part.0+0x58>
    3138:	ff0fd0ef          	jal	928 <delay>
    313c:	00006537          	lui	a0,0x6
    3140:	a5c50513          	addi	a0,a0,-1444 # 5a5c <__global_pointer+0xe63>
    3144:	829fd0ef          	jal	96c <print>
    3148:	00001537          	lui	a0,0x1
    314c:	fa050513          	addi	a0,a0,-96 # fa0 <combat.part.0+0x58>
    3150:	fd8fd0ef          	jal	928 <delay>
    3154:	00006537          	lui	a0,0x6
    3158:	ad050513          	addi	a0,a0,-1328 # 5ad0 <__global_pointer+0xed7>
    315c:	811fd0ef          	jal	96c <print>
    3160:	00001537          	lui	a0,0x1
    3164:	fa050513          	addi	a0,a0,-96 # fa0 <combat.part.0+0x58>
    3168:	fc0fd0ef          	jal	928 <delay>
    316c:	00006537          	lui	a0,0x6
    3170:	b1050513          	addi	a0,a0,-1264 # 5b10 <__global_pointer+0xf17>
    3174:	ff8fd0ef          	jal	96c <print>
    3178:	00001537          	lui	a0,0x1
    317c:	fa050513          	addi	a0,a0,-96 # fa0 <combat.part.0+0x58>
    3180:	fa8fd0ef          	jal	928 <delay>
    3184:	00006537          	lui	a0,0x6
    3188:	b5c50513          	addi	a0,a0,-1188 # 5b5c <__global_pointer+0xf63>
    318c:	fe0fd0ef          	jal	96c <print>
    3190:	00001537          	lui	a0,0x1
    3194:	fa050513          	addi	a0,a0,-96 # fa0 <combat.part.0+0x58>
    3198:	f90fd0ef          	jal	928 <delay>
    319c:	00006537          	lui	a0,0x6
    31a0:	bd850513          	addi	a0,a0,-1064 # 5bd8 <__global_pointer+0xfdf>
    31a4:	fc8fd0ef          	jal	96c <print>
    31a8:	00006537          	lui	a0,0x6
    31ac:	bf850513          	addi	a0,a0,-1032 # 5bf8 <__global_pointer+0xfff>
    31b0:	fbcfd0ef          	jal	96c <print>
    31b4:	32440513          	addi	a0,s0,804
    31b8:	fb4fd0ef          	jal	96c <print>
    31bc:	00001537          	lui	a0,0x1
    31c0:	fa050513          	addi	a0,a0,-96 # fa0 <combat.part.0+0x58>
    31c4:	f64fd0ef          	jal	928 <delay>
    31c8:	00006537          	lui	a0,0x6
    31cc:	c0c50513          	addi	a0,a0,-1012 # 5c0c <__global_pointer+0x1013>
    31d0:	f9cfd0ef          	jal	96c <print>
    31d4:	00001537          	lui	a0,0x1
    31d8:	fa050513          	addi	a0,a0,-96 # fa0 <combat.part.0+0x58>
    31dc:	f4cfd0ef          	jal	928 <delay>
    31e0:	00006537          	lui	a0,0x6
    31e4:	04000437          	lui	s0,0x4000
    31e8:	c1850513          	addi	a0,a0,-1000 # 5c18 <__global_pointer+0x101f>
    31ec:	f80fd0ef          	jal	96c <print>
    31f0:	0d042783          	lw	a5,208(s0) # 40000d0 <_stack_end+0x3ef98f4>
    31f4:	0c042823          	sw	zero,208(s0)
    31f8:	0d040413          	addi	s0,s0,208
    31fc:	0017f793          	andi	a5,a5,1
    3200:	00079e63          	bnez	a5,321c <win+0x150>
    3204:	00a00513          	li	a0,10
    3208:	f20fd0ef          	jal	928 <delay>
    320c:	00042783          	lw	a5,0(s0)
    3210:	00042023          	sw	zero,0(s0)
    3214:	0017f793          	andi	a5,a5,1
    3218:	fe0786e3          	beqz	a5,3204 <win+0x138>
    321c:	000057b7          	lui	a5,0x5
    3220:	8807a023          	sw	zero,-1920(a5) # 4880 <hourtime>
    3224:	000057b7          	lui	a5,0x5
    3228:	00812403          	lw	s0,8(sp)
    322c:	8607ae23          	sw	zero,-1924(a5) # 487c <timeoutcount>
    3230:	000057b7          	lui	a5,0x5
    3234:	00c12083          	lw	ra,12(sp)
    3238:	8804a223          	sw	zero,-1916(s1)
    323c:	8607aa23          	sw	zero,-1932(a5) # 4874 <option>
    3240:	00412483          	lw	s1,4(sp)
    3244:	00100793          	li	a5,1
    3248:	00004537          	lui	a0,0x4
    324c:	000045b7          	lui	a1,0x4
    3250:	00005637          	lui	a2,0x5
    3254:	000056b7          	lui	a3,0x5
    3258:	00005737          	lui	a4,0x5
    325c:	40f52023          	sw	a5,1024(a0) # 4400 <alive>
    3260:	3ef5ae23          	sw	a5,1020(a1) # 43fc <current_room>
    3264:	86062823          	sw	zero,-1936(a2) # 4870 <in_combat>
    3268:	8606a623          	sw	zero,-1940(a3) # 486c <next_room>
    326c:	86072423          	sw	zero,-1944(a4) # 4868 <prev_room>
    3270:	01010113          	addi	sp,sp,16
    3274:	6150006f          	j	4088 <main>

00003278 <room_actions>:
    3278:	fa010113          	addi	sp,sp,-96
    327c:	05212823          	sw	s2,80(sp)
    3280:	00050913          	mv	s2,a0
    3284:	05312623          	sw	s3,76(sp)
    3288:	00492503          	lw	a0,4(s2)
    328c:	000059b7          	lui	s3,0x5
    3290:	15898993          	addi	s3,s3,344 # 5158 <__global_pointer+0x55f>
    3294:	05512223          	sw	s5,68(sp)
    3298:	05612023          	sw	s6,64(sp)
    329c:	03712e23          	sw	s7,60(sp)
    32a0:	03812c23          	sw	s8,56(sp)
    32a4:	00005ab7          	lui	s5,0x5
    32a8:	00005b37          	lui	s6,0x5
    32ac:	00005bb7          	lui	s7,0x5
    32b0:	00058c13          	mv	s8,a1
    32b4:	00098593          	mv	a1,s3
    32b8:	05412423          	sw	s4,72(sp)
    32bc:	04112e23          	sw	ra,92(sp)
    32c0:	04812c23          	sw	s0,88(sp)
    32c4:	04912a23          	sw	s1,84(sp)
    32c8:	280a8a93          	addi	s5,s5,640 # 5280 <__global_pointer+0x687>
    32cc:	3a0b0b13          	addi	s6,s6,928 # 53a0 <__global_pointer+0x7a7>
    32d0:	434b8b93          	addi	s7,s7,1076 # 5434 <__global_pointer+0x83b>
    32d4:	00005a37          	lui	s4,0x5
    32d8:	a71fd0ef          	jal	d48 <strcmp>
    32dc:	0e050863          	beqz	a0,33cc <room_actions+0x154>
    32e0:	00492503          	lw	a0,4(s2)
    32e4:	1e8a0593          	addi	a1,s4,488 # 51e8 <__global_pointer+0x5ef>
    32e8:	a61fd0ef          	jal	d48 <strcmp>
    32ec:	14050463          	beqz	a0,3434 <room_actions+0x1bc>
    32f0:	00492503          	lw	a0,4(s2)
    32f4:	000a8593          	mv	a1,s5
    32f8:	a51fd0ef          	jal	d48 <strcmp>
    32fc:	1a050063          	beqz	a0,349c <room_actions+0x224>
    3300:	00492503          	lw	a0,4(s2)
    3304:	000b0593          	mv	a1,s6
    3308:	a41fd0ef          	jal	d48 <strcmp>
    330c:	1e050c63          	beqz	a0,3504 <room_actions+0x28c>
    3310:	00492503          	lw	a0,4(s2)
    3314:	000b8593          	mv	a1,s7
    3318:	a31fd0ef          	jal	d48 <strcmp>
    331c:	24050863          	beqz	a0,356c <room_actions+0x2f4>
    3320:	00492503          	lw	a0,4(s2)
    3324:	000055b7          	lui	a1,0x5
    3328:	49858593          	addi	a1,a1,1176 # 5498 <__global_pointer+0x89f>
    332c:	a1dfd0ef          	jal	d48 <strcmp>
    3330:	2a050463          	beqz	a0,35d8 <room_actions+0x360>
    3334:	00492503          	lw	a0,4(s2)
    3338:	000055b7          	lui	a1,0x5
    333c:	57858593          	addi	a1,a1,1400 # 5578 <__global_pointer+0x97f>
    3340:	a09fd0ef          	jal	d48 <strcmp>
    3344:	30050c63          	beqz	a0,365c <room_actions+0x3e4>
    3348:	00492503          	lw	a0,4(s2)
    334c:	000055b7          	lui	a1,0x5
    3350:	60858593          	addi	a1,a1,1544 # 5608 <__global_pointer+0xa0f>
    3354:	9f5fd0ef          	jal	d48 <strcmp>
    3358:	4c051a63          	bnez	a0,382c <room_actions+0x5b4>
    335c:	00006537          	lui	a0,0x6
    3360:	07850513          	addi	a0,a0,120 # 6078 <__global_pointer+0x147f>
    3364:	00005437          	lui	s0,0x5
    3368:	e04fd0ef          	jal	96c <print>
    336c:	86042a23          	sw	zero,-1932(s0) # 4874 <option>
    3370:	00a00513          	li	a0,10
    3374:	db4fd0ef          	jal	928 <delay>
    3378:	87442783          	lw	a5,-1932(s0)
    337c:	fe078ae3          	beqz	a5,3370 <room_actions+0xf8>
    3380:	00100713          	li	a4,1
    3384:	64e78463          	beq	a5,a4,39cc <room_actions+0x754>
    3388:	000054b7          	lui	s1,0x5
    338c:	86042a23          	sw	zero,-1932(s0)
    3390:	c5048493          	addi	s1,s1,-944 # 4c50 <__global_pointer+0x57>
    3394:	02800413          	li	s0,40
    3398:	00048513          	mv	a0,s1
    339c:	fff40413          	addi	s0,s0,-1
    33a0:	dccfd0ef          	jal	96c <print>
    33a4:	fe041ae3          	bnez	s0,3398 <room_actions+0x120>
    33a8:	00892503          	lw	a0,8(s2)
    33ac:	dc0fd0ef          	jal	96c <print>
    33b0:	00006537          	lui	a0,0x6
    33b4:	8ac50513          	addi	a0,a0,-1876 # 58ac <__global_pointer+0xcb3>
    33b8:	db4fd0ef          	jal	96c <print>
    33bc:	00492503          	lw	a0,4(s2)
    33c0:	00098593          	mv	a1,s3
    33c4:	985fd0ef          	jal	d48 <strcmp>
    33c8:	f0051ce3          	bnez	a0,32e0 <room_actions+0x68>
    33cc:	00006537          	lui	a0,0x6
    33d0:	c4850513          	addi	a0,a0,-952 # 5c48 <__global_pointer+0x104f>
    33d4:	d98fd0ef          	jal	96c <print>
    33d8:	00006537          	lui	a0,0x6
    33dc:	c6450513          	addi	a0,a0,-924 # 5c64 <__global_pointer+0x106b>
    33e0:	00005437          	lui	s0,0x5
    33e4:	d88fd0ef          	jal	96c <print>
    33e8:	86042a23          	sw	zero,-1932(s0) # 4874 <option>
    33ec:	00a00513          	li	a0,10
    33f0:	d38fd0ef          	jal	928 <delay>
    33f4:	87442783          	lw	a5,-1932(s0)
    33f8:	fe078ae3          	beqz	a5,33ec <room_actions+0x174>
    33fc:	00100713          	li	a4,1
    3400:	5ae78663          	beq	a5,a4,39ac <room_actions+0x734>
    3404:	00200713          	li	a4,2
    3408:	f8e790e3          	bne	a5,a4,3388 <room_actions+0x110>
    340c:	00006537          	lui	a0,0x6
    3410:	c9850513          	addi	a0,a0,-872 # 5c98 <__global_pointer+0x109f>
    3414:	d58fd0ef          	jal	96c <print>
    3418:	00090513          	mv	a0,s2
    341c:	86042a23          	sw	zero,-1932(s0)
    3420:	95dfd0ef          	jal	d7c <room_exits.constprop.0>
    3424:	00492503          	lw	a0,4(s2)
    3428:	1e8a0593          	addi	a1,s4,488
    342c:	91dfd0ef          	jal	d48 <strcmp>
    3430:	ec0510e3          	bnez	a0,32f0 <room_actions+0x78>
    3434:	00006537          	lui	a0,0x6
    3438:	cb050513          	addi	a0,a0,-848 # 5cb0 <__global_pointer+0x10b7>
    343c:	d30fd0ef          	jal	96c <print>
    3440:	00006537          	lui	a0,0x6
    3444:	c6450513          	addi	a0,a0,-924 # 5c64 <__global_pointer+0x106b>
    3448:	00005437          	lui	s0,0x5
    344c:	d20fd0ef          	jal	96c <print>
    3450:	86042a23          	sw	zero,-1932(s0) # 4874 <option>
    3454:	00a00513          	li	a0,10
    3458:	cd0fd0ef          	jal	928 <delay>
    345c:	87442783          	lw	a5,-1932(s0)
    3460:	fe078ae3          	beqz	a5,3454 <room_actions+0x1dc>
    3464:	00100713          	li	a4,1
    3468:	44e78e63          	beq	a5,a4,38c4 <room_actions+0x64c>
    346c:	00200713          	li	a4,2
    3470:	f0e79ce3          	bne	a5,a4,3388 <room_actions+0x110>
    3474:	00006537          	lui	a0,0x6
    3478:	c9850513          	addi	a0,a0,-872 # 5c98 <__global_pointer+0x109f>
    347c:	cf0fd0ef          	jal	96c <print>
    3480:	00090513          	mv	a0,s2
    3484:	86042a23          	sw	zero,-1932(s0)
    3488:	8f5fd0ef          	jal	d7c <room_exits.constprop.0>
    348c:	00492503          	lw	a0,4(s2)
    3490:	000a8593          	mv	a1,s5
    3494:	8b5fd0ef          	jal	d48 <strcmp>
    3498:	e60514e3          	bnez	a0,3300 <room_actions+0x88>
    349c:	00006537          	lui	a0,0x6
    34a0:	d3850513          	addi	a0,a0,-712 # 5d38 <__global_pointer+0x113f>
    34a4:	cc8fd0ef          	jal	96c <print>
    34a8:	00006537          	lui	a0,0x6
    34ac:	c6450513          	addi	a0,a0,-924 # 5c64 <__global_pointer+0x106b>
    34b0:	00005437          	lui	s0,0x5
    34b4:	cb8fd0ef          	jal	96c <print>
    34b8:	86042a23          	sw	zero,-1932(s0) # 4874 <option>
    34bc:	00a00513          	li	a0,10
    34c0:	c68fd0ef          	jal	928 <delay>
    34c4:	87442783          	lw	a5,-1932(s0)
    34c8:	fe078ae3          	beqz	a5,34bc <room_actions+0x244>
    34cc:	00100713          	li	a4,1
    34d0:	44e78063          	beq	a5,a4,3910 <room_actions+0x698>
    34d4:	00200713          	li	a4,2
    34d8:	eae798e3          	bne	a5,a4,3388 <room_actions+0x110>
    34dc:	00006537          	lui	a0,0x6
    34e0:	c9850513          	addi	a0,a0,-872 # 5c98 <__global_pointer+0x109f>
    34e4:	86042a23          	sw	zero,-1932(s0)
    34e8:	c84fd0ef          	jal	96c <print>
    34ec:	00090513          	mv	a0,s2
    34f0:	88dfd0ef          	jal	d7c <room_exits.constprop.0>
    34f4:	00492503          	lw	a0,4(s2)
    34f8:	000b0593          	mv	a1,s6
    34fc:	84dfd0ef          	jal	d48 <strcmp>
    3500:	e00518e3          	bnez	a0,3310 <room_actions+0x98>
    3504:	00006537          	lui	a0,0x6
    3508:	e4c50513          	addi	a0,a0,-436 # 5e4c <__global_pointer+0x1253>
    350c:	c60fd0ef          	jal	96c <print>
    3510:	00006537          	lui	a0,0x6
    3514:	c6450513          	addi	a0,a0,-924 # 5c64 <__global_pointer+0x106b>
    3518:	00005437          	lui	s0,0x5
    351c:	c50fd0ef          	jal	96c <print>
    3520:	86042a23          	sw	zero,-1932(s0) # 4874 <option>
    3524:	00a00513          	li	a0,10
    3528:	c00fd0ef          	jal	928 <delay>
    352c:	87442783          	lw	a5,-1932(s0)
    3530:	fe078ae3          	beqz	a5,3524 <room_actions+0x2ac>
    3534:	00100713          	li	a4,1
    3538:	42e78a63          	beq	a5,a4,396c <room_actions+0x6f4>
    353c:	00200713          	li	a4,2
    3540:	e4e794e3          	bne	a5,a4,3388 <room_actions+0x110>
    3544:	00006537          	lui	a0,0x6
    3548:	c9850513          	addi	a0,a0,-872 # 5c98 <__global_pointer+0x109f>
    354c:	86042a23          	sw	zero,-1932(s0)
    3550:	c1cfd0ef          	jal	96c <print>
    3554:	00090513          	mv	a0,s2
    3558:	825fd0ef          	jal	d7c <room_exits.constprop.0>
    355c:	00492503          	lw	a0,4(s2)
    3560:	000b8593          	mv	a1,s7
    3564:	fe4fd0ef          	jal	d48 <strcmp>
    3568:	da051ce3          	bnez	a0,3320 <room_actions+0xa8>
    356c:	00006537          	lui	a0,0x6
    3570:	e9050513          	addi	a0,a0,-368 # 5e90 <__global_pointer+0x1297>
    3574:	bf8fd0ef          	jal	96c <print>
    3578:	00006537          	lui	a0,0x6
    357c:	c6450513          	addi	a0,a0,-924 # 5c64 <__global_pointer+0x106b>
    3580:	00005437          	lui	s0,0x5
    3584:	be8fd0ef          	jal	96c <print>
    3588:	86042a23          	sw	zero,-1932(s0) # 4874 <option>
    358c:	00a00513          	li	a0,10
    3590:	b98fd0ef          	jal	928 <delay>
    3594:	87442783          	lw	a5,-1932(s0)
    3598:	fe078ae3          	beqz	a5,358c <room_actions+0x314>
    359c:	00100713          	li	a4,1
    35a0:	3ee78663          	beq	a5,a4,398c <room_actions+0x714>
    35a4:	00200713          	li	a4,2
    35a8:	dee790e3          	bne	a5,a4,3388 <room_actions+0x110>
    35ac:	00006537          	lui	a0,0x6
    35b0:	c9850513          	addi	a0,a0,-872 # 5c98 <__global_pointer+0x109f>
    35b4:	86042a23          	sw	zero,-1932(s0)
    35b8:	bb4fd0ef          	jal	96c <print>
    35bc:	00090513          	mv	a0,s2
    35c0:	fbcfd0ef          	jal	d7c <room_exits.constprop.0>
    35c4:	00492503          	lw	a0,4(s2)
    35c8:	000055b7          	lui	a1,0x5
    35cc:	49858593          	addi	a1,a1,1176 # 5498 <__global_pointer+0x89f>
    35d0:	f78fd0ef          	jal	d48 <strcmp>
    35d4:	d60510e3          	bnez	a0,3334 <room_actions+0xbc>
    35d8:	00006537          	lui	a0,0x6
    35dc:	ed450513          	addi	a0,a0,-300 # 5ed4 <__global_pointer+0x12db>
    35e0:	b8cfd0ef          	jal	96c <print>
    35e4:	00006537          	lui	a0,0x6
    35e8:	ef450513          	addi	a0,a0,-268 # 5ef4 <__global_pointer+0x12fb>
    35ec:	00005437          	lui	s0,0x5
    35f0:	b7cfd0ef          	jal	96c <print>
    35f4:	86042a23          	sw	zero,-1932(s0) # 4874 <option>
    35f8:	00a00513          	li	a0,10
    35fc:	b2cfd0ef          	jal	928 <delay>
    3600:	87442783          	lw	a5,-1932(s0)
    3604:	fe078ae3          	beqz	a5,35f8 <room_actions+0x380>
    3608:	00100713          	li	a4,1
    360c:	4ae78063          	beq	a5,a4,3aac <room_actions+0x834>
    3610:	00200713          	li	a4,2
    3614:	d6e79ae3          	bne	a5,a4,3388 <room_actions+0x110>
    3618:	00006537          	lui	a0,0x6
    361c:	c9850513          	addi	a0,a0,-872 # 5c98 <__global_pointer+0x109f>
    3620:	86042a23          	sw	zero,-1932(s0)
    3624:	b48fd0ef          	jal	96c <print>
    3628:	000047b7          	lui	a5,0x4
    362c:	3fc7a603          	lw	a2,1020(a5) # 43fc <current_room>
    3630:	00500593          	li	a1,5
    3634:	00492503          	lw	a0,4(s2)
    3638:	3eb7ae23          	sw	a1,1020(a5)
    363c:	000055b7          	lui	a1,0x5
    3640:	000056b7          	lui	a3,0x5
    3644:	00005737          	lui	a4,0x5
    3648:	57858593          	addi	a1,a1,1400 # 5578 <__global_pointer+0x97f>
    364c:	86c6a423          	sw	a2,-1944(a3) # 4868 <prev_room>
    3650:	86072623          	sw	zero,-1940(a4) # 486c <next_room>
    3654:	ef4fd0ef          	jal	d48 <strcmp>
    3658:	ce0518e3          	bnez	a0,3348 <room_actions+0xd0>
    365c:	00006537          	lui	a0,0x6
    3660:	f4c50513          	addi	a0,a0,-180 # 5f4c <__global_pointer+0x1353>
    3664:	00005437          	lui	s0,0x5
    3668:	b04fd0ef          	jal	96c <print>
    366c:	86042a23          	sw	zero,-1932(s0) # 4874 <option>
    3670:	00a00513          	li	a0,10
    3674:	ab4fd0ef          	jal	928 <delay>
    3678:	87442783          	lw	a5,-1932(s0)
    367c:	fe078ae3          	beqz	a5,3670 <room_actions+0x3f8>
    3680:	00100713          	li	a4,1
    3684:	d0e792e3          	bne	a5,a4,3388 <room_actions+0x110>
    3688:	00006537          	lui	a0,0x6
    368c:	f6450513          	addi	a0,a0,-156 # 5f64 <__global_pointer+0x136b>
    3690:	86042a23          	sw	zero,-1932(s0)
    3694:	ad8fd0ef          	jal	96c <print>
    3698:	00001537          	lui	a0,0x1
    369c:	fa050513          	addi	a0,a0,-96 # fa0 <combat.part.0+0x58>
    36a0:	a88fd0ef          	jal	928 <delay>
    36a4:	00006537          	lui	a0,0x6
    36a8:	fac50513          	addi	a0,a0,-84 # 5fac <__global_pointer+0x13b3>
    36ac:	ac0fd0ef          	jal	96c <print>
    36b0:	00006537          	lui	a0,0x6
    36b4:	ff450513          	addi	a0,a0,-12 # 5ff4 <__global_pointer+0x13fb>
    36b8:	ab4fd0ef          	jal	96c <print>
    36bc:	00001537          	lui	a0,0x1
    36c0:	38850513          	addi	a0,a0,904 # 1388 <combat.part.0+0x440>
    36c4:	a64fd0ef          	jal	928 <delay>
    36c8:	87442703          	lw	a4,-1932(s0)
    36cc:	00300793          	li	a5,3
    36d0:	48f70a63          	beq	a4,a5,3b64 <room_actions+0x8ec>
    36d4:	fe700593          	li	a1,-25
    36d8:	000c0513          	mv	a0,s8
    36dc:	afdfc0ef          	jal	1d8 <setP_hp>
    36e0:	00cc2583          	lw	a1,12(s8)
    36e4:	666666b7          	lui	a3,0x66666
    36e8:	66768693          	addi	a3,a3,1639 # 66666667 <_stack_end+0x6655fe8b>
    36ec:	02d596b3          	mulh	a3,a1,a3
    36f0:	00005737          	lui	a4,0x5
    36f4:	8a070713          	addi	a4,a4,-1888 # 48a0 <mytime+0x1c>
    36f8:	41f5d613          	srai	a2,a1,0x1f
    36fc:	00472e03          	lw	t3,4(a4)
    3700:	00872303          	lw	t1,8(a4)
    3704:	00c72883          	lw	a7,12(a4)
    3708:	01072803          	lw	a6,16(a4)
    370c:	01c12623          	sw	t3,12(sp)
    3710:	00612823          	sw	t1,16(sp)
    3714:	4026d693          	srai	a3,a3,0x2
    3718:	40c687b3          	sub	a5,a3,a2
    371c:	00279693          	slli	a3,a5,0x2
    3720:	00f686b3          	add	a3,a3,a5
    3724:	01112a23          	sw	a7,20(sp)
    3728:	00072f03          	lw	t5,0(a4)
    372c:	02072883          	lw	a7,32(a4)
    3730:	01472e83          	lw	t4,20(a4)
    3734:	01872e03          	lw	t3,24(a4)
    3738:	01c72303          	lw	t1,28(a4)
    373c:	00169693          	slli	a3,a3,0x1
    3740:	02472703          	lw	a4,36(a4)
    3744:	40d586b3          	sub	a3,a1,a3
    3748:	01012c23          	sw	a6,24(sp)
    374c:	00269693          	slli	a3,a3,0x2
    3750:	00810813          	addi	a6,sp,8
    3754:	03112423          	sw	a7,40(sp)
    3758:	02e12623          	sw	a4,44(sp)
    375c:	01e12423          	sw	t5,8(sp)
    3760:	01d12e23          	sw	t4,28(sp)
    3764:	03c12023          	sw	t3,32(sp)
    3768:	02612223          	sw	t1,36(sp)
    376c:	01068733          	add	a4,a3,a6
    3770:	00072683          	lw	a3,0(a4)
    3774:	000048b7          	lui	a7,0x4
    3778:	04000737          	lui	a4,0x4000
    377c:	40a8a023          	sw	a0,1024(a7) # 4400 <alive>
    3780:	04d72823          	sw	a3,80(a4) # 4000050 <_stack_end+0x3ef9874>
    3784:	00900713          	li	a4,9
    3788:	38b75663          	bge	a4,a1,3b14 <room_actions+0x89c>
    378c:	ccccd737          	lui	a4,0xccccd
    3790:	ccd70713          	addi	a4,a4,-819 # cccccccd <_stack_end+0xccbc64f1>
    3794:	02e7b733          	mulhu	a4,a5,a4
    3798:	04000537          	lui	a0,0x4000
    379c:	06300893          	li	a7,99
    37a0:	00375713          	srli	a4,a4,0x3
    37a4:	00271693          	slli	a3,a4,0x2
    37a8:	00e68733          	add	a4,a3,a4
    37ac:	00171713          	slli	a4,a4,0x1
    37b0:	40e78733          	sub	a4,a5,a4
    37b4:	00271713          	slli	a4,a4,0x2
    37b8:	01070733          	add	a4,a4,a6
    37bc:	00072783          	lw	a5,0(a4)
    37c0:	06f52023          	sw	a5,96(a0) # 4000060 <_stack_end+0x3ef9884>
    37c4:	3ab8c863          	blt	a7,a1,3b74 <room_actions+0x8fc>
    37c8:	040007b7          	lui	a5,0x4000
    37cc:	0ff00713          	li	a4,255
    37d0:	06e7a823          	sw	a4,112(a5) # 4000070 <_stack_end+0x3ef9894>
    37d4:	040007b7          	lui	a5,0x4000
    37d8:	0ff00693          	li	a3,255
    37dc:	08d7a023          	sw	a3,128(a5) # 4000080 <_stack_end+0x3ef98a4>
    37e0:	08900693          	li	a3,137
    37e4:	0ad7a023          	sw	a3,160(a5)
    37e8:	08c00713          	li	a4,140
    37ec:	06400513          	li	a0,100
    37f0:	08e7a823          	sw	a4,144(a5)
    37f4:	934fd0ef          	jal	928 <delay>
    37f8:	00006537          	lui	a0,0x6
    37fc:	04450513          	addi	a0,a0,68 # 6044 <__global_pointer+0x144b>
    3800:	96cfd0ef          	jal	96c <print>
    3804:	00001537          	lui	a0,0x1
    3808:	fa050513          	addi	a0,a0,-96 # fa0 <combat.part.0+0x58>
    380c:	91cfd0ef          	jal	928 <delay>
    3810:	00090513          	mv	a0,s2
    3814:	d68fd0ef          	jal	d7c <room_exits.constprop.0>
    3818:	00492503          	lw	a0,4(s2)
    381c:	000055b7          	lui	a1,0x5
    3820:	60858593          	addi	a1,a1,1544 # 5608 <__global_pointer+0xa0f>
    3824:	d24fd0ef          	jal	d48 <strcmp>
    3828:	b2050ae3          	beqz	a0,335c <room_actions+0xe4>
    382c:	00492503          	lw	a0,4(s2)
    3830:	000055b7          	lui	a1,0x5
    3834:	6e458593          	addi	a1,a1,1764 # 56e4 <__global_pointer+0xaeb>
    3838:	d10fd0ef          	jal	d48 <strcmp>
    383c:	24051063          	bnez	a0,3a7c <room_actions+0x804>
    3840:	00006537          	lui	a0,0x6
    3844:	13850513          	addi	a0,a0,312 # 6138 <__global_pointer+0x153f>
    3848:	924fd0ef          	jal	96c <print>
    384c:	00006537          	lui	a0,0x6
    3850:	c6450513          	addi	a0,a0,-924 # 5c64 <__global_pointer+0x106b>
    3854:	00005437          	lui	s0,0x5
    3858:	914fd0ef          	jal	96c <print>
    385c:	86042a23          	sw	zero,-1932(s0) # 4874 <option>
    3860:	00a00513          	li	a0,10
    3864:	8c4fd0ef          	jal	928 <delay>
    3868:	87442783          	lw	a5,-1932(s0)
    386c:	fe078ae3          	beqz	a5,3860 <room_actions+0x5e8>
    3870:	00100713          	li	a4,1
    3874:	32e78663          	beq	a5,a4,3ba0 <room_actions+0x928>
    3878:	00200713          	li	a4,2
    387c:	b0e796e3          	bne	a5,a4,3388 <room_actions+0x110>
    3880:	00006537          	lui	a0,0x6
    3884:	c9850513          	addi	a0,a0,-872 # 5c98 <__global_pointer+0x109f>
    3888:	86042a23          	sw	zero,-1932(s0)
    388c:	8e0fd0ef          	jal	96c <print>
    3890:	05812403          	lw	s0,88(sp)
    3894:	05c12083          	lw	ra,92(sp)
    3898:	05412483          	lw	s1,84(sp)
    389c:	04c12983          	lw	s3,76(sp)
    38a0:	04812a03          	lw	s4,72(sp)
    38a4:	04412a83          	lw	s5,68(sp)
    38a8:	04012b03          	lw	s6,64(sp)
    38ac:	03c12b83          	lw	s7,60(sp)
    38b0:	03812c03          	lw	s8,56(sp)
    38b4:	00090513          	mv	a0,s2
    38b8:	05012903          	lw	s2,80(sp)
    38bc:	06010113          	addi	sp,sp,96
    38c0:	cbcfd06f          	j	d7c <room_exits.constprop.0>
    38c4:	00006537          	lui	a0,0x6
    38c8:	cc850513          	addi	a0,a0,-824 # 5cc8 <__global_pointer+0x10cf>
    38cc:	8a0fd0ef          	jal	96c <print>
    38d0:	7d000513          	li	a0,2000
    38d4:	854fd0ef          	jal	928 <delay>
    38d8:	02092783          	lw	a5,32(s2)
    38dc:	86042a23          	sw	zero,-1932(s0)
    38e0:	36f05a63          	blez	a5,3c54 <room_actions+0x9dc>
    38e4:	03492783          	lw	a5,52(s2)
    38e8:	00078863          	beqz	a5,38f8 <room_actions+0x680>
    38ec:	000c0593          	mv	a1,s8
    38f0:	00090513          	mv	a0,s2
    38f4:	e54fd0ef          	jal	f48 <combat.part.0>
    38f8:	000057b7          	lui	a5,0x5
    38fc:	86c7a703          	lw	a4,-1940(a5) # 486c <next_room>
    3900:	3c071663          	bnez	a4,3ccc <room_actions+0xa54>
    3904:	00090513          	mv	a0,s2
    3908:	c74fd0ef          	jal	d7c <room_exits.constprop.0>
    390c:	9e5ff06f          	j	32f0 <room_actions+0x78>
    3910:	00006537          	lui	a0,0x6
    3914:	d5050513          	addi	a0,a0,-688 # 5d50 <__global_pointer+0x1157>
    3918:	86042a23          	sw	zero,-1932(s0)
    391c:	850fd0ef          	jal	96c <print>
    3920:	7d000513          	li	a0,2000
    3924:	804fd0ef          	jal	928 <delay>
    3928:	00006437          	lui	s0,0x6
    392c:	000c0513          	mv	a0,s8
    3930:	d7440593          	addi	a1,s0,-652 # 5d74 <__global_pointer+0x117b>
    3934:	9cdfc0ef          	jal	300 <peek_inventory>
    3938:	18050a63          	beqz	a0,3acc <room_actions+0x854>
    393c:	00006537          	lui	a0,0x6
    3940:	d7850513          	addi	a0,a0,-648 # 5d78 <__global_pointer+0x117f>
    3944:	828fd0ef          	jal	96c <print>
    3948:	00001537          	lui	a0,0x1
    394c:	fa050513          	addi	a0,a0,-96 # fa0 <combat.part.0+0x58>
    3950:	fd9fc0ef          	jal	928 <delay>
    3954:	00001537          	lui	a0,0x1
    3958:	fa050513          	addi	a0,a0,-96 # fa0 <combat.part.0+0x58>
    395c:	fcdfc0ef          	jal	928 <delay>
    3960:	00090513          	mv	a0,s2
    3964:	c18fd0ef          	jal	d7c <room_exits.constprop.0>
    3968:	999ff06f          	j	3300 <room_actions+0x88>
    396c:	00006537          	lui	a0,0x6
    3970:	e6850513          	addi	a0,a0,-408 # 5e68 <__global_pointer+0x126f>
    3974:	86042a23          	sw	zero,-1932(s0)
    3978:	ff5fc0ef          	jal	96c <print>
    397c:	000c0593          	mv	a1,s8
    3980:	00090513          	mv	a0,s2
    3984:	a48ff0ef          	jal	2bcc <talk_to_npc>
    3988:	989ff06f          	j	3310 <room_actions+0x98>
    398c:	00006537          	lui	a0,0x6
    3990:	eac50513          	addi	a0,a0,-340 # 5eac <__global_pointer+0x12b3>
    3994:	86042a23          	sw	zero,-1932(s0)
    3998:	fd5fc0ef          	jal	96c <print>
    399c:	000c0593          	mv	a1,s8
    39a0:	00090513          	mv	a0,s2
    39a4:	a28ff0ef          	jal	2bcc <talk_to_npc>
    39a8:	979ff06f          	j	3320 <room_actions+0xa8>
    39ac:	00006537          	lui	a0,0x6
    39b0:	c7050513          	addi	a0,a0,-912 # 5c70 <__global_pointer+0x1077>
    39b4:	86042a23          	sw	zero,-1932(s0)
    39b8:	fb5fc0ef          	jal	96c <print>
    39bc:	000c0593          	mv	a1,s8
    39c0:	00090513          	mv	a0,s2
    39c4:	a08ff0ef          	jal	2bcc <talk_to_npc>
    39c8:	919ff06f          	j	32e0 <room_actions+0x68>
    39cc:	00006537          	lui	a0,0x6
    39d0:	09050513          	addi	a0,a0,144 # 6090 <__global_pointer+0x1497>
    39d4:	86042a23          	sw	zero,-1932(s0)
    39d8:	f95fc0ef          	jal	96c <print>
    39dc:	00001537          	lui	a0,0x1
    39e0:	fa050513          	addi	a0,a0,-96 # fa0 <combat.part.0+0x58>
    39e4:	f45fc0ef          	jal	928 <delay>
    39e8:	00006537          	lui	a0,0x6
    39ec:	0b450513          	addi	a0,a0,180 # 60b4 <__global_pointer+0x14bb>
    39f0:	f7dfc0ef          	jal	96c <print>
    39f4:	00006537          	lui	a0,0x6
    39f8:	11850513          	addi	a0,a0,280 # 6118 <__global_pointer+0x151f>
    39fc:	040004b7          	lui	s1,0x4000
    3a00:	f6dfc0ef          	jal	96c <print>
    3a04:	0d048493          	addi	s1,s1,208 # 40000d0 <_stack_end+0x3ef98f4>
    3a08:	25800413          	li	s0,600
    3a0c:	0100006f          	j	3a1c <room_actions+0x7a4>
    3a10:	fff40413          	addi	s0,s0,-1
    3a14:	f15fc0ef          	jal	928 <delay>
    3a18:	10040663          	beqz	s0,3b24 <room_actions+0x8ac>
    3a1c:	0004a783          	lw	a5,0(s1)
    3a20:	0004a023          	sw	zero,0(s1)
    3a24:	00a00513          	li	a0,10
    3a28:	0017f793          	andi	a5,a5,1
    3a2c:	fe0782e3          	beqz	a5,3a10 <room_actions+0x798>
    3a30:	00006537          	lui	a0,0x6
    3a34:	1f450513          	addi	a0,a0,500 # 61f4 <__global_pointer+0x15fb>
    3a38:	f35fc0ef          	jal	96c <print>
    3a3c:	00001537          	lui	a0,0x1
    3a40:	fa050513          	addi	a0,a0,-96 # fa0 <combat.part.0+0x58>
    3a44:	ee5fc0ef          	jal	928 <delay>
    3a48:	00006537          	lui	a0,0x6
    3a4c:	25450513          	addi	a0,a0,596 # 6254 <__global_pointer+0x165b>
    3a50:	f1dfc0ef          	jal	96c <print>
    3a54:	00001537          	lui	a0,0x1
    3a58:	fa050513          	addi	a0,a0,-96 # fa0 <combat.part.0+0x58>
    3a5c:	ecdfc0ef          	jal	928 <delay>
    3a60:	00090513          	mv	a0,s2
    3a64:	b18fd0ef          	jal	d7c <room_exits.constprop.0>
    3a68:	00492503          	lw	a0,4(s2)
    3a6c:	000055b7          	lui	a1,0x5
    3a70:	6e458593          	addi	a1,a1,1764 # 56e4 <__global_pointer+0xaeb>
    3a74:	ad4fd0ef          	jal	d48 <strcmp>
    3a78:	dc0504e3          	beqz	a0,3840 <room_actions+0x5c8>
    3a7c:	05c12083          	lw	ra,92(sp)
    3a80:	05812403          	lw	s0,88(sp)
    3a84:	05412483          	lw	s1,84(sp)
    3a88:	05012903          	lw	s2,80(sp)
    3a8c:	04c12983          	lw	s3,76(sp)
    3a90:	04812a03          	lw	s4,72(sp)
    3a94:	04412a83          	lw	s5,68(sp)
    3a98:	04012b03          	lw	s6,64(sp)
    3a9c:	03c12b83          	lw	s7,60(sp)
    3aa0:	03812c03          	lw	s8,56(sp)
    3aa4:	06010113          	addi	sp,sp,96
    3aa8:	00008067          	ret
    3aac:	00006537          	lui	a0,0x6
    3ab0:	f1450513          	addi	a0,a0,-236 # 5f14 <__global_pointer+0x131b>
    3ab4:	86042a23          	sw	zero,-1932(s0)
    3ab8:	eb5fc0ef          	jal	96c <print>
    3abc:	000c0593          	mv	a1,s8
    3ac0:	00090513          	mv	a0,s2
    3ac4:	908ff0ef          	jal	2bcc <talk_to_npc>
    3ac8:	86dff06f          	j	3334 <room_actions+0xbc>
    3acc:	00006537          	lui	a0,0x6
    3ad0:	de050513          	addi	a0,a0,-544 # 5de0 <__global_pointer+0x11e7>
    3ad4:	e99fc0ef          	jal	96c <print>
    3ad8:	00001537          	lui	a0,0x1
    3adc:	fa050513          	addi	a0,a0,-96 # fa0 <combat.part.0+0x58>
    3ae0:	e49fc0ef          	jal	928 <delay>
    3ae4:	00006537          	lui	a0,0x6
    3ae8:	e2850513          	addi	a0,a0,-472 # 5e28 <__global_pointer+0x122f>
    3aec:	e81fc0ef          	jal	96c <print>
    3af0:	7d000513          	li	a0,2000
    3af4:	e35fc0ef          	jal	928 <delay>
    3af8:	00006537          	lui	a0,0x6
    3afc:	e4050513          	addi	a0,a0,-448 # 5e40 <__global_pointer+0x1247>
    3b00:	e6dfc0ef          	jal	96c <print>
    3b04:	d7440593          	addi	a1,s0,-652
    3b08:	000c0513          	mv	a0,s8
    3b0c:	85dfc0ef          	jal	368 <add_to_inventory>
    3b10:	e45ff06f          	j	3954 <room_actions+0x6dc>
    3b14:	040007b7          	lui	a5,0x4000
    3b18:	0ff00713          	li	a4,255
    3b1c:	06e7a023          	sw	a4,96(a5) # 4000060 <_stack_end+0x3ef9884>
    3b20:	ca9ff06f          	j	37c8 <room_actions+0x550>
    3b24:	00006537          	lui	a0,0x6
    3b28:	26450513          	addi	a0,a0,612 # 6264 <__global_pointer+0x166b>
    3b2c:	e41fc0ef          	jal	96c <print>
    3b30:	7d000513          	li	a0,2000
    3b34:	df5fc0ef          	jal	928 <delay>
    3b38:	00006537          	lui	a0,0x6
    3b3c:	2b050513          	addi	a0,a0,688 # 62b0 <__global_pointer+0x16b7>
    3b40:	e2dfc0ef          	jal	96c <print>
    3b44:	00001537          	lui	a0,0x1
    3b48:	fa050513          	addi	a0,a0,-96 # fa0 <combat.part.0+0x58>
    3b4c:	dddfc0ef          	jal	928 <delay>
    3b50:	00004737          	lui	a4,0x4
    3b54:	000057b7          	lui	a5,0x5
    3b58:	40072023          	sw	zero,1024(a4) # 4400 <alive>
    3b5c:	8607a823          	sw	zero,-1936(a5) # 4870 <in_combat>
    3b60:	ccdff06f          	j	382c <room_actions+0x5b4>
    3b64:	00006537          	lui	a0,0x6
    3b68:	00c50513          	addi	a0,a0,12 # 600c <__global_pointer+0x1413>
    3b6c:	86042a23          	sw	zero,-1932(s0)
    3b70:	c91ff06f          	j	3800 <room_actions+0x588>
    3b74:	51eb87b7          	lui	a5,0x51eb8
    3b78:	51f78793          	addi	a5,a5,1311 # 51eb851f <_stack_end+0x51db1d43>
    3b7c:	02f597b3          	mulh	a5,a1,a5
    3b80:	04000737          	lui	a4,0x4000
    3b84:	4057d793          	srai	a5,a5,0x5
    3b88:	40c787b3          	sub	a5,a5,a2
    3b8c:	00279793          	slli	a5,a5,0x2
    3b90:	010787b3          	add	a5,a5,a6
    3b94:	0007a783          	lw	a5,0(a5)
    3b98:	06f72823          	sw	a5,112(a4) # 4000070 <_stack_end+0x3ef9894>
    3b9c:	c39ff06f          	j	37d4 <room_actions+0x55c>
    3ba0:	00006537          	lui	a0,0x6
    3ba4:	16050513          	addi	a0,a0,352 # 6160 <__global_pointer+0x1567>
    3ba8:	86042a23          	sw	zero,-1932(s0)
    3bac:	dc1fc0ef          	jal	96c <print>
    3bb0:	7d000513          	li	a0,2000
    3bb4:	d75fc0ef          	jal	928 <delay>
    3bb8:	000065b7          	lui	a1,0x6
    3bbc:	000c0513          	mv	a0,s8
    3bc0:	d7458593          	addi	a1,a1,-652 # 5d74 <__global_pointer+0x117b>
    3bc4:	f3cfc0ef          	jal	300 <peek_inventory>
    3bc8:	00050493          	mv	s1,a0
    3bcc:	0c050263          	beqz	a0,3c90 <room_actions+0xa18>
    3bd0:	00006537          	lui	a0,0x6
    3bd4:	18450513          	addi	a0,a0,388 # 6184 <__global_pointer+0x158b>
    3bd8:	d95fc0ef          	jal	96c <print>
    3bdc:	00048593          	mv	a1,s1
    3be0:	000c0513          	mv	a0,s8
    3be4:	8e1fc0ef          	jal	4c4 <remove_from_inventory>
    3be8:	00001537          	lui	a0,0x1
    3bec:	bb850513          	addi	a0,a0,-1096 # bb8 <handle_exception+0xf8>
    3bf0:	d39fc0ef          	jal	928 <delay>
    3bf4:	03492783          	lw	a5,52(s2)
    3bf8:	00078c63          	beqz	a5,3c10 <room_actions+0x998>
    3bfc:	02092783          	lw	a5,32(s2)
    3c00:	00f05863          	blez	a5,3c10 <room_actions+0x998>
    3c04:	000c0593          	mv	a1,s8
    3c08:	00090513          	mv	a0,s2
    3c0c:	b3cfd0ef          	jal	f48 <combat.part.0>
    3c10:	000057b7          	lui	a5,0x5
    3c14:	86c7a703          	lw	a4,-1940(a5) # 486c <next_room>
    3c18:	0a071a63          	bnez	a4,3ccc <room_actions+0xa54>
    3c1c:	3e800513          	li	a0,1000
    3c20:	d09fc0ef          	jal	928 <delay>
    3c24:	05812403          	lw	s0,88(sp)
    3c28:	05c12083          	lw	ra,92(sp)
    3c2c:	05412483          	lw	s1,84(sp)
    3c30:	05012903          	lw	s2,80(sp)
    3c34:	04c12983          	lw	s3,76(sp)
    3c38:	04812a03          	lw	s4,72(sp)
    3c3c:	04412a83          	lw	s5,68(sp)
    3c40:	04012b03          	lw	s6,64(sp)
    3c44:	03c12b83          	lw	s7,60(sp)
    3c48:	03812c03          	lw	s8,56(sp)
    3c4c:	06010113          	addi	sp,sp,96
    3c50:	c7cff06f          	j	30cc <win>
    3c54:	00006537          	lui	a0,0x6
    3c58:	cec50513          	addi	a0,a0,-788 # 5cec <__global_pointer+0x10f3>
    3c5c:	d11fc0ef          	jal	96c <print>
    3c60:	7d000513          	li	a0,2000
    3c64:	cc5fc0ef          	jal	928 <delay>
    3c68:	00005537          	lui	a0,0x5
    3c6c:	7f050513          	addi	a0,a0,2032 # 57f0 <__global_pointer+0xbf7>
    3c70:	cfdfc0ef          	jal	96c <print>
    3c74:	87442783          	lw	a5,-1932(s0)
    3c78:	c80796e3          	bnez	a5,3904 <room_actions+0x68c>
    3c7c:	00a00513          	li	a0,10
    3c80:	ca9fc0ef          	jal	928 <delay>
    3c84:	87442783          	lw	a5,-1932(s0)
    3c88:	fe078ae3          	beqz	a5,3c7c <room_actions+0xa04>
    3c8c:	c79ff06f          	j	3904 <room_actions+0x68c>
    3c90:	00006537          	lui	a0,0x6
    3c94:	1ac50513          	addi	a0,a0,428 # 61ac <__global_pointer+0x15b3>
    3c98:	cd5fc0ef          	jal	96c <print>
    3c9c:	7d000513          	li	a0,2000
    3ca0:	c89fc0ef          	jal	928 <delay>
    3ca4:	00006537          	lui	a0,0x6
    3ca8:	1e850513          	addi	a0,a0,488 # 61e8 <__global_pointer+0x15ef>
    3cac:	cc1fc0ef          	jal	96c <print>
    3cb0:	87442783          	lw	a5,-1932(s0)
    3cb4:	bc079ee3          	bnez	a5,3890 <room_actions+0x618>
    3cb8:	00a00513          	li	a0,10
    3cbc:	c6dfc0ef          	jal	928 <delay>
    3cc0:	87442783          	lw	a5,-1932(s0)
    3cc4:	fe078ae3          	beqz	a5,3cb8 <room_actions+0xa40>
    3cc8:	bc9ff06f          	j	3890 <room_actions+0x618>
    3ccc:	8607a623          	sw	zero,-1940(a5)
    3cd0:	000047b7          	lui	a5,0x4
    3cd4:	3fc7a603          	lw	a2,1020(a5) # 43fc <current_room>
    3cd8:	000056b7          	lui	a3,0x5
    3cdc:	3ee7ae23          	sw	a4,1020(a5)
    3ce0:	86c6a423          	sw	a2,-1944(a3) # 4868 <prev_room>
    3ce4:	d99ff06f          	j	3a7c <room_actions+0x804>

00003ce8 <handle_interrupt>:
    3ce8:	ff010113          	addi	sp,sp,-16
    3cec:	00112623          	sw	ra,12(sp)
    3cf0:	01100793          	li	a5,17
    3cf4:	12f50263          	beq	a0,a5,3e18 <handle_interrupt+0x130>
    3cf8:	01000793          	li	a5,16
    3cfc:	10f51863          	bne	a0,a5,3e0c <handle_interrupt+0x124>
    3d00:	040007b7          	lui	a5,0x4000
    3d04:	00200713          	li	a4,2
    3d08:	00005637          	lui	a2,0x5
    3d0c:	02e79023          	sh	a4,32(a5) # 4000020 <_stack_end+0x3ef9844>
    3d10:	000056b7          	lui	a3,0x5
    3d14:	87c62703          	lw	a4,-1924(a2) # 487c <timeoutcount>
    3d18:	000047b7          	lui	a5,0x4
    3d1c:	4007a783          	lw	a5,1024(a5) # 4400 <alive>
    3d20:	8706a683          	lw	a3,-1936(a3) # 4870 <in_combat>
    3d24:	00170713          	addi	a4,a4,1
    3d28:	86e62e23          	sw	a4,-1924(a2)
    3d2c:	00d7e7b3          	or	a5,a5,a3
    3d30:	0a079a63          	bnez	a5,3de4 <handle_interrupt+0xfc>
    3d34:	00912223          	sw	s1,4(sp)
    3d38:	000054b7          	lui	s1,0x5
    3d3c:	00812423          	sw	s0,8(sp)
    3d40:	c5048493          	addi	s1,s1,-944 # 4c50 <__global_pointer+0x57>
    3d44:	02800413          	li	s0,40
    3d48:	00048513          	mv	a0,s1
    3d4c:	fff40413          	addi	s0,s0,-1
    3d50:	c1dfc0ef          	jal	96c <print>
    3d54:	fe041ae3          	bnez	s0,3d48 <handle_interrupt+0x60>
    3d58:	00006537          	lui	a0,0x6
    3d5c:	31850513          	addi	a0,a0,792 # 6318 <__global_pointer+0x171f>
    3d60:	c0dfc0ef          	jal	96c <print>
    3d64:	00002537          	lui	a0,0x2
    3d68:	f4050513          	addi	a0,a0,-192 # 1f40 <shop+0xd0>
    3d6c:	bbdfc0ef          	jal	928 <delay>
    3d70:	00006537          	lui	a0,0x6
    3d74:	32850513          	addi	a0,a0,808 # 6328 <__global_pointer+0x172f>
    3d78:	bf5fc0ef          	jal	96c <print>
    3d7c:	00001537          	lui	a0,0x1
    3d80:	fa050513          	addi	a0,a0,-96 # fa0 <combat.part.0+0x58>
    3d84:	ba5fc0ef          	jal	928 <delay>
    3d88:	000058b7          	lui	a7,0x5
    3d8c:	00100793          	li	a5,1
    3d90:	00005737          	lui	a4,0x5
    3d94:	00005437          	lui	s0,0x5
    3d98:	00004837          	lui	a6,0x4
    3d9c:	00005537          	lui	a0,0x5
    3da0:	000055b7          	lui	a1,0x5
    3da4:	00005637          	lui	a2,0x5
    3da8:	000056b7          	lui	a3,0x5
    3dac:	8608a823          	sw	zero,-1936(a7) # 4870 <in_combat>
    3db0:	000048b7          	lui	a7,0x4
    3db4:	86042e23          	sw	zero,-1924(s0) # 487c <timeoutcount>
    3db8:	86072423          	sw	zero,-1944(a4) # 4868 <prev_room>
    3dbc:	40f8a023          	sw	a5,1024(a7) # 4400 <alive>
    3dc0:	3ef82e23          	sw	a5,1020(a6) # 43fc <current_room>
    3dc4:	88052223          	sw	zero,-1916(a0) # 4884 <mytime>
    3dc8:	8805a023          	sw	zero,-1920(a1) # 4880 <hourtime>
    3dcc:	86062a23          	sw	zero,-1932(a2) # 4874 <option>
    3dd0:	8606a623          	sw	zero,-1940(a3) # 486c <next_room>
    3dd4:	2b4000ef          	jal	4088 <main>
    3dd8:	87c42703          	lw	a4,-1924(s0)
    3ddc:	00412483          	lw	s1,4(sp)
    3de0:	00812403          	lw	s0,8(sp)
    3de4:	666667b7          	lui	a5,0x66666
    3de8:	66778793          	addi	a5,a5,1639 # 66666667 <_stack_end+0x6655fe8b>
    3dec:	02f717b3          	mulh	a5,a4,a5
    3df0:	41f75693          	srai	a3,a4,0x1f
    3df4:	4027d793          	srai	a5,a5,0x2
    3df8:	40d787b3          	sub	a5,a5,a3
    3dfc:	00279693          	slli	a3,a5,0x2
    3e00:	00f687b3          	add	a5,a3,a5
    3e04:	00179793          	slli	a5,a5,0x1
    3e08:	0ef70863          	beq	a4,a5,3ef8 <handle_interrupt+0x210>
    3e0c:	00c12083          	lw	ra,12(sp)
    3e10:	01010113          	addi	sp,sp,16
    3e14:	00008067          	ret
    3e18:	040007b7          	lui	a5,0x4000
    3e1c:	01c7a703          	lw	a4,28(a5) # 400001c <_stack_end+0x3ef9840>
    3e20:	02000693          	li	a3,32
    3e24:	01c78793          	addi	a5,a5,28
    3e28:	12d70663          	beq	a4,a3,3f54 <handle_interrupt+0x26c>
    3e2c:	0007a703          	lw	a4,0(a5)
    3e30:	01000693          	li	a3,16
    3e34:	14d70a63          	beq	a4,a3,3f88 <handle_interrupt+0x2a0>
    3e38:	0007a703          	lw	a4,0(a5)
    3e3c:	00800693          	li	a3,8
    3e40:	16d70c63          	beq	a4,a3,3fb8 <handle_interrupt+0x2d0>
    3e44:	0007a703          	lw	a4,0(a5)
    3e48:	00400693          	li	a3,4
    3e4c:	18d70c63          	beq	a4,a3,3fe4 <handle_interrupt+0x2fc>
    3e50:	0007a703          	lw	a4,0(a5)
    3e54:	00200693          	li	a3,2
    3e58:	1ad70463          	beq	a4,a3,4000 <handle_interrupt+0x318>
    3e5c:	0007a703          	lw	a4,0(a5)
    3e60:	00100513          	li	a0,1
    3e64:	14a71063          	bne	a4,a0,3fa4 <handle_interrupt+0x2bc>
    3e68:	00812423          	sw	s0,8(sp)
    3e6c:	00912223          	sw	s1,4(sp)
    3e70:	000054b7          	lui	s1,0x5
    3e74:	00e7a023          	sw	a4,0(a5)
    3e78:	c5048493          	addi	s1,s1,-944 # 4c50 <__global_pointer+0x57>
    3e7c:	02800413          	li	s0,40
    3e80:	00048513          	mv	a0,s1
    3e84:	fff40413          	addi	s0,s0,-1
    3e88:	ae5fc0ef          	jal	96c <print>
    3e8c:	fe041ae3          	bnez	s0,3e80 <handle_interrupt+0x198>
    3e90:	000057b7          	lui	a5,0x5
    3e94:	8787a503          	lw	a0,-1928(a5) # 4878 <p>
    3e98:	04000437          	lui	s0,0x4000
    3e9c:	0d040413          	addi	s0,s0,208 # 40000d0 <_stack_end+0x3ef98f4>
    3ea0:	f50fc0ef          	jal	5f0 <print_inventory>
    3ea4:	7d000513          	li	a0,2000
    3ea8:	a81fc0ef          	jal	928 <delay>
    3eac:	00006537          	lui	a0,0x6
    3eb0:	2f850513          	addi	a0,a0,760 # 62f8 <__global_pointer+0x16ff>
    3eb4:	ab9fc0ef          	jal	96c <print>
    3eb8:	00042783          	lw	a5,0(s0)
    3ebc:	00042023          	sw	zero,0(s0)
    3ec0:	0017f793          	andi	a5,a5,1
    3ec4:	00079e63          	bnez	a5,3ee0 <handle_interrupt+0x1f8>
    3ec8:	00a00513          	li	a0,10
    3ecc:	a5dfc0ef          	jal	928 <delay>
    3ed0:	00042783          	lw	a5,0(s0)
    3ed4:	00042023          	sw	zero,0(s0)
    3ed8:	0017f793          	andi	a5,a5,1
    3edc:	fe0786e3          	beqz	a5,3ec8 <handle_interrupt+0x1e0>
    3ee0:	000057b7          	lui	a5,0x5
    3ee4:	00600713          	li	a4,6
    3ee8:	00812403          	lw	s0,8(sp)
    3eec:	00412483          	lw	s1,4(sp)
    3ef0:	86e7aa23          	sw	a4,-1932(a5) # 4874 <option>
    3ef4:	f19ff06f          	j	3e0c <handle_interrupt+0x124>
    3ef8:	00812423          	sw	s0,8(sp)
    3efc:	c45fd0ef          	jal	1b40 <set_hourtime>
    3f00:	00005437          	lui	s0,0x5
    3f04:	88440513          	addi	a0,s0,-1916 # 4884 <mytime>
    3f08:	8ddfc0ef          	jal	7e4 <tick>
    3f0c:	88445683          	lhu	a3,-1916(s0)
    3f10:	00005737          	lui	a4,0x5
    3f14:	88072783          	lw	a5,-1920(a4) # 4880 <hourtime>
    3f18:	04069c63          	bnez	a3,3f70 <handle_interrupt+0x288>
    3f1c:	4107d693          	srai	a3,a5,0x10
    3f20:	00900613          	li	a2,9
    3f24:	0ac68863          	beq	a3,a2,3fd4 <handle_interrupt+0x2ec>
    3f28:	01900613          	li	a2,25
    3f2c:	0ec68863          	beq	a3,a2,401c <handle_interrupt+0x334>
    3f30:	02300613          	li	a2,35
    3f34:	0ec68c63          	beq	a3,a2,402c <handle_interrupt+0x344>
    3f38:	000106b7          	lui	a3,0x10
    3f3c:	00d787b3          	add	a5,a5,a3
    3f40:	00ff06b7          	lui	a3,0xff0
    3f44:	00d7f7b3          	and	a5,a5,a3
    3f48:	00812403          	lw	s0,8(sp)
    3f4c:	88f72023          	sw	a5,-1920(a4)
    3f50:	ebdff06f          	j	3e0c <handle_interrupt+0x124>
    3f54:	00e7a023          	sw	a4,0(a5)
    3f58:	00100513          	li	a0,1
    3f5c:	9cdfc0ef          	jal	928 <delay>
    3f60:	000057b7          	lui	a5,0x5
    3f64:	00500713          	li	a4,5
    3f68:	86e7aa23          	sw	a4,-1932(a5) # 4874 <option>
    3f6c:	ea1ff06f          	j	3e0c <handle_interrupt+0x124>
    3f70:	00ff0637          	lui	a2,0xff0
    3f74:	00c7f7b3          	and	a5,a5,a2
    3f78:	00d7e7b3          	or	a5,a5,a3
    3f7c:	00812403          	lw	s0,8(sp)
    3f80:	88f72023          	sw	a5,-1920(a4)
    3f84:	e89ff06f          	j	3e0c <handle_interrupt+0x124>
    3f88:	00e7a023          	sw	a4,0(a5)
    3f8c:	00100513          	li	a0,1
    3f90:	999fc0ef          	jal	928 <delay>
    3f94:	000057b7          	lui	a5,0x5
    3f98:	00400713          	li	a4,4
    3f9c:	86e7aa23          	sw	a4,-1932(a5) # 4874 <option>
    3fa0:	e6dff06f          	j	3e0c <handle_interrupt+0x124>
    3fa4:	00c12083          	lw	ra,12(sp)
    3fa8:	3ff00713          	li	a4,1023
    3fac:	00e7a023          	sw	a4,0(a5)
    3fb0:	01010113          	addi	sp,sp,16
    3fb4:	975fc06f          	j	928 <delay>
    3fb8:	00e7a023          	sw	a4,0(a5)
    3fbc:	00100513          	li	a0,1
    3fc0:	969fc0ef          	jal	928 <delay>
    3fc4:	000057b7          	lui	a5,0x5
    3fc8:	00300713          	li	a4,3
    3fcc:	86e7aa23          	sw	a4,-1932(a5) # 4874 <option>
    3fd0:	e3dff06f          	j	3e0c <handle_interrupt+0x124>
    3fd4:	001007b7          	lui	a5,0x100
    3fd8:	00812403          	lw	s0,8(sp)
    3fdc:	88f72023          	sw	a5,-1920(a4)
    3fe0:	e2dff06f          	j	3e0c <handle_interrupt+0x124>
    3fe4:	00e7a023          	sw	a4,0(a5) # 100000 <__stack_size>
    3fe8:	00100513          	li	a0,1
    3fec:	93dfc0ef          	jal	928 <delay>
    3ff0:	000057b7          	lui	a5,0x5
    3ff4:	00200713          	li	a4,2
    3ff8:	86e7aa23          	sw	a4,-1932(a5) # 4874 <option>
    3ffc:	e11ff06f          	j	3e0c <handle_interrupt+0x124>
    4000:	00e7a023          	sw	a4,0(a5)
    4004:	00100513          	li	a0,1
    4008:	921fc0ef          	jal	928 <delay>
    400c:	000057b7          	lui	a5,0x5
    4010:	00100713          	li	a4,1
    4014:	86e7aa23          	sw	a4,-1932(a5) # 4874 <option>
    4018:	df5ff06f          	j	3e0c <handle_interrupt+0x124>
    401c:	002007b7          	lui	a5,0x200
    4020:	00812403          	lw	s0,8(sp)
    4024:	88f72023          	sw	a5,-1920(a4)
    4028:	de5ff06f          	j	3e0c <handle_interrupt+0x124>
    402c:	00812403          	lw	s0,8(sp)
    4030:	88072023          	sw	zero,-1920(a4)
    4034:	dd9ff06f          	j	3e0c <handle_interrupt+0x124>

00004038 <reset>:
    4038:	000057b7          	lui	a5,0x5
    403c:	8807a223          	sw	zero,-1916(a5) # 4884 <mytime>
    4040:	000057b7          	lui	a5,0x5
    4044:	8807a023          	sw	zero,-1920(a5) # 4880 <hourtime>
    4048:	000057b7          	lui	a5,0x5
    404c:	8607ae23          	sw	zero,-1924(a5) # 487c <timeoutcount>
    4050:	000057b7          	lui	a5,0x5
    4054:	8607aa23          	sw	zero,-1932(a5) # 4874 <option>
    4058:	00004537          	lui	a0,0x4
    405c:	00100793          	li	a5,1
    4060:	000045b7          	lui	a1,0x4
    4064:	00005637          	lui	a2,0x5
    4068:	000056b7          	lui	a3,0x5
    406c:	00005737          	lui	a4,0x5
    4070:	40f52023          	sw	a5,1024(a0) # 4400 <alive>
    4074:	3ef5ae23          	sw	a5,1020(a1) # 43fc <current_room>
    4078:	86062823          	sw	zero,-1936(a2) # 4870 <in_combat>
    407c:	8606a623          	sw	zero,-1940(a3) # 486c <next_room>
    4080:	86072423          	sw	zero,-1944(a4) # 4868 <prev_room>
    4084:	0040006f          	j	4088 <main>

00004088 <main>:
    4088:	fd010113          	addi	sp,sp,-48
    408c:	ffffc737          	lui	a4,0xffffc
    4090:	02112623          	sw	ra,44(sp)
    4094:	02812423          	sw	s0,40(sp)
    4098:	02912223          	sw	s1,36(sp)
    409c:	03212023          	sw	s2,32(sp)
    40a0:	01412c23          	sw	s4,24(sp)
    40a4:	01312e23          	sw	s3,28(sp)
    40a8:	01712623          	sw	s7,12(sp)
    40ac:	040007b7          	lui	a5,0x4000
    40b0:	6bf70713          	addi	a4,a4,1727 # ffffc6bf <_stack_end+0xffef5ee3>
    40b4:	02e79423          	sh	a4,40(a5) # 4000028 <_stack_end+0x3ef984c>
    40b8:	040007b7          	lui	a5,0x4000
    40bc:	02d00713          	li	a4,45
    40c0:	02e79623          	sh	a4,44(a5) # 400002c <_stack_end+0x3ef9850>
    40c4:	040007b7          	lui	a5,0x4000
    40c8:	00700713          	li	a4,7
    40cc:	02e79223          	sh	a4,36(a5) # 4000024 <_stack_end+0x3ef9848>
    40d0:	03f00713          	li	a4,63
    40d4:	040007b7          	lui	a5,0x4000
    40d8:	00e7ac23          	sw	a4,24(a5) # 4000018 <_stack_end+0x3ef983c>
    40dc:	040007b7          	lui	a5,0x4000
    40e0:	00e7ae23          	sw	a4,28(a5) # 400001c <_stack_end+0x3ef9840>
    40e4:	890fc0ef          	jal	174 <enable_interrupts>
    40e8:	a0cfe0ef          	jal	22f4 <room_init>
    40ec:	000055b7          	lui	a1,0x5
    40f0:	76058593          	addi	a1,a1,1888 # 5760 <__global_pointer+0xb67>
    40f4:	01600613          	li	a2,22
    40f8:	00100513          	li	a0,1
    40fc:	888fc0ef          	jal	184 <new_player>
    4100:	00005a37          	lui	s4,0x5
    4104:	000054b7          	lui	s1,0x5
    4108:	86aa2c23          	sw	a0,-1928(s4) # 4878 <p>
    410c:	c5048913          	addi	s2,s1,-944 # 4c50 <__global_pointer+0x57>
    4110:	02800413          	li	s0,40
    4114:	00090513          	mv	a0,s2
    4118:	fff40413          	addi	s0,s0,-1
    411c:	851fc0ef          	jal	96c <print>
    4120:	fe041ae3          	bnez	s0,4114 <main+0x8c>
    4124:	00006437          	lui	s0,0x6
    4128:	85040513          	addi	a0,s0,-1968 # 5850 <__global_pointer+0xc57>
    412c:	841fc0ef          	jal	96c <print>
    4130:	00006537          	lui	a0,0x6
    4134:	86850513          	addi	a0,a0,-1944 # 5868 <__global_pointer+0xc6f>
    4138:	835fc0ef          	jal	96c <print>
    413c:	85040513          	addi	a0,s0,-1968
    4140:	82dfc0ef          	jal	96c <print>
    4144:	7d000513          	li	a0,2000
    4148:	fe0fc0ef          	jal	928 <delay>
    414c:	00006537          	lui	a0,0x6
    4150:	88050513          	addi	a0,a0,-1920 # 5880 <__global_pointer+0xc87>
    4154:	819fc0ef          	jal	96c <print>
    4158:	7d000513          	li	a0,2000
    415c:	fccfc0ef          	jal	928 <delay>
    4160:	000069b7          	lui	s3,0x6
    4164:	04000437          	lui	s0,0x4000
    4168:	8b098513          	addi	a0,s3,-1872 # 58b0 <__global_pointer+0xcb7>
    416c:	801fc0ef          	jal	96c <print>
    4170:	0d042783          	lw	a5,208(s0) # 40000d0 <_stack_end+0x3ef98f4>
    4174:	0c042823          	sw	zero,208(s0)
    4178:	0d040413          	addi	s0,s0,208
    417c:	0017f793          	andi	a5,a5,1
    4180:	00079e63          	bnez	a5,419c <main+0x114>
    4184:	00a00513          	li	a0,10
    4188:	fa0fc0ef          	jal	928 <delay>
    418c:	00042783          	lw	a5,0(s0)
    4190:	00042023          	sw	zero,0(s0)
    4194:	0017f793          	andi	a5,a5,1
    4198:	fe0786e3          	beqz	a5,4184 <main+0xfc>
    419c:	02800413          	li	s0,40
    41a0:	c5048913          	addi	s2,s1,-944
    41a4:	00090513          	mv	a0,s2
    41a8:	fff40413          	addi	s0,s0,-1
    41ac:	fc0fc0ef          	jal	96c <print>
    41b0:	fe041ae3          	bnez	s0,41a4 <main+0x11c>
    41b4:	00006537          	lui	a0,0x6
    41b8:	8d050513          	addi	a0,a0,-1840 # 58d0 <__global_pointer+0xcd7>
    41bc:	fb0fc0ef          	jal	96c <print>
    41c0:	878a2783          	lw	a5,-1928(s4)
    41c4:	04000437          	lui	s0,0x4000
    41c8:	0d040413          	addi	s0,s0,208 # 40000d0 <_stack_end+0x3ef98f4>
    41cc:	0047a503          	lw	a0,4(a5)
    41d0:	f9cfc0ef          	jal	96c <print>
    41d4:	00006537          	lui	a0,0x6
    41d8:	8f450513          	addi	a0,a0,-1804 # 58f4 <__global_pointer+0xcfb>
    41dc:	f90fc0ef          	jal	96c <print>
    41e0:	878a2783          	lw	a5,-1928(s4)
    41e4:	00c7a503          	lw	a0,12(a5)
    41e8:	e9cfd0ef          	jal	1884 <hp2display>
    41ec:	00090513          	mv	a0,s2
    41f0:	f7cfc0ef          	jal	96c <print>
    41f4:	00006537          	lui	a0,0x6
    41f8:	92050513          	addi	a0,a0,-1760 # 5920 <__global_pointer+0xd27>
    41fc:	f70fc0ef          	jal	96c <print>
    4200:	00006537          	lui	a0,0x6
    4204:	98050513          	addi	a0,a0,-1664 # 5980 <__global_pointer+0xd87>
    4208:	f64fc0ef          	jal	96c <print>
    420c:	7d000513          	li	a0,2000
    4210:	f18fc0ef          	jal	928 <delay>
    4214:	8b098513          	addi	a0,s3,-1872
    4218:	f54fc0ef          	jal	96c <print>
    421c:	00042783          	lw	a5,0(s0)
    4220:	00042023          	sw	zero,0(s0)
    4224:	0017f793          	andi	a5,a5,1
    4228:	00079e63          	bnez	a5,4244 <main+0x1bc>
    422c:	00a00513          	li	a0,10
    4230:	ef8fc0ef          	jal	928 <delay>
    4234:	00042783          	lw	a5,0(s0)
    4238:	00042023          	sw	zero,0(s0)
    423c:	0017f793          	andi	a5,a5,1
    4240:	fe0786e3          	beqz	a5,422c <main+0x1a4>
    4244:	c5048493          	addi	s1,s1,-944
    4248:	02800413          	li	s0,40
    424c:	00048513          	mv	a0,s1
    4250:	fff40413          	addi	s0,s0,-1
    4254:	f18fc0ef          	jal	96c <print>
    4258:	fe041ae3          	bnez	s0,424c <main+0x1c4>
    425c:	00004bb7          	lui	s7,0x4
    4260:	400ba783          	lw	a5,1024(s7) # 4400 <alive>
    4264:	08078863          	beqz	a5,42f4 <main+0x26c>
    4268:	01512a23          	sw	s5,20(sp)
    426c:	01612823          	sw	s6,16(sp)
    4270:	00004ab7          	lui	s5,0x4
    4274:	00006b37          	lui	s6,0x6
    4278:	01812423          	sw	s8,8(sp)
    427c:	01912223          	sw	s9,4(sp)
    4280:	408a8a93          	addi	s5,s5,1032 # 4408 <rooms>
    4284:	8acb0b13          	addi	s6,s6,-1876 # 58ac <__global_pointer+0xcb3>
    4288:	00004c37          	lui	s8,0x4
    428c:	3fcc2c83          	lw	s9,1020(s8) # 43fc <current_room>
    4290:	02800413          	li	s0,40
    4294:	003c9913          	slli	s2,s9,0x3
    4298:	419909b3          	sub	s3,s2,s9
    429c:	00499993          	slli	s3,s3,0x4
    42a0:	013a89b3          	add	s3,s5,s3
    42a4:	00048513          	mv	a0,s1
    42a8:	fff40413          	addi	s0,s0,-1
    42ac:	ec0fc0ef          	jal	96c <print>
    42b0:	fe041ae3          	bnez	s0,42a4 <main+0x21c>
    42b4:	419907b3          	sub	a5,s2,s9
    42b8:	00479793          	slli	a5,a5,0x4
    42bc:	00fa87b3          	add	a5,s5,a5
    42c0:	0087a503          	lw	a0,8(a5)
    42c4:	ea8fc0ef          	jal	96c <print>
    42c8:	000b0513          	mv	a0,s6
    42cc:	ea0fc0ef          	jal	96c <print>
    42d0:	878a2583          	lw	a1,-1928(s4)
    42d4:	00098513          	mv	a0,s3
    42d8:	fa1fe0ef          	jal	3278 <room_actions>
    42dc:	400ba783          	lw	a5,1024(s7)
    42e0:	fa0796e3          	bnez	a5,428c <main+0x204>
    42e4:	01412a83          	lw	s5,20(sp)
    42e8:	01012b03          	lw	s6,16(sp)
    42ec:	00812c03          	lw	s8,8(sp)
    42f0:	00412c83          	lw	s9,4(sp)
    42f4:	02c12083          	lw	ra,44(sp)
    42f8:	02812403          	lw	s0,40(sp)
    42fc:	02412483          	lw	s1,36(sp)
    4300:	02012903          	lw	s2,32(sp)
    4304:	01c12983          	lw	s3,28(sp)
    4308:	01812a03          	lw	s4,24(sp)
    430c:	00c12b83          	lw	s7,12(sp)
    4310:	00000513          	li	a0,0
    4314:	03010113          	addi	sp,sp,48
    4318:	00008067          	ret

Disassembly of section .data:

0000431c <welcome_msg>:
    431c:	3d3d                	.insn	2, 0x3d3d
    431e:	3d3d                	.insn	2, 0x3d3d
    4320:	3d3d                	.insn	2, 0x3d3d
    4322:	3d3d                	.insn	2, 0x3d3d
    4324:	3d3d                	.insn	2, 0x3d3d
    4326:	3d3d                	.insn	2, 0x3d3d
    4328:	3d3d                	.insn	2, 0x3d3d
    432a:	3d3d                	.insn	2, 0x3d3d
    432c:	3d3d                	.insn	2, 0x3d3d
    432e:	3d3d                	.insn	2, 0x3d3d
    4330:	3d3d                	.insn	2, 0x3d3d
    4332:	3d3d                	.insn	2, 0x3d3d
    4334:	3d3d                	.insn	2, 0x3d3d
    4336:	3d3d                	.insn	2, 0x3d3d
    4338:	3d3d                	.insn	2, 0x3d3d
    433a:	3d3d                	.insn	2, 0x3d3d
    433c:	3d3d                	.insn	2, 0x3d3d
    433e:	3d3d                	.insn	2, 0x3d3d
    4340:	3d3d                	.insn	2, 0x3d3d
    4342:	3d3d                	.insn	2, 0x3d3d
    4344:	3d3d                	.insn	2, 0x3d3d
    4346:	3d3d                	.insn	2, 0x3d3d
    4348:	3d3d                	.insn	2, 0x3d3d
    434a:	3d3d                	.insn	2, 0x3d3d
    434c:	3d0a                	.insn	2, 0x3d0a
    434e:	3d3d                	.insn	2, 0x3d3d
    4350:	3d3d                	.insn	2, 0x3d3d
    4352:	5220                	.insn	2, 0x5220
    4354:	5349                	.insn	2, 0x5349
    4356:	20562d43          	.insn	4, 0x20562d43
    435a:	6f42                	.insn	2, 0x6f42
    435c:	552d746f          	jal	s0,db8ae <__global_pointer+0xd6cb5>
    4360:	2070                	.insn	2, 0x2070
    4362:	7250                	.insn	2, 0x7250
    4364:	7365636f          	jal	t1,5aa9a <__global_pointer+0x55ea1>
    4368:	6f4e2073          	csrs	0x6f4,t3
    436c:	6f432077          	.insn	4, 0x6f432077
    4370:	706d                	.insn	2, 0x706d
    4372:	656c                	.insn	2, 0x656c
    4374:	6574                	.insn	2, 0x6574
    4376:	3d20                	.insn	2, 0x3d20
    4378:	3d3d                	.insn	2, 0x3d3d
    437a:	3d3d                	.insn	2, 0x3d3d
    437c:	0a3d                	.insn	2, 0x0a3d
    437e:	3d3d                	.insn	2, 0x3d3d
    4380:	3d3d                	.insn	2, 0x3d3d
    4382:	3d3d                	.insn	2, 0x3d3d
    4384:	3d3d                	.insn	2, 0x3d3d
    4386:	3d3d                	.insn	2, 0x3d3d
    4388:	3d3d                	.insn	2, 0x3d3d
    438a:	3d3d                	.insn	2, 0x3d3d
    438c:	3d3d                	.insn	2, 0x3d3d
    438e:	3d3d                	.insn	2, 0x3d3d
    4390:	3d3d                	.insn	2, 0x3d3d
    4392:	3d3d                	.insn	2, 0x3d3d
    4394:	3d3d                	.insn	2, 0x3d3d
    4396:	3d3d                	.insn	2, 0x3d3d
    4398:	3d3d                	.insn	2, 0x3d3d
    439a:	3d3d                	.insn	2, 0x3d3d
    439c:	3d3d                	.insn	2, 0x3d3d
    439e:	3d3d                	.insn	2, 0x3d3d
    43a0:	3d3d                	.insn	2, 0x3d3d
    43a2:	3d3d                	.insn	2, 0x3d3d
    43a4:	3d3d                	.insn	2, 0x3d3d
    43a6:	3d3d                	.insn	2, 0x3d3d
    43a8:	3d3d                	.insn	2, 0x3d3d
    43aa:	3d3d                	.insn	2, 0x3d3d
    43ac:	3d3d                	.insn	2, 0x3d3d
    43ae:	000a                	.insn	2, 0x000a

000043b0 <mytime>:
    43b0:	00005957          	.insn	4, 0x5957

000043b4 <timstr>:
    43b4:	6574                	.insn	2, 0x6574
    43b6:	7478                	.insn	2, 0x7478
    43b8:	6d20                	.insn	2, 0x6d20
    43ba:	2065726f          	jal	tp,5b5c0 <__global_pointer+0x569c7>
    43be:	6574                	.insn	2, 0x6574
    43c0:	7478                	.insn	2, 0x7478
    43c2:	6c20                	.insn	2, 0x6c20
    43c4:	2073746f          	jal	s0,3bdca <__global_pointer+0x371d1>
    43c8:	7420666f          	jal	a2,ab0a <__global_pointer+0x5f11>
    43cc:	7865                	.insn	2, 0x7865
    43ce:	0074                	.insn	2, 0x0074
    43d0:	0000                	.insn	2, 0x0000
	...

000043d4 <textstring>:
    43d4:	6574                	.insn	2, 0x6574
    43d6:	7478                	.insn	2, 0x7478
    43d8:	202c                	.insn	2, 0x202c
    43da:	6f6d                	.insn	2, 0x6f6d
    43dc:	6572                	.insn	2, 0x6572
    43de:	7420                	.insn	2, 0x7420
    43e0:	7865                	.insn	2, 0x7865
    43e2:	2c74                	.insn	2, 0x2c74
    43e4:	6120                	.insn	2, 0x6120
    43e6:	646e                	.insn	2, 0x646e
    43e8:	6520                	.insn	2, 0x6520
    43ea:	6576                	.insn	2, 0x6576
    43ec:	206e                	.insn	2, 0x206e
    43ee:	6f6d                	.insn	2, 0x6f6d
    43f0:	6572                	.insn	2, 0x6572
    43f2:	7420                	.insn	2, 0x7420
    43f4:	7865                	.insn	2, 0x7865
    43f6:	2174                	.insn	2, 0x2174
    43f8:	0000                	.insn	2, 0x0000
	...

000043fc <current_room>:
    43fc:	0001                	.insn	2, 0x0001
	...

00004400 <alive>:
    4400:	0001                	.insn	2, 0x0001
	...

00004404 <prime>:
    4404:	0012d687          	.insn	4, 0x0012d687

Disassembly of section .rodata:

00004888 <.rodata>:
    4888:	2024                	.insn	2, 0x2024
    488a:	0000                	.insn	2, 0x0000
    488c:	2148                	.insn	2, 0x2148
    488e:	0000                	.insn	2, 0x0000
    4890:	2108                	.insn	2, 0x2108
    4892:	0000                	.insn	2, 0x0000
    4894:	20c8                	.insn	2, 0x20c8
    4896:	0000                	.insn	2, 0x0000
    4898:	2088                	.insn	2, 0x2088
    489a:	0000                	.insn	2, 0x0000
    489c:	2074                	.insn	2, 0x2074
    489e:	0000                	.insn	2, 0x0000
    48a0:	00c0                	.insn	2, 0x00c0
    48a2:	0000                	.insn	2, 0x0000
    48a4:	00f9                	.insn	2, 0x00f9
    48a6:	0000                	.insn	2, 0x0000
    48a8:	00a4                	.insn	2, 0x00a4
    48aa:	0000                	.insn	2, 0x0000
    48ac:	00b0                	.insn	2, 0x00b0
    48ae:	0000                	.insn	2, 0x0000
    48b0:	0099                	.insn	2, 0x0099
    48b2:	0000                	.insn	2, 0x0000
    48b4:	0092                	.insn	2, 0x0092
    48b6:	0000                	.insn	2, 0x0000
    48b8:	0082                	.insn	2, 0x0082
    48ba:	0000                	.insn	2, 0x0000
    48bc:	00f8                	.insn	2, 0x00f8
    48be:	0000                	.insn	2, 0x0000
    48c0:	0080                	.insn	2, 0x0080
    48c2:	0000                	.insn	2, 0x0000
    48c4:	0090                	.insn	2, 0x0090
    48c6:	0000                	.insn	2, 0x0000
    48c8:	0040                	.insn	2, 0x0040
    48ca:	0000                	.insn	2, 0x0000
    48cc:	0079                	.insn	2, 0x0079
    48ce:	0000                	.insn	2, 0x0000
    48d0:	0024                	.insn	2, 0x0024
    48d2:	0000                	.insn	2, 0x0000
    48d4:	0030                	.insn	2, 0x0030
    48d6:	0000                	.insn	2, 0x0000
    48d8:	0019                	.insn	2, 0x0019
    48da:	0000                	.insn	2, 0x0000
    48dc:	0012                	.insn	2, 0x0012
    48de:	0000                	.insn	2, 0x0000
    48e0:	0002                	.insn	2, 0x0002
    48e2:	0000                	.insn	2, 0x0000
    48e4:	0078                	.insn	2, 0x0078
    48e6:	0000                	.insn	2, 0x0000
    48e8:	0000                	.insn	2, 0x0000
    48ea:	0000                	.insn	2, 0x0000
    48ec:	0010                	.insn	2, 0x0010
    48ee:	0000                	.insn	2, 0x0000
    48f0:	6698                	.insn	2, 0x6698
    48f2:	0000                	.insn	2, 0x0000
    48f4:	66b0                	.insn	2, 0x66b0
    48f6:	0000                	.insn	2, 0x0000
    48f8:	66c0                	.insn	2, 0x66c0
    48fa:	0000                	.insn	2, 0x0000
    48fc:	6710                	.insn	2, 0x6710
    48fe:	0000                	.insn	2, 0x0000
    4900:	673c                	.insn	2, 0x673c
    4902:	0000                	.insn	2, 0x0000
    4904:	0000                	.insn	2, 0x0000
    4906:	0000                	.insn	2, 0x0000
    4908:	6460                	.insn	2, 0x6460
    490a:	0000                	.insn	2, 0x0000
    490c:	656c                	.insn	2, 0x656c
    490e:	0000                	.insn	2, 0x0000
    4910:	658c                	.insn	2, 0x658c
    4912:	0000                	.insn	2, 0x0000
    4914:	65a4                	.insn	2, 0x65a4
    4916:	0000                	.insn	2, 0x0000
    4918:	6664                	.insn	2, 0x6664
    491a:	0000                	.insn	2, 0x0000
    491c:	6340                	.insn	2, 0x6340
    491e:	0000                	.insn	2, 0x0000
    4920:	63dc                	.insn	2, 0x63dc
    4922:	0000                	.insn	2, 0x0000
    4924:	63f4                	.insn	2, 0x63f4
    4926:	0000                	.insn	2, 0x0000
    4928:	6404                	.insn	2, 0x6404
    492a:	0000                	.insn	2, 0x0000
    492c:	642c                	.insn	2, 0x642c
	...

Disassembly of section .rodata.str1.4:

00004930 <.rodata.str1.4>:
    4930:	6d65                	.insn	2, 0x6d65
    4932:	7470                	.insn	2, 0x7470
    4934:	0079                	.insn	2, 0x0079
    4936:	0000                	.insn	2, 0x0000
    4938:	6f4c                	.insn	2, 0x6f4c
    493a:	676e                	.insn	2, 0x676e
    493c:	726f7773          	csrrci	a4,mhpmevent6h,30
    4940:	0064                	.insn	2, 0x0064
    4942:	0000                	.insn	2, 0x0000
    4944:	726f6853          	.insn	4, 0x726f6853
    4948:	7374                	.insn	2, 0x7374
    494a:	64726f77          	.insn	4, 0x64726f77
    494e:	0000                	.insn	2, 0x0000
    4950:	6144                	.insn	2, 0x6144
    4952:	72656767          	.insn	4, 0x72656767
    4956:	0000                	.insn	2, 0x0000
    4958:	490a                	.insn	2, 0x490a
    495a:	766e                	.insn	2, 0x766e
    495c:	6e65                	.insn	2, 0x6e65
    495e:	6f74                	.insn	2, 0x6f74
    4960:	7972                	.insn	2, 0x7972
    4962:	6620                	.insn	2, 0x6620
    4964:	6c75                	.insn	2, 0x6c75
    4966:	216c                	.insn	2, 0x216c
    4968:	0000                	.insn	2, 0x0000
    496a:	0000                	.insn	2, 0x0000
    496c:	590a                	.insn	2, 0x590a
    496e:	6820756f          	jal	a0,bff0 <__global_pointer+0x73f7>
    4972:	7661                	.insn	2, 0x7661
    4974:	2065                	.insn	2, 0x2065
    4976:	0000                	.insn	2, 0x0000
    4978:	6e49                	.insn	2, 0x6e49
    497a:	6576                	.insn	2, 0x6576
    497c:	746e                	.insn	2, 0x746e
    497e:	3a79726f          	jal	tp,9c524 <__global_pointer+0x9792b>
    4982:	000a                	.insn	2, 0x000a
    4984:	5f5f 5f5f 0a5f      	.insn	6, 0x0a5f5f5f5f5f
    498a:	0000                	.insn	2, 0x0000
    498c:	5b0a                	.insn	2, 0x5b0a
    498e:	5845                	.insn	2, 0x5845
    4990:	54504543          	.insn	4, 0x54504543
    4994:	4f49                	.insn	2, 0x4f49
    4996:	5d4e                	.insn	2, 0x5d4e
    4998:	4920                	.insn	2, 0x4920
    499a:	736e                	.insn	2, 0x736e
    499c:	7274                	.insn	2, 0x7274
    499e:	6375                	.insn	2, 0x6375
    49a0:	6974                	.insn	2, 0x6974
    49a2:	61206e6f          	jal	t3,afb4 <__global_pointer+0x63bb>
    49a6:	6464                	.insn	2, 0x6464
    49a8:	6572                	.insn	2, 0x6572
    49aa:	6d207373          	csrrci	t1,0x6d2,0
    49ae:	7369                	.insn	2, 0x7369
    49b0:	6c61                	.insn	2, 0x6c61
    49b2:	6769                	.insn	2, 0x6769
    49b4:	6d6e                	.insn	2, 0x6d6e
    49b6:	6e65                	.insn	2, 0x6e65
    49b8:	2e74                	.insn	2, 0x2e74
    49ba:	0020                	.insn	2, 0x0020
    49bc:	5b0a                	.insn	2, 0x5b0a
    49be:	5845                	.insn	2, 0x5845
    49c0:	54504543          	.insn	4, 0x54504543
    49c4:	4f49                	.insn	2, 0x4f49
    49c6:	5d4e                	.insn	2, 0x5d4e
    49c8:	4920                	.insn	2, 0x4920
    49ca:	6c6c                	.insn	2, 0x6c6c
    49cc:	6765                	.insn	2, 0x6765
    49ce:	6c61                	.insn	2, 0x6c61
    49d0:	6920                	.insn	2, 0x6920
    49d2:	736e                	.insn	2, 0x736e
    49d4:	7274                	.insn	2, 0x7274
    49d6:	6375                	.insn	2, 0x6375
    49d8:	6974                	.insn	2, 0x6974
    49da:	202e6e6f          	jal	t3,eabdc <__global_pointer+0xe5fe3>
    49de:	0000                	.insn	2, 0x0000
    49e0:	5b0a                	.insn	2, 0x5b0a
    49e2:	5845                	.insn	2, 0x5845
    49e4:	54504543          	.insn	4, 0x54504543
    49e8:	4f49                	.insn	2, 0x4f49
    49ea:	5d4e                	.insn	2, 0x5d4e
    49ec:	5520                	.insn	2, 0x5520
    49ee:	6b6e                	.insn	2, 0x6b6e
    49f0:	6f6e                	.insn	2, 0x6f6e
    49f2:	65206e77          	.insn	4, 0x65206e77
    49f6:	7272                	.insn	2, 0x7272
    49f8:	202e726f          	jal	tp,ebbfa <__global_pointer+0xe7001>
    49fc:	0000                	.insn	2, 0x0000
    49fe:	0000                	.insn	2, 0x0000
    4a00:	7845                	.insn	2, 0x7845
    4a02:	74706563          	bltu	zero,t2,514c <__global_pointer+0x553>
    4a06:	6f69                	.insn	2, 0x6f69
    4a08:	206e                	.insn	2, 0x206e
    4a0a:	6441                	.insn	2, 0x6441
    4a0c:	7264                	.insn	2, 0x7264
    4a0e:	7365                	.insn	2, 0x7365
    4a10:	00203a73          	csrrc	s4,frm,zero
    4a14:	6f59                	.insn	2, 0x6f59
    4a16:	2075                	.insn	2, 0x2075
    4a18:	656c                	.insn	2, 0x656c
    4a1a:	7661                	.insn	2, 0x7661
    4a1c:	2065                	.insn	2, 0x2065
    4a1e:	6874                	.insn	2, 0x6874
    4a20:	2065                	.insn	2, 0x2065
    4a22:	0000                	.insn	2, 0x0000
    4a24:	0a2e                	.insn	2, 0x0a2e
    4a26:	570a                	.insn	2, 0x570a
    4a28:	6568                	.insn	2, 0x6568
    4a2a:	6572                	.insn	2, 0x6572
    4a2c:	7720                	.insn	2, 0x7720
    4a2e:	646c756f          	jal	a0,cc074 <__global_pointer+0xc747b>
    4a32:	7920                	.insn	2, 0x7920
    4a34:	6c20756f          	jal	a0,c0f6 <__global_pointer+0x74fd>
    4a38:	6b69                	.insn	2, 0x6b69
    4a3a:	2065                	.insn	2, 0x2065
    4a3c:	6f74                	.insn	2, 0x6f74
    4a3e:	6720                	.insn	2, 0x6720
    4a40:	000a3f6f          	jal	t5,a7a40 <__global_pointer+0xa2e47>
    4a44:	590a                	.insn	2, 0x590a
    4a46:	6520756f          	jal	a0,c098 <__global_pointer+0x749f>
    4a4a:	636e                	.insn	2, 0x636e
    4a4c:	746e756f          	jal	a0,ec192 <__global_pointer+0xe7599>
    4a50:	7265                	.insn	2, 0x7265
    4a52:	6120                	.insn	2, 0x6120
    4a54:	0020                	.insn	2, 0x0020
    4a56:	0000                	.insn	2, 0x0000
    4a58:	570a                	.insn	2, 0x570a
    4a5a:	6168                	.insn	2, 0x6168
    4a5c:	2074                	.insn	2, 0x2074
    4a5e:	6f64                	.insn	2, 0x6f64
    4a60:	7920                	.insn	2, 0x7920
    4a62:	6420756f          	jal	a0,c0a4 <__global_pointer+0x74ab>
    4a66:	6f6e206f          	j	e715c <__global_pointer+0xe2563>
    4a6a:	0a203f77          	.insn	4, 0x0a203f77
    4a6e:	2e31                	.insn	2, 0x2e31
    4a70:	4120                	.insn	2, 0x4120
    4a72:	7474                	.insn	2, 0x7474
    4a74:	6361                	.insn	2, 0x6361
    4a76:	320a206b          	.insn	4, 0x320a206b
    4a7a:	202e                	.insn	2, 0x202e
    4a7c:	6544                	.insn	2, 0x6544
    4a7e:	6566                	.insn	2, 0x6566
    4a80:	646e                	.insn	2, 0x646e
    4a82:	0a20                	.insn	2, 0x0a20
    4a84:	48202e33          	.insn	4, 0x48202e33
    4a88:	6165                	.insn	2, 0x6165
    4a8a:	206c                	.insn	2, 0x206c
    4a8c:	340a                	.insn	2, 0x340a
    4a8e:	202e                	.insn	2, 0x202e
    4a90:	6c46                	.insn	2, 0x6c46
    4a92:	6565                	.insn	2, 0x6565
    4a94:	000a                	.insn	2, 0x000a
    4a96:	0000                	.insn	2, 0x0000
    4a98:	590a                	.insn	2, 0x590a
    4a9a:	6320756f          	jal	a0,c0cc <__global_pointer+0x74d3>
    4a9e:	6f68                	.insn	2, 0x6f68
    4aa0:	2065736f          	jal	t1,5bca6 <__global_pointer+0x570ad>
    4aa4:	6f74                	.insn	2, 0x6f74
    4aa6:	4120                	.insn	2, 0x4120
    4aa8:	7474                	.insn	2, 0x7474
    4aaa:	6361                	.insn	2, 0x6361
    4aac:	000a2e6b          	.insn	4, 0x000a2e6b
    4ab0:	590a                	.insn	2, 0x590a
    4ab2:	7020756f          	jal	a0,c1b4 <__global_pointer+0x75bb>
    4ab6:	6e75                	.insn	2, 0x6e75
    4ab8:	74206863          	bltu	zero,sp,5208 <__global_pointer+0x60f>
    4abc:	6568                	.insn	2, 0x6568
    4abe:	0020                	.insn	2, 0x0020
    4ac0:	6120                	.insn	2, 0x6120
    4ac2:	646e                	.insn	2, 0x646e
    4ac4:	7920                	.insn	2, 0x7920
    4ac6:	6820756f          	jal	a0,c148 <__global_pointer+0x754f>
    4aca:	7469                	.insn	2, 0x7469
    4acc:	0a21                	.insn	2, 0x0a21
    4ace:	0000                	.insn	2, 0x0000
    4ad0:	590a                	.insn	2, 0x590a
    4ad2:	7320756f          	jal	a0,c204 <__global_pointer+0x760b>
    4ad6:	676e6977          	.insn	4, 0x676e6977
    4ada:	7920                	.insn	2, 0x7920
    4adc:	2072756f          	jal	a0,2c4e2 <__global_pointer+0x278e9>
    4ae0:	726f7773          	csrrci	a4,mhpmevent6h,30
    4ae4:	2064                	.insn	2, 0x2064
    4ae6:	7461                	.insn	2, 0x7461
    4ae8:	7420                	.insn	2, 0x7420
    4aea:	6568                	.insn	2, 0x6568
    4aec:	0020                	.insn	2, 0x0020
    4aee:	0000                	.insn	2, 0x0000
    4af0:	590a                	.insn	2, 0x590a
    4af2:	6420756f          	jal	a0,c134 <__global_pointer+0x753b>
    4af6:	6665                	.insn	2, 0x6665
    4af8:	6165                	.insn	2, 0x6165
    4afa:	6574                	.insn	2, 0x6574
    4afc:	2064                	.insn	2, 0x2064
    4afe:	6874                	.insn	2, 0x6874
    4b00:	2065                	.insn	2, 0x2065
    4b02:	0000                	.insn	2, 0x0000
    4b04:	6120                	.insn	2, 0x6120
    4b06:	646e                	.insn	2, 0x646e
    4b08:	6720                	.insn	2, 0x6720
    4b0a:	7320746f          	jal	s0,c23c <__global_pointer+0x7643>
    4b0e:	20656d6f          	jal	s10,5ad14 <__global_pointer+0x5611b>
    4b12:	6f6c                	.insn	2, 0x6f6c
    4b14:	0a21746f          	jal	s0,1bbb6 <__global_pointer+0x16fbd>
    4b18:	2b20                	.insn	2, 0x2b20
    4b1a:	2031                	.insn	2, 0x2031
    4b1c:	0000                	.insn	2, 0x0000
    4b1e:	0000                	.insn	2, 0x0000
    4b20:	6f59                	.insn	2, 0x6f59
    4b22:	2075                	.insn	2, 0x2075
    4b24:	20656573          	csrrsi	a0,0x206,10
    4b28:	6874                	.insn	2, 0x6874
    4b2a:	7461                	.insn	2, 0x7461
    4b2c:	7420                	.insn	2, 0x7420
    4b2e:	6568                	.insn	2, 0x6568
    4b30:	0020                	.insn	2, 0x0020
    4b32:	0000                	.insn	2, 0x0000
    4b34:	6820                	.insn	2, 0x6820
    4b36:	7361                	.insn	2, 0x7361
    4b38:	6120                	.insn	2, 0x6120
    4b3a:	6d6c                	.insn	2, 0x6d6c
    4b3c:	2074736f          	jal	t1,4c542 <__global_pointer+0x47949>
    4b40:	6f6e                	.insn	2, 0x6f6e
    4b42:	6620                	.insn	2, 0x6620
    4b44:	6769                	.insn	2, 0x6769
    4b46:	7468                	.insn	2, 0x7468
    4b48:	6c20                	.insn	2, 0x6c20
    4b4a:	6665                	.insn	2, 0x6665
    4b4c:	2074                	.insn	2, 0x2074
    4b4e:	6e69                	.insn	2, 0x6e69
    4b50:	7420                	.insn	2, 0x7420
    4b52:	6568                	.insn	2, 0x6568
    4b54:	2e6d                	.insn	2, 0x2e6d
    4b56:	000a                	.insn	2, 0x000a
    4b58:	6920                	.insn	2, 0x6920
    4b5a:	6c622073          	csrs	0x6c6,tp
    4b5e:	6565                	.insn	2, 0x6565
    4b60:	6964                	.insn	2, 0x6964
    4b62:	676e                	.insn	2, 0x676e
    4b64:	0a2e                	.insn	2, 0x0a2e
    4b66:	0000                	.insn	2, 0x0000
    4b68:	590a                	.insn	2, 0x590a
    4b6a:	6320756f          	jal	a0,c19c <__global_pointer+0x75a3>
    4b6e:	6f68                	.insn	2, 0x6f68
    4b70:	2065736f          	jal	t1,5bd76 <__global_pointer+0x5717d>
    4b74:	6f74                	.insn	2, 0x6f74
    4b76:	4420                	.insn	2, 0x4420
    4b78:	6665                	.insn	2, 0x6665
    4b7a:	6e65                	.insn	2, 0x6e65
    4b7c:	2e64                	.insn	2, 0x2e64
    4b7e:	000a                	.insn	2, 0x000a
    4b80:	590a                	.insn	2, 0x590a
    4b82:	7320756f          	jal	a0,c2b4 <__global_pointer+0x76bb>
    4b86:	6574                	.insn	2, 0x6574
    4b88:	6461                	.insn	2, 0x6461
    4b8a:	2079                	.insn	2, 0x2079
    4b8c:	6f79                	.insn	2, 0x6f79
    4b8e:	7275                	.insn	2, 0x7275
    4b90:	6620                	.insn	2, 0x6620
    4b92:	6565                	.insn	2, 0x6565
    4b94:	2074                	.insn	2, 0x2074
    4b96:	6e61                	.insn	2, 0x6e61
    4b98:	2064                	.insn	2, 0x2064
    4b9a:	7262                	.insn	2, 0x7262
    4b9c:	6361                	.insn	2, 0x6361
    4b9e:	2065                	.insn	2, 0x2065
    4ba0:	6f79                	.insn	2, 0x6f79
    4ba2:	7275                	.insn	2, 0x7275
    4ba4:	666c6573          	csrrsi	a0,0x666,24
    4ba8:	7420                	.insn	2, 0x7420
    4baa:	6564206f          	j	47200 <__global_pointer+0x42607>
    4bae:	6566                	.insn	2, 0x6566
    4bb0:	646e                	.insn	2, 0x646e
    4bb2:	7420                	.insn	2, 0x7420
    4bb4:	6568                	.insn	2, 0x6568
    4bb6:	6920                	.insn	2, 0x6920
    4bb8:	636e                	.insn	2, 0x636e
    4bba:	6e696d6f          	jal	s10,9b2a0 <__global_pointer+0x966a7>
    4bbe:	74612067          	.insn	4, 0x74612067
    4bc2:	6174                	.insn	2, 0x6174
    4bc4:	0a2e6b63          	bltu	t3,sp,4c7a <__global_pointer+0x81>
    4bc8:	0000                	.insn	2, 0x0000
    4bca:	0000                	.insn	2, 0x0000
    4bcc:	0a0a                	.insn	2, 0x0a0a
    4bce:	6854                	.insn	2, 0x6854
    4bd0:	2065                	.insn	2, 0x2065
    4bd2:	0000                	.insn	2, 0x0000
    4bd4:	6320                	.insn	2, 0x6320
    4bd6:	6168                	.insn	2, 0x6168
    4bd8:	6772                	.insn	2, 0x6772
    4bda:	7365                	.insn	2, 0x7365
    4bdc:	7420                	.insn	2, 0x7420
    4bde:	7261776f          	jal	a4,1c304 <__global_pointer+0x1770b>
    4be2:	7364                	.insn	2, 0x7364
    4be4:	7920                	.insn	2, 0x7920
    4be6:	202c756f          	jal	a0,cbde8 <__global_pointer+0xc71ef>
    4bea:	7270                	.insn	2, 0x7270
    4bec:	7065                	.insn	2, 0x7065
    4bee:	7261                	.insn	2, 0x7261
    4bf0:	6e69                	.insn	2, 0x6e69
    4bf2:	6f742067          	.insn	4, 0x6f742067
    4bf6:	6120                	.insn	2, 0x6120
    4bf8:	7474                	.insn	2, 0x7474
    4bfa:	6361                	.insn	2, 0x6361
    4bfc:	000a2e6b          	.insn	4, 0x000a2e6b
    4c00:	540a                	.insn	2, 0x540a
    4c02:	6568                	.insn	2, 0x6568
    4c04:	0020                	.insn	2, 0x0020
    4c06:	0000                	.insn	2, 0x0000
    4c08:	6820                	.insn	2, 0x6820
    4c0a:	7469                	.insn	2, 0x7469
    4c0c:	6f792073          	csrs	0x6f7,s2
    4c10:	2175                	.insn	2, 0x2175
    4c12:	0000                	.insn	2, 0x0000
    4c14:	6548                	.insn	2, 0x6548
    4c16:	6c61                	.insn	2, 0x6c61
    4c18:	6874                	.insn	2, 0x6874
    4c1a:	5020                	.insn	2, 0x5020
    4c1c:	6f69746f          	jal	s0,9c312 <__global_pointer+0x97719>
    4c20:	006e                	.insn	2, 0x006e
    4c22:	0000                	.insn	2, 0x0000
    4c24:	590a                	.insn	2, 0x590a
    4c26:	6420756f          	jal	a0,c268 <__global_pointer+0x766f>
    4c2a:	6972                	.insn	2, 0x6972
    4c2c:	6b6e                	.insn	2, 0x6b6e
    4c2e:	6120                	.insn	2, 0x6120
    4c30:	6820                	.insn	2, 0x6820
    4c32:	6165                	.insn	2, 0x6165
    4c34:	746c                	.insn	2, 0x746c
    4c36:	2068                	.insn	2, 0x2068
    4c38:	6f70                	.insn	2, 0x6f70
    4c3a:	6974                	.insn	2, 0x6974
    4c3c:	61206e6f          	jal	t3,b24e <__global_pointer+0x6655>
    4c40:	646e                	.insn	2, 0x646e
    4c42:	6720                	.insn	2, 0x6720
    4c44:	6961                	.insn	2, 0x6961
    4c46:	206e                	.insn	2, 0x206e
    4c48:	656d6f73          	csrrsi	t5,hviprio1h,26
    4c4c:	6820                	.insn	2, 0x6820
    4c4e:	2170                	.insn	2, 0x2170
    4c50:	000a                	.insn	2, 0x000a
    4c52:	0000                	.insn	2, 0x0000
    4c54:	312d                	.insn	2, 0x312d
    4c56:	4820                	.insn	2, 0x4820
    4c58:	6165                	.insn	2, 0x6165
    4c5a:	746c                	.insn	2, 0x746c
    4c5c:	2068                	.insn	2, 0x2068
    4c5e:	6f50                	.insn	2, 0x6f50
    4c60:	6974                	.insn	2, 0x6974
    4c62:	000a6e6f          	jal	t3,aac62 <__global_pointer+0xa6069>
    4c66:	0000                	.insn	2, 0x0000
    4c68:	6f59                	.insn	2, 0x6f59
    4c6a:	2075                	.insn	2, 0x2075
    4c6c:	6f64                	.insn	2, 0x6f64
    4c6e:	276e                	.insn	2, 0x276e
    4c70:	2074                	.insn	2, 0x2074
    4c72:	6168                	.insn	2, 0x6168
    4c74:	6576                	.insn	2, 0x6576
    4c76:	6120                	.insn	2, 0x6120
    4c78:	796e                	.insn	2, 0x796e
    4c7a:	6820                	.insn	2, 0x6820
    4c7c:	6165                	.insn	2, 0x6165
    4c7e:	746c                	.insn	2, 0x746c
    4c80:	2068                	.insn	2, 0x2068
    4c82:	6f70                	.insn	2, 0x6f70
    4c84:	6974                	.insn	2, 0x6974
    4c86:	2e736e6f          	jal	t3,3b76c <__global_pointer+0x36b73>
    4c8a:	000a                	.insn	2, 0x000a
    4c8c:	6f59                	.insn	2, 0x6f59
    4c8e:	2075                	.insn	2, 0x2075
    4c90:	6564                	.insn	2, 0x6564
    4c92:	65646963          	bltu	s0,s6,52e4 <__global_pointer+0x6eb>
    4c96:	7420                	.insn	2, 0x7420
    4c98:	6c66206f          	j	6735e <__global_pointer+0x62765>
    4c9c:	6565                	.insn	2, 0x6565
    4c9e:	6220                	.insn	2, 0x6220
    4ca0:	6361                	.insn	2, 0x6361
    4ca2:	6874206b          	.insn	4, 0x6874206b
    4ca6:	2065                	.insn	2, 0x2065
    4ca8:	20796177          	.insn	4, 0x20796177
    4cac:	6f79                	.insn	2, 0x6f79
    4cae:	2075                	.insn	2, 0x2075
    4cb0:	656d6163          	bltu	s10,s6,52f2 <__global_pointer+0x6f9>
    4cb4:	0a2e                	.insn	2, 0x0a2e
    4cb6:	0000                	.insn	2, 0x0000
    4cb8:	590a                	.insn	2, 0x590a
    4cba:	6420756f          	jal	a0,c2fc <__global_pointer+0x7703>
    4cbe:	6665                	.insn	2, 0x6665
    4cc0:	6e65                	.insn	2, 0x6e65
    4cc2:	2064                	.insn	2, 0x2064
    4cc4:	6761                	.insn	2, 0x6761
    4cc6:	6961                	.insn	2, 0x6961
    4cc8:	736e                	.insn	2, 0x736e
    4cca:	2074                	.insn	2, 0x2074
    4ccc:	6874                	.insn	2, 0x6874
    4cce:	2065                	.insn	2, 0x2065
    4cd0:	7461                	.insn	2, 0x7461
    4cd2:	6174                	.insn	2, 0x6174
    4cd4:	61206b63          	bltu	zero,s2,52ea <__global_pointer+0x6f1>
    4cd8:	646e                	.insn	2, 0x646e
    4cda:	6f20                	.insn	2, 0x6f20
    4cdc:	6c6e                	.insn	2, 0x6c6e
    4cde:	2079                	.insn	2, 0x2079
    4ce0:	6174                	.insn	2, 0x6174
    4ce2:	0020656b          	.insn	4, 0x0020656b
    4ce6:	0000                	.insn	2, 0x0000
    4ce8:	590a                	.insn	2, 0x590a
    4cea:	7420756f          	jal	a0,c42c <__global_pointer+0x7833>
    4cee:	6b61                	.insn	2, 0x6b61
    4cf0:	2065                	.insn	2, 0x2065
    4cf2:	0000                	.insn	2, 0x0000
    4cf4:	6420                	.insn	2, 0x6420
    4cf6:	6d61                	.insn	2, 0x6d61
    4cf8:	6761                	.insn	2, 0x6761
    4cfa:	2e65                	.insn	2, 0x2e65
    4cfc:	000a                	.insn	2, 0x000a
    4cfe:	0000                	.insn	2, 0x0000
    4d00:	590a                	.insn	2, 0x590a
    4d02:	7320756f          	jal	a0,c434 <__global_pointer+0x783b>
    4d06:	7574                	.insn	2, 0x7574
    4d08:	626d                	.insn	2, 0x626d
    4d0a:	656c                	.insn	2, 0x656c
    4d0c:	7420                	.insn	2, 0x7420
    4d0e:	6874206f          	j	47b94 <__global_pointer+0x42f9b>
    4d12:	2065                	.insn	2, 0x2065
    4d14:	756f7267          	.insn	4, 0x756f7267
    4d18:	646e                	.insn	2, 0x646e
    4d1a:	6120                	.insn	2, 0x6120
    4d1c:	646e                	.insn	2, 0x646e
    4d1e:	7920                	.insn	2, 0x7920
    4d20:	7320756f          	jal	a0,c452 <__global_pointer+0x7859>
    4d24:	6769                	.insn	2, 0x6769
    4d26:	7468                	.insn	2, 0x7468
    4d28:	7320                	.insn	2, 0x7320
    4d2a:	6f6c                	.insn	2, 0x6f6c
    4d2c:	20796c77          	.insn	4, 0x20796c77
    4d30:	6166                	.insn	2, 0x6166
    4d32:	6564                	.insn	2, 0x6564
    4d34:	2e2e2e73          	csrrs	t3,0x2e2,t3
    4d38:	000a                	.insn	2, 0x000a
    4d3a:	0000                	.insn	2, 0x0000
    4d3c:	590a                	.insn	2, 0x590a
    4d3e:	7020756f          	jal	a0,c440 <__global_pointer+0x7847>
    4d42:	6c75                	.insn	2, 0x6c75
    4d44:	206c                	.insn	2, 0x206c
    4d46:	6f79                	.insn	2, 0x6f79
    4d48:	7275                	.insn	2, 0x7275
    4d4a:	666c6573          	csrrsi	a0,0x666,24
    4d4e:	7420                	.insn	2, 0x7420
    4d50:	7465676f          	jal	a4,5b496 <__global_pointer+0x5689d>
    4d54:	6568                	.insn	2, 0x6568
    4d56:	2072                	.insn	2, 0x2072
    4d58:	6e61                	.insn	2, 0x6e61
    4d5a:	2064                	.insn	2, 0x2064
    4d5c:	6572                	.insn	2, 0x6572
    4d5e:	6e696167          	.insn	4, 0x6e696167
    4d62:	6620                	.insn	2, 0x6620
    4d64:	7375636f          	jal	t1,5bc9a <__global_pointer+0x570a1>
    4d68:	0a2e                	.insn	2, 0x0a2e
    4d6a:	0000                	.insn	2, 0x0000
    4d6c:	74616857          	.insn	4, 0x74616857
    4d70:	6420                	.insn	2, 0x6420
    4d72:	6f79206f          	j	97c68 <__global_pointer+0x9306f>
    4d76:	2075                	.insn	2, 0x2075
    4d78:	746e6177          	.insn	4, 0x746e6177
    4d7c:	7420                	.insn	2, 0x7420
    4d7e:	6f64206f          	j	47474 <__global_pointer+0x4287b>
    4d82:	310a203f 7542202e 	.insn	8, 0x7542202e310a203f
    4d8a:	2e79                	.insn	2, 0x2e79
    4d8c:	0a20                	.insn	2, 0x0a20
    4d8e:	2e32                	.insn	2, 0x2e32
    4d90:	5320                	.insn	2, 0x5320
    4d92:	6c65                	.insn	2, 0x6c65
    4d94:	2e6c                	.insn	2, 0x2e6c
    4d96:	0a20                	.insn	2, 0x0a20
    4d98:	4c202e33          	.insn	4, 0x4c202e33
    4d9c:	6165                	.insn	2, 0x6165
    4d9e:	6576                	.insn	2, 0x6576
    4da0:	002e                	.insn	2, 0x002e
    4da2:	0000                	.insn	2, 0x0000
    4da4:	570a                	.insn	2, 0x570a
    4da6:	6168                	.insn	2, 0x6168
    4da8:	2074                	.insn	2, 0x2074
    4daa:	6f64                	.insn	2, 0x6f64
    4dac:	7920                	.insn	2, 0x7920
    4dae:	7720756f          	jal	a0,c520 <__global_pointer+0x7927>
    4db2:	6e61                	.insn	2, 0x6e61
    4db4:	2074                	.insn	2, 0x2074
    4db6:	6f74                	.insn	2, 0x6f74
    4db8:	6220                	.insn	2, 0x6220
    4dba:	7975                	.insn	2, 0x7975
    4dbc:	6f590a3f 63207275 	.insn	8, 0x632072756f590a3f
    4dc4:	736e696f          	jal	s2,eb4fa <__global_pointer+0xe6901>
    4dc8:	203a                	.insn	2, 0x203a
    4dca:	0000                	.insn	2, 0x0000
    4dcc:	0a0a                	.insn	2, 0x0a0a
    4dce:	2e31                	.insn	2, 0x2e31
    4dd0:	5320                	.insn	2, 0x5320
    4dd2:	6f68                	.insn	2, 0x6f68
    4dd4:	7472                	.insn	2, 0x7472
    4dd6:	726f7773          	csrrci	a4,mhpmevent6h,30
    4dda:	2064                	.insn	2, 0x2064
    4ddc:	202d                	.insn	2, 0x202d
    4dde:	63203537          	lui	a0,0x63203
    4de2:	736e696f          	jal	s2,eb518 <__global_pointer+0xe691f>
    4de6:	202e                	.insn	2, 0x202e
    4de8:	320a                	.insn	2, 0x320a
    4dea:	202e                	.insn	2, 0x202e
    4dec:	6548                	.insn	2, 0x6548
    4dee:	6c61                	.insn	2, 0x6c61
    4df0:	6874                	.insn	2, 0x6874
    4df2:	5020                	.insn	2, 0x5020
    4df4:	6f69746f          	jal	s0,9c4ea <__global_pointer+0x978f1>
    4df8:	206e                	.insn	2, 0x206e
    4dfa:	202d                	.insn	2, 0x202d
    4dfc:	3532                	.insn	2, 0x3532
    4dfe:	6320                	.insn	2, 0x6320
    4e00:	736e696f          	jal	s2,eb536 <__global_pointer+0xe693d>
    4e04:	0a2e                	.insn	2, 0x0a2e
    4e06:	42202e33          	.insn	4, 0x42202e33
    4e0a:	6361                	.insn	2, 0x6361
    4e0c:	00002e6b          	.insn	4, 0x2e6b
    4e10:	2b0a                	.insn	2, 0x2b0a
    4e12:	2031                	.insn	2, 0x2031
    4e14:	726f6853          	.insn	4, 0x726f6853
    4e18:	7374                	.insn	2, 0x7374
    4e1a:	64726f77          	.insn	4, 0x64726f77
    4e1e:	000a                	.insn	2, 0x000a
    4e20:	590a                	.insn	2, 0x590a
    4e22:	6420756f          	jal	a0,c464 <__global_pointer+0x786b>
    4e26:	74276e6f          	jal	t3,7b568 <__global_pointer+0x7696f>
    4e2a:	6820                	.insn	2, 0x6820
    4e2c:	7661                	.insn	2, 0x7661
    4e2e:	2065                	.insn	2, 0x2065
    4e30:	6e65                	.insn	2, 0x6e65
    4e32:	6867756f          	jal	a0,7c4b8 <__global_pointer+0x778bf>
    4e36:	6d20                	.insn	2, 0x6d20
    4e38:	79656e6f          	jal	t3,5b5ce <__global_pointer+0x569d5>
    4e3c:	7420                	.insn	2, 0x7420
    4e3e:	7562206f          	j	27594 <__global_pointer+0x2299b>
    4e42:	2079                	.insn	2, 0x2079
    4e44:	6874                	.insn	2, 0x6874
    4e46:	7461                	.insn	2, 0x7461
    4e48:	0a2e                	.insn	2, 0x0a2e
    4e4a:	0000                	.insn	2, 0x0000
    4e4c:	2b0a                	.insn	2, 0x2b0a
    4e4e:	2031                	.insn	2, 0x2031
    4e50:	6548                	.insn	2, 0x6548
    4e52:	6c61                	.insn	2, 0x6c61
    4e54:	6874                	.insn	2, 0x6874
    4e56:	5020                	.insn	2, 0x5020
    4e58:	6f69746f          	jal	s0,9c54e <__global_pointer+0x97955>
    4e5c:	0a6e                	.insn	2, 0x0a6e
    4e5e:	0000                	.insn	2, 0x0000
    4e60:	6f59                	.insn	2, 0x6f59
    4e62:	2075                	.insn	2, 0x2075
    4e64:	6f64                	.insn	2, 0x6f64
    4e66:	276e                	.insn	2, 0x276e
    4e68:	2074                	.insn	2, 0x2074
    4e6a:	6168                	.insn	2, 0x6168
    4e6c:	6576                	.insn	2, 0x6576
    4e6e:	6520                	.insn	2, 0x6520
    4e70:	6f6e                	.insn	2, 0x6f6e
    4e72:	6775                	.insn	2, 0x6775
    4e74:	2068                	.insn	2, 0x2068
    4e76:	6f6d                	.insn	2, 0x6f6d
    4e78:	656e                	.insn	2, 0x656e
    4e7a:	2079                	.insn	2, 0x2079
    4e7c:	6f74                	.insn	2, 0x6f74
    4e7e:	6220                	.insn	2, 0x6220
    4e80:	7975                	.insn	2, 0x7975
    4e82:	7420                	.insn	2, 0x7420
    4e84:	6168                	.insn	2, 0x6168
    4e86:	2e74                	.insn	2, 0x2e74
    4e88:	0000                	.insn	2, 0x0000
    4e8a:	0000                	.insn	2, 0x0000
    4e8c:	570a                	.insn	2, 0x570a
    4e8e:	6168                	.insn	2, 0x6168
    4e90:	2074                	.insn	2, 0x2074
    4e92:	6f64                	.insn	2, 0x6f64
    4e94:	7920                	.insn	2, 0x7920
    4e96:	7720756f          	jal	a0,c608 <__global_pointer+0x7a0f>
    4e9a:	6e61                	.insn	2, 0x6e61
    4e9c:	2074                	.insn	2, 0x2074
    4e9e:	6f74                	.insn	2, 0x6f74
    4ea0:	7320                	.insn	2, 0x7320
    4ea2:	6c65                	.insn	2, 0x6c65
    4ea4:	3f6c                	.insn	2, 0x3f6c
    4ea6:	0a20                	.insn	2, 0x0a20
    4ea8:	2e31                	.insn	2, 0x2e31
    4eaa:	4c20                	.insn	2, 0x4c20
    4eac:	73676e6f          	jal	t3,7b5e2 <__global_pointer+0x769e9>
    4eb0:	64726f77          	.insn	4, 0x64726f77
    4eb4:	2d20                	.insn	2, 0x2d20
    4eb6:	3720                	.insn	2, 0x3720
    4eb8:	2035                	.insn	2, 0x2035
    4eba:	6e696f63          	bltu	s2,t1,55b8 <__global_pointer+0x9bf>
    4ebe:	320a2073          	csrs	mcountinhibit,s4
    4ec2:	202e                	.insn	2, 0x202e
    4ec4:	6548                	.insn	2, 0x6548
    4ec6:	746c                	.insn	2, 0x746c
    4ec8:	2068                	.insn	2, 0x2068
    4eca:	6f50                	.insn	2, 0x6f50
    4ecc:	6974                	.insn	2, 0x6974
    4ece:	2d206e6f          	jal	t3,b1a0 <__global_pointer+0x65a7>
    4ed2:	3220                	.insn	2, 0x3220
    4ed4:	2030                	.insn	2, 0x2030
    4ed6:	6e696f63          	bltu	s2,t1,55d4 <__global_pointer+0x9db>
    4eda:	2e330a73          	.insn	4, 0x2e330a73
    4ede:	5720                	.insn	2, 0x5720
    4ee0:	20666c6f          	jal	s8,6b0e6 <__global_pointer+0x664ed>
    4ee4:	656d                	.insn	2, 0x656d
    4ee6:	7461                	.insn	2, 0x7461
    4ee8:	2d20                	.insn	2, 0x2d20
    4eea:	3120                	.insn	2, 0x3120
    4eec:	3030                	.insn	2, 0x3030
    4eee:	6320                	.insn	2, 0x6320
    4ef0:	736e696f          	jal	s2,eb626 <__global_pointer+0xe6a2d>
    4ef4:	340a                	.insn	2, 0x340a
    4ef6:	202e                	.insn	2, 0x202e
    4ef8:	726f6853          	.insn	4, 0x726f6853
    4efc:	7374                	.insn	2, 0x7374
    4efe:	64726f77          	.insn	4, 0x64726f77
    4f02:	2d20                	.insn	2, 0x2d20
    4f04:	3520                	.insn	2, 0x3520
    4f06:	2030                	.insn	2, 0x2030
    4f08:	6e696f63          	bltu	s2,t1,5606 <__global_pointer+0xa0d>
    4f0c:	0a20                	.insn	2, 0x0a20
    4f0e:	2e35                	.insn	2, 0x2e35
    4f10:	4220                	.insn	2, 0x4220
    4f12:	6361                	.insn	2, 0x6361
    4f14:	0000006b          	.insn	4, 0x006b
    4f18:	4c0a                	.insn	2, 0x4c0a
    4f1a:	73676e6f          	jal	t3,7b650 <__global_pointer+0x76a57>
    4f1e:	64726f77          	.insn	4, 0x64726f77
    4f22:	7320                	.insn	2, 0x7320
    4f24:	20646c6f          	jal	s8,4b12a <__global_pointer+0x46531>
    4f28:	2b0a                	.insn	2, 0x2b0a
    4f2a:	63203537          	lui	a0,0x63203
    4f2e:	736e696f          	jal	s2,eb664 <__global_pointer+0xe6a6b>
    4f32:	000a                	.insn	2, 0x000a
    4f34:	590a                	.insn	2, 0x590a
    4f36:	6420756f          	jal	a0,c578 <__global_pointer+0x797f>
    4f3a:	74276e6f          	jal	t3,7b67c <__global_pointer+0x76a83>
    4f3e:	6820                	.insn	2, 0x6820
    4f40:	7661                	.insn	2, 0x7661
    4f42:	2065                	.insn	2, 0x2065
    4f44:	2061                	.insn	2, 0x2061
    4f46:	6f4c                	.insn	2, 0x6f4c
    4f48:	676e                	.insn	2, 0x676e
    4f4a:	726f7773          	csrrci	a4,mhpmevent6h,30
    4f4e:	2064                	.insn	2, 0x2064
    4f50:	6f74                	.insn	2, 0x6f74
    4f52:	7320                	.insn	2, 0x7320
    4f54:	6c65                	.insn	2, 0x6c65
    4f56:	2e6c                	.insn	2, 0x2e6c
    4f58:	000a                	.insn	2, 0x000a
    4f5a:	0000                	.insn	2, 0x0000
    4f5c:	480a                	.insn	2, 0x480a
    4f5e:	6165                	.insn	2, 0x6165
    4f60:	746c                	.insn	2, 0x746c
    4f62:	2068                	.insn	2, 0x2068
    4f64:	6f50                	.insn	2, 0x6f50
    4f66:	6974                	.insn	2, 0x6974
    4f68:	73206e6f          	jal	t3,b69a <__global_pointer+0x6aa1>
    4f6c:	20646c6f          	jal	s8,4b172 <__global_pointer+0x46579>
    4f70:	2b0a                	.insn	2, 0x2b0a
    4f72:	3032                	.insn	2, 0x3032
    4f74:	6320                	.insn	2, 0x6320
    4f76:	736e696f          	jal	s2,eb6ac <__global_pointer+0xe6ab3>
    4f7a:	000a                	.insn	2, 0x000a
    4f7c:	590a                	.insn	2, 0x590a
    4f7e:	6420756f          	jal	a0,c5c0 <__global_pointer+0x79c7>
    4f82:	74276e6f          	jal	t3,7b6c4 <__global_pointer+0x76acb>
    4f86:	6820                	.insn	2, 0x6820
    4f88:	7661                	.insn	2, 0x7661
    4f8a:	2065                	.insn	2, 0x2065
    4f8c:	2061                	.insn	2, 0x2061
    4f8e:	6548                	.insn	2, 0x6548
    4f90:	6c61                	.insn	2, 0x6c61
    4f92:	6874                	.insn	2, 0x6874
    4f94:	5020                	.insn	2, 0x5020
    4f96:	6f69746f          	jal	s0,9c68c <__global_pointer+0x97a93>
    4f9a:	206e                	.insn	2, 0x206e
    4f9c:	6f74                	.insn	2, 0x6f74
    4f9e:	7320                	.insn	2, 0x7320
    4fa0:	6c65                	.insn	2, 0x6c65
    4fa2:	2e6c                	.insn	2, 0x2e6c
    4fa4:	000a                	.insn	2, 0x000a
    4fa6:	0000                	.insn	2, 0x0000
    4fa8:	666c6f57          	.insn	4, 0x666c6f57
    4fac:	4d20                	.insn	2, 0x4d20
    4fae:	6165                	.insn	2, 0x6165
    4fb0:	0074                	.insn	2, 0x0074
    4fb2:	0000                	.insn	2, 0x0000
    4fb4:	570a                	.insn	2, 0x570a
    4fb6:	20666c6f          	jal	s8,6b1bc <__global_pointer+0x665c3>
    4fba:	654d                	.insn	2, 0x654d
    4fbc:	7461                	.insn	2, 0x7461
    4fbe:	7320                	.insn	2, 0x7320
    4fc0:	20646c6f          	jal	s8,4b1c6 <__global_pointer+0x465cd>
    4fc4:	2b0a                	.insn	2, 0x2b0a
    4fc6:	3031                	.insn	2, 0x3031
    4fc8:	2030                	.insn	2, 0x2030
    4fca:	6e696f63          	bltu	s2,t1,56c8 <__global_pointer+0xacf>
    4fce:	00000a73          	.insn	4, 0x0a73
    4fd2:	0000                	.insn	2, 0x0000
    4fd4:	590a                	.insn	2, 0x590a
    4fd6:	6420756f          	jal	a0,c618 <__global_pointer+0x7a1f>
    4fda:	74276e6f          	jal	t3,7b71c <__global_pointer+0x76b23>
    4fde:	6820                	.insn	2, 0x6820
    4fe0:	7661                	.insn	2, 0x7661
    4fe2:	2065                	.insn	2, 0x2065
    4fe4:	666c6f57          	.insn	4, 0x666c6f57
    4fe8:	4d20                	.insn	2, 0x4d20
    4fea:	6165                	.insn	2, 0x6165
    4fec:	2074                	.insn	2, 0x2074
    4fee:	6f74                	.insn	2, 0x6f74
    4ff0:	7320                	.insn	2, 0x7320
    4ff2:	6c65                	.insn	2, 0x6c65
    4ff4:	2e6c                	.insn	2, 0x2e6c
    4ff6:	000a                	.insn	2, 0x000a
    4ff8:	530a                	.insn	2, 0x530a
    4ffa:	6f68                	.insn	2, 0x6f68
    4ffc:	7472                	.insn	2, 0x7472
    4ffe:	726f7773          	csrrci	a4,mhpmevent6h,30
    5002:	2064                	.insn	2, 0x2064
    5004:	646c6f73          	csrrsi	t5,hviprio1,24
    5008:	0a20                	.insn	2, 0x0a20
    500a:	2030352b          	.insn	4, 0x2030352b
    500e:	6e696f63          	bltu	s2,t1,570c <__global_pointer+0xb13>
    5012:	00000a73          	.insn	4, 0x0a73
    5016:	0000                	.insn	2, 0x0000
    5018:	590a                	.insn	2, 0x590a
    501a:	6420756f          	jal	a0,c65c <__global_pointer+0x7a63>
    501e:	74276e6f          	jal	t3,7b760 <__global_pointer+0x76b67>
    5022:	6820                	.insn	2, 0x6820
    5024:	7661                	.insn	2, 0x7661
    5026:	2065                	.insn	2, 0x2065
    5028:	2061                	.insn	2, 0x2061
    502a:	726f6853          	.insn	4, 0x726f6853
    502e:	7374                	.insn	2, 0x7374
    5030:	64726f77          	.insn	4, 0x64726f77
    5034:	7420                	.insn	2, 0x7420
    5036:	6573206f          	j	37e8c <__global_pointer+0x33293>
    503a:	6c6c                	.insn	2, 0x6c6c
    503c:	0a2e                	.insn	2, 0x0a2e
    503e:	0000                	.insn	2, 0x0000
    5040:	560a                	.insn	2, 0x560a
    5042:	6e65                	.insn	2, 0x6e65
    5044:	6f64                	.insn	2, 0x6f64
    5046:	3a72                	.insn	2, 0x3a72
    5048:	4f20                	.insn	2, 0x4f20
    504a:	2c79616b          	.insn	4, 0x2c79616b
    504e:	6220                	.insn	2, 0x6220
    5050:	6579                	.insn	2, 0x6579
    5052:	7420                	.insn	2, 0x7420
    5054:	6172                	.insn	2, 0x6172
    5056:	6576                	.insn	2, 0x6576
    5058:	656c                	.insn	2, 0x656c
    505a:	2172                	.insn	2, 0x2172
    505c:	200a                	.insn	2, 0x200a
    505e:	0000                	.insn	2, 0x0000
    5060:	2d0a                	.insn	2, 0x2d0a
    5062:	4220                	.insn	2, 0x4220
    5064:	6579                	.insn	2, 0x6579
    5066:	0a21                	.insn	2, 0x0a21
    5068:	0000                	.insn	2, 0x0000
    506a:	0000                	.insn	2, 0x0000
    506c:	6f59                	.insn	2, 0x6f59
    506e:	2075                	.insn	2, 0x2075
    5070:	656b6177          	.insn	4, 0x656b6177
    5074:	7520                	.insn	2, 0x7520
    5076:	2070                	.insn	2, 0x2070
    5078:	6e69                	.insn	2, 0x6e69
    507a:	6120                	.insn	2, 0x6120
    507c:	7320                	.insn	2, 0x7320
    507e:	616d                	.insn	2, 0x616d
    5080:	6c6c                	.insn	2, 0x6c6c
    5082:	7620                	.insn	2, 0x7620
    5084:	6c69                	.insn	2, 0x6c69
    5086:	616c                	.insn	2, 0x616c
    5088:	202c6567          	.insn	4, 0x202c6567
    508c:	7361                	.insn	2, 0x7361
    508e:	6120                	.insn	2, 0x6120
    5090:	796e                	.insn	2, 0x796e
    5092:	7520                	.insn	2, 0x7520
    5094:	6c617573          	csrrci	a0,0x6c6,2
    5098:	6420                	.insn	2, 0x6420
    509a:	7961                	.insn	2, 0x7961
    509c:	202e                	.insn	2, 0x202e
    509e:	6854                	.insn	2, 0x6854
    50a0:	7265                	.insn	2, 0x7265
    50a2:	2065                	.insn	2, 0x2065
    50a4:	7369                	.insn	2, 0x7369
    50a6:	6120                	.insn	2, 0x6120
    50a8:	7220                	.insn	2, 0x7220
    50aa:	6d75                	.insn	2, 0x6d75
    50ac:	6120726f          	jal	tp,c6be <__global_pointer+0x7ac5>
    50b0:	6f62                	.insn	2, 0x6f62
    50b2:	7475                	.insn	2, 0x7475
    50b4:	6120                	.insn	2, 0x6120
    50b6:	6d20                	.insn	2, 0x6d20
    50b8:	7379                	.insn	2, 0x7379
    50ba:	6574                	.insn	2, 0x6574
    50bc:	6972                	.insn	2, 0x6972
    50be:	2073756f          	jal	a0,3cac4 <__global_pointer+0x37ecb>
    50c2:	20646c6f          	jal	s8,4b2c8 <__global_pointer+0x466cf>
    50c6:	636f6c63          	bltu	t5,s6,56fe <__global_pointer+0xb05>
    50ca:	776f746b          	.insn	4, 0x776f746b
    50ce:	7265                	.insn	2, 0x7265
    50d0:	6120                	.insn	2, 0x6120
    50d2:	2074                	.insn	2, 0x2074
    50d4:	6874                	.insn	2, 0x6874
    50d6:	2065                	.insn	2, 0x2065
    50d8:	6568746f          	jal	s0,8c72e <__global_pointer+0x87b35>
    50dc:	2072                	.insn	2, 0x2072
    50de:	65646973          	csrrsi	s2,hviprio1h,8
    50e2:	6f20                	.insn	2, 0x6f20
    50e4:	2066                	.insn	2, 0x2066
    50e6:	6874                	.insn	2, 0x6874
    50e8:	2065                	.insn	2, 0x2065
    50ea:	6f6d                	.insn	2, 0x6f6d
    50ec:	6e75                	.insn	2, 0x6e75
    50ee:	6174                	.insn	2, 0x6174
    50f0:	6e69                	.insn	2, 0x6e69
    50f2:	202e                	.insn	2, 0x202e
    50f4:	590a                	.insn	2, 0x590a
    50f6:	6820756f          	jal	a0,c778 <__global_pointer+0x7b7f>
    50fa:	7661                	.insn	2, 0x7661
    50fc:	2065                	.insn	2, 0x2065
    50fe:	6c61                	.insn	2, 0x6c61
    5100:	73796177          	.insn	4, 0x73796177
    5104:	7720                	.insn	2, 0x7720
    5106:	65646e6f          	jal	t3,4b75c <__global_pointer+0x46b63>
    510a:	6572                	.insn	2, 0x6572
    510c:	2064                	.insn	2, 0x2064
    510e:	6669                	.insn	2, 0x6669
    5110:	7420                	.insn	2, 0x7420
    5112:	6568                	.insn	2, 0x6568
    5114:	7220                	.insn	2, 0x7220
    5116:	6d75                	.insn	2, 0x6d75
    5118:	2073726f          	jal	tp,3cb1e <__global_pointer+0x37f25>
    511c:	7261                	.insn	2, 0x7261
    511e:	2065                	.insn	2, 0x2065
    5120:	7274                	.insn	2, 0x7274
    5122:	6575                	.insn	2, 0x6575
    5124:	202e                	.insn	2, 0x202e
    5126:	7341                	.insn	2, 0x7341
    5128:	7920                	.insn	2, 0x7920
    512a:	6720756f          	jal	a0,c79c <__global_pointer+0x7ba3>
    512e:	6261206f          	j	17754 <__global_pointer+0x12b5b>
    5132:	2074756f          	jal	a0,4cb38 <__global_pointer+0x47f3f>
    5136:	6f79                	.insn	2, 0x6f79
    5138:	7275                	.insn	2, 0x7275
    513a:	6420                	.insn	2, 0x6420
    513c:	7961                	.insn	2, 0x7961
    513e:	202c                	.insn	2, 0x202c
    5140:	6f79                	.insn	2, 0x6f79
    5142:	2075                	.insn	2, 0x2075
    5144:	6b6c6177          	.insn	4, 0x6b6c6177
    5148:	6220                	.insn	2, 0x6220
    514a:	2079                	.insn	2, 0x2079
    514c:	6e61                	.insn	2, 0x6e61
    514e:	6f20                	.insn	2, 0x6f20
    5150:	646c                	.insn	2, 0x646c
    5152:	6d20                	.insn	2, 0x6d20
    5154:	6e61                	.insn	2, 0x6e61
    5156:	002e                	.insn	2, 0x002e
    5158:	6956                	.insn	2, 0x6956
    515a:	6c6c                	.insn	2, 0x6c6c
    515c:	6761                	.insn	2, 0x6761
    515e:	0065                	.insn	2, 0x0065
    5160:	6f59                	.insn	2, 0x6f59
    5162:	2075                	.insn	2, 0x2075
    5164:	6b6c6177          	.insn	4, 0x6b6c6177
    5168:	6120                	.insn	2, 0x6120
    516a:	6f6c                	.insn	2, 0x6f6c
    516c:	676e                	.insn	2, 0x676e
    516e:	6120                	.insn	2, 0x6120
    5170:	6620                	.insn	2, 0x6620
    5172:	7365726f          	jal	tp,5c8a8 <__global_pointer+0x57caf>
    5176:	2074                	.insn	2, 0x2074
    5178:	6170                	.insn	2, 0x6170
    517a:	6874                	.insn	2, 0x6874
    517c:	7720                	.insn	2, 0x7720
    517e:	7469                	.insn	2, 0x7469
    5180:	2068                	.insn	2, 0x2068
    5182:	776f7263          	bgeu	t5,s6,58e6 <__global_pointer+0xced>
    5186:	6564                	.insn	2, 0x6564
    5188:	2064                	.insn	2, 0x2064
    518a:	63617073          	csrci	0x636,2
    518e:	2065                	.insn	2, 0x2065
    5190:	6e61                	.insn	2, 0x6e61
    5192:	2064                	.insn	2, 0x2064
    5194:	796d                	.insn	2, 0x796d
    5196:	63697473          	csrrci	s0,0x636,18
    519a:	6c61                	.insn	2, 0x6c61
    519c:	7320                	.insn	2, 0x7320
    519e:	646e756f          	jal	a0,ec7e4 <__global_pointer+0xe7beb>
    51a2:	42202e73          	csrr	t3,0x422
    51a6:	7269                	.insn	2, 0x7269
    51a8:	7364                	.insn	2, 0x7364
    51aa:	6120                	.insn	2, 0x6120
    51ac:	6572                	.insn	2, 0x6572
    51ae:	7320                	.insn	2, 0x7320
    51b0:	6e69                	.insn	2, 0x6e69
    51b2:	676e6967          	.insn	4, 0x676e6967
    51b6:	202c                	.insn	2, 0x202c
    51b8:	7562                	.insn	2, 0x7562
    51ba:	2074                	.insn	2, 0x2074
    51bc:	6f79                	.insn	2, 0x6f79
    51be:	2075                	.insn	2, 0x2075
    51c0:	736e6573          	csrrsi	a0,mhpmevent22h,28
    51c4:	2065                	.insn	2, 0x2065
    51c6:	656d6f73          	csrrsi	t5,hviprio1h,26
    51ca:	6874                	.insn	2, 0x6874
    51cc:	6e69                	.insn	2, 0x6e69
    51ce:	6f6d2067          	.insn	4, 0x6f6d2067
    51d2:	6976                	.insn	2, 0x6976
    51d4:	676e                	.insn	2, 0x676e
    51d6:	6920                	.insn	2, 0x6920
    51d8:	206e                	.insn	2, 0x206e
    51da:	6874                	.insn	2, 0x6874
    51dc:	2065                	.insn	2, 0x2065
    51de:	7562                	.insn	2, 0x7562
    51e0:	73656873          	csrrsi	a6,mhpmevent22h,10
    51e4:	002e                	.insn	2, 0x002e
    51e6:	0000                	.insn	2, 0x0000
    51e8:	6f46                	.insn	2, 0x6f46
    51ea:	6572                	.insn	2, 0x6572
    51ec:	50207473          	csrrci	s0,0x502,0
    51f0:	7461                	.insn	2, 0x7461
    51f2:	0068                	.insn	2, 0x0068
    51f4:	6f59                	.insn	2, 0x6f59
    51f6:	2075                	.insn	2, 0x2075
    51f8:	6966                	.insn	2, 0x6966
    51fa:	646e                	.insn	2, 0x646e
    51fc:	6120                	.insn	2, 0x6120
    51fe:	206e                	.insn	2, 0x206e
    5200:	6261                	.insn	2, 0x6261
    5202:	6e61                	.insn	2, 0x6e61
    5204:	6f64                	.insn	2, 0x6f64
    5206:	656e                	.insn	2, 0x656e
    5208:	2064                	.insn	2, 0x2064
    520a:	6e61                	.insn	2, 0x6e61
    520c:	2064                	.insn	2, 0x2064
    520e:	6e61                	.insn	2, 0x6e61
    5210:	6e656963          	bltu	a0,t1,5902 <__global_pointer+0xd09>
    5214:	2074                	.insn	2, 0x2074
    5216:	6c6c6577          	.insn	4, 0x6c6c6577
    521a:	6320                	.insn	2, 0x6320
    521c:	7265766f          	jal	a2,5c942 <__global_pointer+0x57d49>
    5220:	6465                	.insn	2, 0x6465
    5222:	6920                	.insn	2, 0x6920
    5224:	206e                	.insn	2, 0x206e
    5226:	6f6d                	.insn	2, 0x6f6d
    5228:	202e7373          	csrrci	t1,0x202,28
    522c:	6854                	.insn	2, 0x6854
    522e:	2065                	.insn	2, 0x2065
    5230:	6961                	.insn	2, 0x6961
    5232:	2072                	.insn	2, 0x2072
    5234:	6566                	.insn	2, 0x6566
    5236:	6c65                	.insn	2, 0x6c65
    5238:	65682073          	csrs	hviprio1h,a6
    523c:	7661                	.insn	2, 0x7661
    523e:	2079                	.insn	2, 0x2079
    5240:	6e61                	.insn	2, 0x6e61
    5242:	2064                	.insn	2, 0x2064
    5244:	6c61                	.insn	2, 0x6c61
    5246:	6874                	.insn	2, 0x6874
    5248:	6867756f          	jal	a0,7c8ce <__global_pointer+0x77cd5>
    524c:	6920                	.insn	2, 0x6920
    524e:	2074                	.insn	2, 0x2074
    5250:	7369                	.insn	2, 0x7369
    5252:	6520                	.insn	2, 0x6520
    5254:	706d                	.insn	2, 0x706d
    5256:	7974                	.insn	2, 0x7974
    5258:	6920                	.insn	2, 0x6920
    525a:	736e                	.insn	2, 0x736e
    525c:	6469                	.insn	2, 0x6469
    525e:	2c65                	.insn	2, 0x2c65
    5260:	7320                	.insn	2, 0x7320
    5262:	7274                	.insn	2, 0x7274
    5264:	6e61                	.insn	2, 0x6e61
    5266:	6e206567          	.insn	4, 0x6e206567
    526a:	6573696f          	jal	s2,3c0c0 <__global_pointer+0x374c7>
    526e:	61632073          	csrs	0x616,t1
    5272:	206e                	.insn	2, 0x206e
    5274:	6562                	.insn	2, 0x6562
    5276:	6820                	.insn	2, 0x6820
    5278:	6165                	.insn	2, 0x6165
    527a:	6472                	.insn	2, 0x6472
    527c:	002e                	.insn	2, 0x002e
    527e:	0000                	.insn	2, 0x0000
    5280:	20646c4f          	.insn	4, 0x20646c4f
    5284:	6c6c6557          	.insn	4, 0x6c6c6557
    5288:	0000                	.insn	2, 0x0000
    528a:	0000                	.insn	2, 0x0000
    528c:	6546                	.insn	2, 0x6546
    528e:	6c65                	.insn	2, 0x6c65
    5290:	6e69                	.insn	2, 0x6e69
    5292:	78652067          	.insn	4, 0x78652067
    5296:	6168                	.insn	2, 0x6168
    5298:	7375                	.insn	2, 0x7375
    529a:	6574                	.insn	2, 0x6574
    529c:	2c64                	.insn	2, 0x2c64
    529e:	7920                	.insn	2, 0x7920
    52a0:	6c20756f          	jal	a0,c962 <__global_pointer+0x7d69>
    52a4:	206b6f6f          	jal	t5,bb4aa <__global_pointer+0xb68b1>
    52a8:	6f66                	.insn	2, 0x6f66
    52aa:	2072                	.insn	2, 0x2072
    52ac:	2061                	.insn	2, 0x2061
    52ae:	6c70                	.insn	2, 0x6c70
    52b0:	6361                	.insn	2, 0x6361
    52b2:	2065                	.insn	2, 0x2065
    52b4:	6f74                	.insn	2, 0x6f74
    52b6:	7220                	.insn	2, 0x7220
    52b8:	6c65                	.insn	2, 0x6c65
    52ba:	7861                	.insn	2, 0x7861
    52bc:	202e                	.insn	2, 0x202e
    52be:	6854                	.insn	2, 0x6854
    52c0:	7265                	.insn	2, 0x7265
    52c2:	2c65                	.insn	2, 0x2c65
    52c4:	7920                	.insn	2, 0x7920
    52c6:	7320756f          	jal	a0,c9f8 <__global_pointer+0x7dff>
    52ca:	6565                	.insn	2, 0x6565
    52cc:	7420                	.insn	2, 0x7420
    52ce:	6568                	.insn	2, 0x6568
    52d0:	7620                	.insn	2, 0x7620
    52d2:	6c69                	.insn	2, 0x6c69
    52d4:	616c                	.insn	2, 0x616c
    52d6:	62206567          	.insn	4, 0x62206567
    52da:	7261                	.insn	2, 0x7261
    52dc:	202c                	.insn	2, 0x202c
    52de:	776f6e6b          	.insn	4, 0x776f6e6b
    52e2:	206e                	.insn	2, 0x206e
    52e4:	6f66                	.insn	2, 0x6f66
    52e6:	2072                	.insn	2, 0x2072
    52e8:	7469                	.insn	2, 0x7469
    52ea:	6f632073          	csrs	0x6f6,t1
    52ee:	797a                	.insn	2, 0x797a
    52f0:	6120                	.insn	2, 0x6120
    52f2:	6d74                	.insn	2, 0x6d74
    52f4:	6870736f          	jal	t1,d17a <__global_pointer+0x8581>
    52f8:	7265                	.insn	2, 0x7265
    52fa:	2065                	.insn	2, 0x2065
    52fc:	6e61                	.insn	2, 0x6e61
    52fe:	2064                	.insn	2, 0x2064
    5300:	6d61                	.insn	2, 0x6d61
    5302:	7a61                	.insn	2, 0x7a61
    5304:	6e69                	.insn	2, 0x6e69
    5306:	72642067          	.insn	4, 0x72642067
    530a:	6e69                	.insn	2, 0x6e69
    530c:	202e736b          	.insn	4, 0x202e736b
    5310:	590a                	.insn	2, 0x590a
    5312:	6520756f          	jal	a0,c964 <__global_pointer+0x7d6b>
    5316:	746e                	.insn	2, 0x746e
    5318:	7265                	.insn	2, 0x7265
    531a:	7420                	.insn	2, 0x7420
    531c:	6568                	.insn	2, 0x6568
    531e:	7620                	.insn	2, 0x7620
    5320:	6c69                	.insn	2, 0x6c69
    5322:	616c                	.insn	2, 0x616c
    5324:	62206567          	.insn	4, 0x62206567
    5328:	7261                	.insn	2, 0x7261
    532a:	6120                	.insn	2, 0x6120
    532c:	646e                	.insn	2, 0x646e
    532e:	7420                	.insn	2, 0x7420
    5330:	6568                	.insn	2, 0x6568
    5332:	7320                	.insn	2, 0x7320
    5334:	656d                	.insn	2, 0x656d
    5336:	6c6c                	.insn	2, 0x6c6c
    5338:	6f20                	.insn	2, 0x6f20
    533a:	2066                	.insn	2, 0x2066
    533c:	6562                	.insn	2, 0x6562
    533e:	7265                	.insn	2, 0x7265
    5340:	6620                	.insn	2, 0x6620
    5342:	6c69                	.insn	2, 0x6c69
    5344:	736c                	.insn	2, 0x736c
    5346:	7420                	.insn	2, 0x7420
    5348:	6568                	.insn	2, 0x6568
    534a:	6120                	.insn	2, 0x6120
    534c:	7269                	.insn	2, 0x7269
    534e:	202e                	.insn	2, 0x202e
    5350:	7341                	.insn	2, 0x7341
    5352:	7920                	.insn	2, 0x7920
    5354:	7320756f          	jal	a0,ca86 <__global_pointer+0x7e8d>
    5358:	7469                	.insn	2, 0x7469
    535a:	6420                	.insn	2, 0x6420
    535c:	2c6e776f          	jal	a4,ec622 <__global_pointer+0xe7a29>
    5360:	7920                	.insn	2, 0x7920
    5362:	6320756f          	jal	a0,c994 <__global_pointer+0x7d9b>
    5366:	6f72                	.insn	2, 0x6f72
    5368:	20207373          	csrrci	t1,0x202,0
    536c:	7965                	.insn	2, 0x7965
    536e:	7365                	.insn	2, 0x7365
    5370:	7720                	.insn	2, 0x7720
    5372:	7469                	.insn	2, 0x7469
    5374:	2068                	.insn	2, 0x2068
    5376:	6874                	.insn	2, 0x6874
    5378:	2065                	.insn	2, 0x2065
    537a:	6162                	.insn	2, 0x6162
    537c:	7472                	.insn	2, 0x7472
    537e:	6e65                	.insn	2, 0x6e65
    5380:	6564                	.insn	2, 0x6564
    5382:	2c72                	.insn	2, 0x2c72
    5384:	6c20                	.insn	2, 0x6c20
    5386:	696b6f6f          	jal	t5,bba1c <__global_pointer+0xb6e23>
    538a:	676e                	.insn	2, 0x676e
    538c:	6120                	.insn	2, 0x6120
    538e:	2074                	.insn	2, 0x2074
    5390:	6f79                	.insn	2, 0x6f79
    5392:	2075                	.insn	2, 0x2075
    5394:	6166                	.insn	2, 0x6166
    5396:	6e696373          	csrrsi	t1,0x6e6,18
    539a:	7461                	.insn	2, 0x7461
    539c:	6465                	.insn	2, 0x6465
    539e:	002e                	.insn	2, 0x002e
    53a0:	6956                	.insn	2, 0x6956
    53a2:	6c6c                	.insn	2, 0x6c6c
    53a4:	6761                	.insn	2, 0x6761
    53a6:	2065                	.insn	2, 0x2065
    53a8:	6142                	.insn	2, 0x6142
    53aa:	0072                	.insn	2, 0x0072
    53ac:	6854                	.insn	2, 0x6854
    53ae:	2065                	.insn	2, 0x2065
    53b0:	616d                	.insn	2, 0x616d
    53b2:	6b72                	.insn	2, 0x6b72
    53b4:	7465                	.insn	2, 0x7465
    53b6:	6920                	.insn	2, 0x6920
    53b8:	75622073          	csrs	0x756,tp
    53bc:	696c7473          	csrrci	s0,0x696,24
    53c0:	676e                	.insn	2, 0x676e
    53c2:	7720                	.insn	2, 0x7720
    53c4:	7469                	.insn	2, 0x7469
    53c6:	2068                	.insn	2, 0x2068
    53c8:	656d                	.insn	2, 0x656d
    53ca:	6372                	.insn	2, 0x6372
    53cc:	6168                	.insn	2, 0x6168
    53ce:	746e                	.insn	2, 0x746e
    53d0:	41202e73          	csrr	t3,0x412
    53d4:	796e                	.insn	2, 0x796e
    53d6:	6874                	.insn	2, 0x6874
    53d8:	6e69                	.insn	2, 0x6e69
    53da:	61632067          	.insn	4, 0x61632067
    53de:	206e                	.insn	2, 0x206e
    53e0:	6562                	.insn	2, 0x6562
    53e2:	6620                	.insn	2, 0x6620
    53e4:	646e756f          	jal	a0,eca2a <__global_pointer+0xe7e31>
    53e8:	6820                	.insn	2, 0x6820
    53ea:	7265                	.insn	2, 0x7265
    53ec:	2065                	.insn	2, 0x2065
    53ee:	202d                	.insn	2, 0x202d
    53f0:	70616577          	.insn	4, 0x70616577
    53f4:	2c736e6f          	jal	t3,3beba <__global_pointer+0x372c1>
    53f8:	6620                	.insn	2, 0x6620
    53fa:	2c646f6f          	jal	t5,4b6c0 <__global_pointer+0x46ac7>
    53fe:	6420                	.insn	2, 0x6420
    5400:	6972                	.insn	2, 0x6972
    5402:	6b6e                	.insn	2, 0x6b6e
    5404:	202d2073          	csrs	0x202,s10
    5408:	6f79                	.insn	2, 0x6f79
    540a:	2075                	.insn	2, 0x2075
    540c:	616e                	.insn	2, 0x616e
    540e:	656d                	.insn	2, 0x656d
    5410:	6920                	.insn	2, 0x6920
    5412:	2e74                	.insn	2, 0x2e74
    5414:	4820                	.insn	2, 0x4820
    5416:	7665776f          	jal	a4,5cb7c <__global_pointer+0x57f83>
    541a:	7265                	.insn	2, 0x7265
    541c:	202c                	.insn	2, 0x202c
    541e:	6874                	.insn	2, 0x6874
    5420:	7965                	.insn	2, 0x7965
    5422:	6320                	.insn	2, 0x6320
    5424:	20656d6f          	jal	s10,5b62a <__global_pointer+0x56a31>
    5428:	7461                	.insn	2, 0x7461
    542a:	6120                	.insn	2, 0x6120
    542c:	7020                	.insn	2, 0x7020
    542e:	6972                	.insn	2, 0x6972
    5430:	002e6563          	bltu	t3,sp,543a <__global_pointer+0x841>
    5434:	614d                	.insn	2, 0x614d
    5436:	6b72                	.insn	2, 0x6b72
    5438:	7465                	.insn	2, 0x7465
    543a:	6c70                	.insn	2, 0x6c70
    543c:	6361                	.insn	2, 0x6361
    543e:	0065                	.insn	2, 0x0065
    5440:	7441                	.insn	2, 0x7441
    5442:	7420                	.insn	2, 0x7420
    5444:	6568                	.insn	2, 0x6568
    5446:	6520                	.insn	2, 0x6520
    5448:	6764                	.insn	2, 0x6764
    544a:	2065                	.insn	2, 0x2065
    544c:	7420666f          	jal	a2,bb8e <__global_pointer+0x6f95>
    5450:	6568                	.insn	2, 0x6568
    5452:	6d20                	.insn	2, 0x6d20
    5454:	7261                	.insn	2, 0x7261
    5456:	2074656b          	.insn	4, 0x2074656b
    545a:	696c                	.insn	2, 0x696c
    545c:	7365                	.insn	2, 0x7365
    545e:	6120                	.insn	2, 0x6120
    5460:	6420                	.insn	2, 0x6420
    5462:	7261                	.insn	2, 0x7261
    5464:	6163206b          	.insn	4, 0x6163206b
    5468:	6576                	.insn	2, 0x6576
    546a:	6520                	.insn	2, 0x6520
    546c:	746e                	.insn	2, 0x746e
    546e:	6172                	.insn	2, 0x6172
    5470:	636e                	.insn	2, 0x636e
    5472:	2e65                	.insn	2, 0x2e65
    5474:	4320                	.insn	2, 0x4320
    5476:	20646c6f          	jal	s8,4b67c <__global_pointer+0x46a83>
    547a:	6961                	.insn	2, 0x6961
    547c:	2072                	.insn	2, 0x2072
    547e:	70656573          	csrrsi	a0,0x706,10
    5482:	72662073          	csrs	mhpmevent6h,a2
    5486:	74206d6f          	jal	s10,bbc8 <__global_pointer+0x6fcf>
    548a:	6568                	.insn	2, 0x6568
    548c:	6520                	.insn	2, 0x6520
    548e:	746e                	.insn	2, 0x746e
    5490:	6172                	.insn	2, 0x6172
    5492:	636e                	.insn	2, 0x636e
    5494:	2e65                	.insn	2, 0x2e65
    5496:	0000                	.insn	2, 0x0000
    5498:	65766143          	.insn	4, 0x65766143
    549c:	4520                	.insn	2, 0x4520
    549e:	746e                	.insn	2, 0x746e
    54a0:	6172                	.insn	2, 0x6172
    54a2:	636e                	.insn	2, 0x636e
    54a4:	0065                	.insn	2, 0x0065
    54a6:	0000                	.insn	2, 0x0000
    54a8:	7341                	.insn	2, 0x7341
    54aa:	7920                	.insn	2, 0x7920
    54ac:	6720756f          	jal	a0,cb1e <__global_pointer+0x7f25>
    54b0:	6564206f          	j	47b06 <__global_pointer+0x42f0d>
    54b4:	7065                	.insn	2, 0x7065
    54b6:	7265                	.insn	2, 0x7265
    54b8:	6920                	.insn	2, 0x6920
    54ba:	746e                	.insn	2, 0x746e
    54bc:	6874206f          	j	48342 <__global_pointer+0x43749>
    54c0:	2065                	.insn	2, 0x2065
    54c2:	65766163          	bltu	a2,s7,5b04 <__global_pointer+0xf0b>
    54c6:	202c                	.insn	2, 0x202c
    54c8:	6f79                	.insn	2, 0x6f79
    54ca:	2075                	.insn	2, 0x2075
    54cc:	6966                	.insn	2, 0x6966
    54ce:	646e                	.insn	2, 0x646e
    54d0:	7920                	.insn	2, 0x7920
    54d2:	7372756f          	jal	a0,2d408 <__global_pointer+0x2880f>
    54d6:	6c65                	.insn	2, 0x6c65
    54d8:	2066                	.insn	2, 0x2066
    54da:	72727573          	csrrci	a0,mhpmevent7h,4
    54de:	646e756f          	jal	a0,ecb24 <__global_pointer+0xe7f2b>
    54e2:	6465                	.insn	2, 0x6465
    54e4:	7720                	.insn	2, 0x7720
    54e6:	7469                	.insn	2, 0x7469
    54e8:	2068                	.insn	2, 0x2068
    54ea:	6874                	.insn	2, 0x6874
    54ec:	2065                	.insn	2, 0x2065
    54ee:	6e756f73          	csrrsi	t5,0x6e7,10
    54f2:	2064                	.insn	2, 0x2064
    54f4:	6420666f          	jal	a2,bb36 <__global_pointer+0x6f3d>
    54f8:	6972                	.insn	2, 0x6972
    54fa:	7070                	.insn	2, 0x7070
    54fc:	6e69                	.insn	2, 0x6e69
    54fe:	61772067          	.insn	4, 0x61772067
    5502:	6574                	.insn	2, 0x6574
    5504:	2072                	.insn	2, 0x2072
    5506:	6e61                	.insn	2, 0x6e61
    5508:	2064                	.insn	2, 0x2064
    550a:	6365                	.insn	2, 0x6365
    550c:	6f68                	.insn	2, 0x6f68
    550e:	7365                	.insn	2, 0x7365
    5510:	6f20                	.insn	2, 0x6f20
    5512:	2066                	.insn	2, 0x2066
    5514:	6f79                	.insn	2, 0x6f79
    5516:	7275                	.insn	2, 0x7275
    5518:	6f20                	.insn	2, 0x6f20
    551a:	66206e77          	.insn	4, 0x66206e77
    551e:	73746f6f          	jal	t5,4c454 <__global_pointer+0x4785b>
    5522:	6574                	.insn	2, 0x6574
    5524:	7370                	.insn	2, 0x7370
    5526:	202e                	.insn	2, 0x202e
    5528:	490a                	.insn	2, 0x490a
    552a:	2074                	.insn	2, 0x2074
    552c:	696d                	.insn	2, 0x696d
    552e:	20746867          	.insn	4, 0x20746867
    5532:	6562                	.insn	2, 0x6562
    5534:	6420                	.insn	2, 0x6420
    5536:	6e61                	.insn	2, 0x6e61
    5538:	6f726567          	.insn	4, 0x6f726567
    553c:	7375                	.insn	2, 0x7375
    553e:	7420                	.insn	2, 0x7420
    5540:	6f67206f          	j	77c36 <__global_pointer+0x7303d>
    5544:	6620                	.insn	2, 0x6620
    5546:	7275                	.insn	2, 0x7275
    5548:	6874                	.insn	2, 0x6874
    554a:	7265                	.insn	2, 0x7265
    554c:	202c                	.insn	2, 0x202c
    554e:	7562                	.insn	2, 0x7562
    5550:	2074                	.insn	2, 0x2074
    5552:	7469                	.insn	2, 0x7469
    5554:	6920                	.insn	2, 0x6920
    5556:	20612073          	csrs	0x206,sp
    555a:	6972                	.insn	2, 0x6972
    555c:	79206b73          	csrrsi	s6,0x792,0
    5560:	6120756f          	jal	a0,cb72 <__global_pointer+0x7f79>
    5564:	6572                	.insn	2, 0x6572
    5566:	7720                	.insn	2, 0x7720
    5568:	6c69                	.insn	2, 0x6c69
    556a:	696c                	.insn	2, 0x696c
    556c:	676e                	.insn	2, 0x676e
    556e:	7420                	.insn	2, 0x7420
    5570:	6174206f          	j	48386 <__global_pointer+0x4378d>
    5574:	002e656b          	.insn	4, 0x002e656b
    5578:	6544                	.insn	2, 0x6544
    557a:	7065                	.insn	2, 0x7065
    557c:	4320                	.insn	2, 0x4320
    557e:	7661                	.insn	2, 0x7661
    5580:	0065                	.insn	2, 0x0065
    5582:	0000                	.insn	2, 0x0000
    5584:	6e656857          	.insn	4, 0x6e656857
    5588:	7920                	.insn	2, 0x7920
    558a:	6620756f          	jal	a0,cbec <__global_pointer+0x7ff3>
    558e:	6e69                	.insn	2, 0x6e69
    5590:	6c61                	.insn	2, 0x6c61
    5592:	796c                	.insn	2, 0x796c
    5594:	6720                	.insn	2, 0x6720
    5596:	7465                	.insn	2, 0x7465
    5598:	6f20                	.insn	2, 0x6f20
    559a:	7475                	.insn	2, 0x7475
    559c:	6f20                	.insn	2, 0x6f20
    559e:	2066                	.insn	2, 0x2066
    55a0:	6874                	.insn	2, 0x6874
    55a2:	2065                	.insn	2, 0x2065
    55a4:	65766163          	bltu	a2,s7,5be6 <__global_pointer+0xfed>
    55a8:	202c                	.insn	2, 0x202c
    55aa:	6f79                	.insn	2, 0x6f79
    55ac:	2075                	.insn	2, 0x2075
    55ae:	6572                	.insn	2, 0x6572
    55b0:	6361                	.insn	2, 0x6361
    55b2:	2068                	.insn	2, 0x2068
    55b4:	2061                	.insn	2, 0x2061
    55b6:	6564                	.insn	2, 0x6564
    55b8:	74726573          	csrrsi	a0,0x747,4
    55bc:	6465                	.insn	2, 0x6465
    55be:	7720                	.insn	2, 0x7720
    55c0:	65646f6f          	jal	t5,4bc16 <__global_pointer+0x4701d>
    55c4:	206e                	.insn	2, 0x206e
    55c6:	7262                	.insn	2, 0x7262
    55c8:	6469                	.insn	2, 0x6469
    55ca:	202e6567          	.insn	4, 0x202e6567
    55ce:	6854                	.insn	2, 0x6854
    55d0:	2065                	.insn	2, 0x2065
    55d2:	6f66                	.insn	2, 0x6f66
    55d4:	696c2067          	.insn	4, 0x696c2067
    55d8:	696d                	.insn	2, 0x696d
    55da:	7374                	.insn	2, 0x7374
    55dc:	7920                	.insn	2, 0x7920
    55de:	2072756f          	jal	a0,2cfe4 <__global_pointer+0x283eb>
    55e2:	68676973          	csrrsi	s2,0x686,14
    55e6:	7374                	.insn	2, 0x7374
    55e8:	202e                	.insn	2, 0x202e
    55ea:	6854                	.insn	2, 0x6854
    55ec:	7265                	.insn	2, 0x7265
    55ee:	2065                	.insn	2, 0x2065
    55f0:	7369                	.insn	2, 0x7369
    55f2:	6e20                	.insn	2, 0x6e20
    55f4:	7574206f          	j	4854a <__global_pointer+0x43951>
    55f8:	6e72                	.insn	2, 0x6e72
    55fa:	6e69                	.insn	2, 0x6e69
    55fc:	61622067          	.insn	4, 0x61622067
    5600:	6e206b63          	bltu	zero,sp,5cf6 <__global_pointer+0x10fd>
    5604:	002e776f          	jal	a4,ec606 <__global_pointer+0xe7a0d>
    5608:	6241                	.insn	2, 0x6241
    560a:	6e61                	.insn	2, 0x6e61
    560c:	6f64                	.insn	2, 0x6f64
    560e:	656e                	.insn	2, 0x656e
    5610:	2064                	.insn	2, 0x2064
    5612:	7242                	.insn	2, 0x7242
    5614:	6469                	.insn	2, 0x6469
    5616:	00006567          	.insn	4, 0x6567
    561a:	0000                	.insn	2, 0x0000
    561c:	6148                	.insn	2, 0x6148
    561e:	6976                	.insn	2, 0x6976
    5620:	676e                	.insn	2, 0x676e
    5622:	6320                	.insn	2, 0x6320
    5624:	6f72                	.insn	2, 0x6f72
    5626:	64657373          	csrrci	t1,hviprio1,10
    562a:	7420                	.insn	2, 0x7420
    562c:	6568                	.insn	2, 0x6568
    562e:	6220                	.insn	2, 0x6220
    5630:	6972                	.insn	2, 0x6972
    5632:	6764                	.insn	2, 0x6764
    5634:	2c65                	.insn	2, 0x2c65
    5636:	7920                	.insn	2, 0x7920
    5638:	7320756f          	jal	a0,cd6a <__global_pointer+0x8171>
    563c:	6565                	.insn	2, 0x6565
    563e:	7420                	.insn	2, 0x7420
    5640:	6568                	.insn	2, 0x6568
    5642:	7020                	.insn	2, 0x7020
    5644:	616c                	.insn	2, 0x616c
    5646:	79206563          	bltu	zero,s2,5dd0 <__global_pointer+0x11d7>
    564a:	6820756f          	jal	a0,cccc <__global_pointer+0x80d3>
    564e:	7661                	.insn	2, 0x7661
    5650:	2065                	.insn	2, 0x2065
    5652:	72616573          	csrrsi	a0,mhpmevent6h,2
    5656:	64656863          	bltu	a0,t1,5ca6 <__global_pointer+0x10ad>
    565a:	6620                	.insn	2, 0x6620
    565c:	6120726f          	jal	tp,cc6e <__global_pointer+0x8075>
    5660:	6c6c                	.insn	2, 0x6c6c
    5662:	7420                	.insn	2, 0x7420
    5664:	6968                	.insn	2, 0x6968
    5666:	69742073          	csrs	0x697,s0
    566a:	656d                	.insn	2, 0x656d
    566c:	2d20                	.insn	2, 0x2d20
    566e:	7420                	.insn	2, 0x7420
    5670:	6568                	.insn	2, 0x6568
    5672:	7720                	.insn	2, 0x7720
    5674:	6c65                	.insn	2, 0x6c65
    5676:	206c                	.insn	2, 0x206c
    5678:	776f6e6b          	.insn	4, 0x776f6e6b
    567c:	206e                	.insn	2, 0x206e
    567e:	636f6c63          	bltu	t5,s6,5cb6 <__global_pointer+0x10bd>
    5682:	776f746b          	.insn	4, 0x776f746b
    5686:	7265                	.insn	2, 0x7265
    5688:	202e                	.insn	2, 0x202e
    568a:	7449                	.insn	2, 0x7449
    568c:	616d2073          	csrs	0x616,s10
    5690:	76697373          	csrrci	t1,0x766,18
    5694:	2065                	.insn	2, 0x2065
    5696:	636f6c63          	bltu	t5,s6,5cce <__global_pointer+0x10d5>
    569a:	6974206b          	.insn	4, 0x6974206b
    569e:	20736b63          	bltu	t1,t2,58b4 <__global_pointer+0xcbb>
    56a2:	6e696d6f          	jal	s10,9bd88 <__global_pointer+0x9718f>
    56a6:	6c73756f          	jal	a0,3d56c <__global_pointer+0x38973>
    56aa:	2e79                	.insn	2, 0x2e79
    56ac:	0a20                	.insn	2, 0x0a20
    56ae:	6f59                	.insn	2, 0x6f59
    56b0:	2075                	.insn	2, 0x2075
    56b2:	6874                	.insn	2, 0x6874
    56b4:	6e69                	.insn	2, 0x6e69
    56b6:	6f74206b          	.insn	4, 0x6f74206b
    56ba:	7920                	.insn	2, 0x7920
    56bc:	7372756f          	jal	a0,2d5f2 <__global_pointer+0x289f9>
    56c0:	6c65                	.insn	2, 0x6c65
    56c2:	2c66                	.insn	2, 0x2c66
    56c4:	2220                	.insn	2, 0x2220
    56c6:	6874                	.insn	2, 0x6874
    56c8:	2065                	.insn	2, 0x2065
    56ca:	7274                	.insn	2, 0x7274
    56cc:	6165                	.insn	2, 0x6165
    56ce:	65727573          	csrrci	a0,hviprio2h,4
    56d2:	6d20                	.insn	2, 0x6d20
    56d4:	7375                	.insn	2, 0x7375
    56d6:	2074                	.insn	2, 0x2074
    56d8:	6562                	.insn	2, 0x6562
    56da:	6920                	.insn	2, 0x6920
    56dc:	736e                	.insn	2, 0x736e
    56de:	6469                	.insn	2, 0x6469
    56e0:	2265                	.insn	2, 0x2265
    56e2:	002e                	.insn	2, 0x002e
    56e4:	636f6c43          	.insn	4, 0x636f6c43
    56e8:	776f746b          	.insn	4, 0x776f746b
    56ec:	7265                	.insn	2, 0x7265
    56ee:	0000                	.insn	2, 0x0000
    56f0:	666c6f57          	.insn	4, 0x666c6f57
    56f4:	0000                	.insn	2, 0x0000
    56f6:	0000                	.insn	2, 0x0000
    56f8:	6142                	.insn	2, 0x6142
    56fa:	646e                	.insn	2, 0x646e
    56fc:	7469                	.insn	2, 0x7469
    56fe:	0000                	.insn	2, 0x0000
    5700:	73656843          	.insn	4, 0x73656843
    5704:	2074                	.insn	2, 0x2074
    5706:	0079654b          	.insn	4, 0x0079654b
    570a:	0000                	.insn	2, 0x0000
    570c:	7244                	.insn	2, 0x7244
    570e:	6761                	.insn	2, 0x6761
    5710:	00006e6f          	jal	t3,b710 <__global_pointer+0x6b17>
    5714:	636c6557          	.insn	4, 0x636c6557
    5718:	20656d6f          	jal	s10,5b91e <__global_pointer+0x56d25>
    571c:	6f74                	.insn	2, 0x6f74
    571e:	6f20                	.insn	2, 0x6f20
    5720:	7275                	.insn	2, 0x7275
    5722:	6620                	.insn	2, 0x6620
    5724:	6d61                	.insn	2, 0x6d61
    5726:	2073756f          	jal	a0,3d12c <__global_pointer+0x38533>
    572a:	706f6873          	csrrsi	a6,0x706,30
    572e:	2021                	.insn	2, 0x2021
    5730:	74616857          	.insn	4, 0x74616857
    5734:	6320                	.insn	2, 0x6320
    5736:	6e61                	.insn	2, 0x6e61
    5738:	4920                	.insn	2, 0x4920
    573a:	6720                	.insn	2, 0x6720
    573c:	7465                	.insn	2, 0x7465
    573e:	7920                	.insn	2, 0x7920
    5740:	003f756f          	jal	a0,fcf42 <__global_pointer+0xf8349>
    5744:	20646c4f          	.insn	4, 0x20646c4f
    5748:	616d                	.insn	2, 0x616d
    574a:	006e                	.insn	2, 0x006e
    574c:	6142                	.insn	2, 0x6142
    574e:	7472                	.insn	2, 0x7472
    5750:	6e65                	.insn	2, 0x6e65
    5752:	6564                	.insn	2, 0x6564
    5754:	0072                	.insn	2, 0x0072
    5756:	0000                	.insn	2, 0x0000
    5758:	6556                	.insn	2, 0x6556
    575a:	646e                	.insn	2, 0x646e
    575c:	0000726f          	jal	tp,c75c <__global_pointer+0x7b63>
    5760:	6c41                	.insn	2, 0x6c41
    5762:	7865                	.insn	2, 0x7865
    5764:	0000                	.insn	2, 0x0000
    5766:	0000                	.insn	2, 0x0000
    5768:	310a                	.insn	2, 0x310a
    576a:	202e                	.insn	2, 0x202e
    576c:	6854                	.insn	2, 0x6854
    576e:	6e61                	.insn	2, 0x6e61
    5770:	6f79206b          	.insn	4, 0x6f79206b
    5774:	2e75                	.insn	2, 0x2e75
    5776:	0000                	.insn	2, 0x0000
    5778:	2d0a                	.insn	2, 0x2d0a
    577a:	0020                	.insn	2, 0x0020
    577c:	590a                	.insn	2, 0x590a
    577e:	2072756f          	jal	a0,2d184 <__global_pointer+0x2858b>
    5782:	6e696f63          	bltu	s2,t1,5e80 <__global_pointer+0x1287>
    5786:	00203a73          	csrrc	s4,frm,zero
    578a:	0000                	.insn	2, 0x0000
    578c:	2d0a                	.insn	2, 0x2d0a
    578e:	3532                	.insn	2, 0x3532
    5790:	6320                	.insn	2, 0x6320
    5792:	736e696f          	jal	s2,ebec8 <__global_pointer+0xe72cf>
    5796:	202e                	.insn	2, 0x202e
    5798:	6f59                	.insn	2, 0x6f59
    579a:	2075                	.insn	2, 0x2075
    579c:	6f6e                	.insn	2, 0x6f6e
    579e:	61682077          	.insn	4, 0x61682077
    57a2:	6576                	.insn	2, 0x6576
    57a4:	0020                	.insn	2, 0x0020
    57a6:	0000                	.insn	2, 0x0000
    57a8:	6320                	.insn	2, 0x6320
    57aa:	736e696f          	jal	s2,ebee0 <__global_pointer+0xe72e7>
    57ae:	002e                	.insn	2, 0x002e
    57b0:	0a0a                	.insn	2, 0x0a0a
    57b2:	6142                	.insn	2, 0x6142
    57b4:	7472                	.insn	2, 0x7472
    57b6:	6e65                	.insn	2, 0x6e65
    57b8:	6564                	.insn	2, 0x6564
    57ba:	3a72                	.insn	2, 0x3a72
    57bc:	0020                	.insn	2, 0x0020
    57be:	0000                	.insn	2, 0x0000
    57c0:	310a                	.insn	2, 0x310a
    57c2:	202e                	.insn	2, 0x202e
    57c4:	6854                	.insn	2, 0x6854
    57c6:	6e61                	.insn	2, 0x6e61
    57c8:	6f79206b          	.insn	4, 0x6f79206b
    57cc:	2175                	.insn	2, 0x2175
    57ce:	0000                	.insn	2, 0x0000
    57d0:	200a                	.insn	2, 0x200a
    57d2:	6f59                	.insn	2, 0x6f59
    57d4:	2075                	.insn	2, 0x2075
    57d6:	6f64                	.insn	2, 0x6f64
    57d8:	276e                	.insn	2, 0x276e
    57da:	2074                	.insn	2, 0x2074
    57dc:	6168                	.insn	2, 0x6168
    57de:	6576                	.insn	2, 0x6576
    57e0:	6520                	.insn	2, 0x6520
    57e2:	6f6e                	.insn	2, 0x6f6e
    57e4:	6775                	.insn	2, 0x6775
    57e6:	2068                	.insn	2, 0x2068
    57e8:	6e696f63          	bltu	s2,t1,5ee6 <__global_pointer+0x12ed>
    57ec:	00002e73          	csrr	t3,ustatus
    57f0:	310a                	.insn	2, 0x310a
    57f2:	202e                	.insn	2, 0x202e
    57f4:	654c                	.insn	2, 0x654c
    57f6:	7661                	.insn	2, 0x7661
    57f8:	0065                	.insn	2, 0x0065
    57fa:	0000                	.insn	2, 0x0000
    57fc:	540a                	.insn	2, 0x540a
    57fe:	6568                	.insn	2, 0x6568
    5800:	6320                	.insn	2, 0x6320
    5802:	7370726f          	jal	tp,d738 <__global_pointer+0x8b3f>
    5806:	2065                	.insn	2, 0x2065
    5808:	7420666f          	jal	a2,bf4a <__global_pointer+0x7351>
    580c:	6568                	.insn	2, 0x6568
    580e:	6220                	.insn	2, 0x6220
    5810:	6e61                	.insn	2, 0x6e61
    5812:	6964                	.insn	2, 0x6964
    5814:	2074                	.insn	2, 0x2074
    5816:	6c697473          	csrrci	s0,0x6c6,18
    581a:	206c                	.insn	2, 0x206c
    581c:	696c                	.insn	2, 0x696c
    581e:	7365                	.insn	2, 0x7365
    5820:	6820                	.insn	2, 0x6820
    5822:	7265                	.insn	2, 0x7265
    5824:	2e65                	.insn	2, 0x2e65
    5826:	000a                	.insn	2, 0x000a
    5828:	2d0a                	.insn	2, 0x2d0a
    582a:	3035                	.insn	2, 0x3035
    582c:	6320                	.insn	2, 0x6320
    582e:	736e696f          	jal	s2,ebf64 <__global_pointer+0xe736b>
    5832:	202e                	.insn	2, 0x202e
    5834:	6f59                	.insn	2, 0x6f59
    5836:	2075                	.insn	2, 0x2075
    5838:	6f6e                	.insn	2, 0x6f6e
    583a:	61682077          	.insn	4, 0x61682077
    583e:	6576                	.insn	2, 0x6576
    5840:	0020                	.insn	2, 0x0020
    5842:	0000                	.insn	2, 0x0000
    5844:	0a0a                	.insn	2, 0x0a0a
    5846:	6142                	.insn	2, 0x6142
    5848:	646e                	.insn	2, 0x646e
    584a:	7469                	.insn	2, 0x7469
    584c:	203a                	.insn	2, 0x203a
    584e:	0000                	.insn	2, 0x0000
    5850:	2d2d                	.insn	2, 0x2d2d
    5852:	2d2d                	.insn	2, 0x2d2d
    5854:	2d2d                	.insn	2, 0x2d2d
    5856:	2d2d                	.insn	2, 0x2d2d
    5858:	2d2d                	.insn	2, 0x2d2d
    585a:	2d2d                	.insn	2, 0x2d2d
    585c:	2d2d                	.insn	2, 0x2d2d
    585e:	2d2d                	.insn	2, 0x2d2d
    5860:	2d2d                	.insn	2, 0x2d2d
    5862:	2d2d                	.insn	2, 0x2d2d
    5864:	0a2d                	.insn	2, 0x0a2d
    5866:	0000                	.insn	2, 0x0000
    5868:	4c2d                	.insn	2, 0x4c2d
    586a:	6669                	.insn	2, 0x6669
    586c:	2065                	.insn	2, 0x2065
    586e:	68746957          	.insn	4, 0x68746957
    5872:	4120                	.insn	2, 0x4120
    5874:	7664                	.insn	2, 0x7664
    5876:	6e65                	.insn	2, 0x6e65
    5878:	7574                	.insn	2, 0x7574
    587a:	6572                	.insn	2, 0x6572
    587c:	0a2d                	.insn	2, 0x0a2d
    587e:	0000                	.insn	2, 0x0000
    5880:	430a                	.insn	2, 0x430a
    5882:	6572                	.insn	2, 0x6572
    5884:	7461                	.insn	2, 0x7461
    5886:	6465                	.insn	2, 0x6465
    5888:	6220                	.insn	2, 0x6220
    588a:	2079                	.insn	2, 0x2079
    588c:	7246                	.insn	2, 0x7246
    588e:	6e61                	.insn	2, 0x6e61
    5890:	6b452073          	csrs	0x6b4,a0
    5894:	6562                	.insn	2, 0x6562
    5896:	6772                	.insn	2, 0x6772
    5898:	6120                	.insn	2, 0x6120
    589a:	646e                	.insn	2, 0x646e
    589c:	4320                	.insn	2, 0x4320
    589e:	6168                	.insn	2, 0x6168
    58a0:	646e                	.insn	2, 0x646e
    58a2:	6461                	.insn	2, 0x6461
    58a4:	6565                	.insn	2, 0x6565
    58a6:	2070                	.insn	2, 0x2070
    58a8:	7275614b          	.insn	4, 0x7275614b
    58ac:	0a2e                	.insn	2, 0x0a2e
    58ae:	000a                	.insn	2, 0x000a
    58b0:	500a                	.insn	2, 0x500a
    58b2:	6572                	.insn	2, 0x6572
    58b4:	42207373          	csrrci	t1,0x422,0
    58b8:	7475                	.insn	2, 0x7475
    58ba:	6f74                	.insn	2, 0x6f74
    58bc:	206e                	.insn	2, 0x206e
    58be:	2031                	.insn	2, 0x2031
    58c0:	6f74                	.insn	2, 0x6f74
    58c2:	6320                	.insn	2, 0x6320
    58c4:	69746e6f          	jal	t3,4c75a <__global_pointer+0x47b61>
    58c8:	756e                	.insn	2, 0x756e
    58ca:	2e65                	.insn	2, 0x2e65
    58cc:	0000                	.insn	2, 0x0000
    58ce:	0000                	.insn	2, 0x0000
    58d0:	590a                	.insn	2, 0x590a
    58d2:	7020756f          	jal	a0,cfd4 <__global_pointer+0x83db>
    58d6:	616c                	.insn	2, 0x616c
    58d8:	2079                	.insn	2, 0x2079
    58da:	7361                	.insn	2, 0x7361
    58dc:	6120                	.insn	2, 0x6120
    58de:	206e                	.insn	2, 0x206e
    58e0:	6461                	.insn	2, 0x6461
    58e2:	6576                	.insn	2, 0x6576
    58e4:	746e                	.insn	2, 0x746e
    58e6:	7275                	.insn	2, 0x7275
    58e8:	7265                	.insn	2, 0x7265
    58ea:	6e20                	.insn	2, 0x6e20
    58ec:	6d61                	.insn	2, 0x6d61
    58ee:	6465                	.insn	2, 0x6465
    58f0:	0020                	.insn	2, 0x0020
    58f2:	0000                	.insn	2, 0x0000
    58f4:	0a2e                	.insn	2, 0x0a2e
    58f6:	20656553          	.insn	4, 0x20656553
    58fa:	6f79                	.insn	2, 0x6f79
    58fc:	7275                	.insn	2, 0x7275
    58fe:	6820                	.insn	2, 0x6820
    5900:	2070                	.insn	2, 0x2070
    5902:	74206e6f          	jal	t3,c044 <__global_pointer+0x744b>
    5906:	6568                	.insn	2, 0x6568
    5908:	7320                	.insn	2, 0x7320
    590a:	65657263          	bgeu	a0,s6,5f4e <__global_pointer+0x1355>
    590e:	206e                	.insn	2, 0x206e
    5910:	74206e6f          	jal	t3,c052 <__global_pointer+0x7459>
    5914:	6568                	.insn	2, 0x6568
    5916:	6220                	.insn	2, 0x6220
    5918:	6472616f          	jal	sp,2c75e <__global_pointer+0x27b65>
    591c:	002e                	.insn	2, 0x002e
    591e:	0000                	.insn	2, 0x0000
    5920:	6c41                	.insn	2, 0x6c41
    5922:	206c                	.insn	2, 0x206c
    5924:	7270                	.insn	2, 0x7270
    5926:	74706d6f          	jal	s10,c86c <__global_pointer+0x7c73>
    592a:	69772073          	csrs	0x697,a4
    592e:	6874                	.insn	2, 0x6874
    5930:	6e20                	.insn	2, 0x6e20
    5932:	6d75                	.insn	2, 0x6d75
    5934:	6562                	.insn	2, 0x6562
    5936:	7372                	.insn	2, 0x7372
    5938:	6920                	.insn	2, 0x6920
    593a:	206e                	.insn	2, 0x206e
    593c:	7266                	.insn	2, 0x7266
    593e:	20746e6f          	jal	t3,4c344 <__global_pointer+0x4774b>
    5942:	7420666f          	jal	a2,c084 <__global_pointer+0x748b>
    5946:	6568                	.insn	2, 0x6568
    5948:	206d                	.insn	2, 0x206d
    594a:	7261                	.insn	2, 0x7261
    594c:	2065                	.insn	2, 0x2065
    594e:	6e61                	.insn	2, 0x6e61
    5950:	72657773          	csrrci	a4,mhpmevent6h,10
    5954:	6465                	.insn	2, 0x6465
    5956:	6220                	.insn	2, 0x6220
    5958:	2079                	.insn	2, 0x2079
    595a:	6f74                	.insn	2, 0x6f74
    595c:	696c6767          	.insn	4, 0x696c6767
    5960:	676e                	.insn	2, 0x676e
    5962:	7420                	.insn	2, 0x7420
    5964:	6568                	.insn	2, 0x6568
    5966:	6320                	.insn	2, 0x6320
    5968:	6572726f          	jal	tp,2d7be <__global_pointer+0x28bc5>
    596c:	6e6f7073          	csrci	0x6e6,30
    5970:	6964                	.insn	2, 0x6964
    5972:	676e                	.insn	2, 0x676e
    5974:	7320                	.insn	2, 0x7320
    5976:	63746977          	.insn	4, 0x63746977
    597a:	2e68                	.insn	2, 0x2e68
    597c:	000a                	.insn	2, 0x000a
    597e:	0000                	.insn	2, 0x0000
    5980:	63656843          	.insn	4, 0x63656843
    5984:	6f79206b          	.insn	4, 0x6f79206b
    5988:	7275                	.insn	2, 0x7275
    598a:	6920                	.insn	2, 0x6920
    598c:	766e                	.insn	2, 0x766e
    598e:	6e65                	.insn	2, 0x6e65
    5990:	6f74                	.insn	2, 0x6f74
    5992:	7972                	.insn	2, 0x7972
    5994:	6220                	.insn	2, 0x6220
    5996:	2079                	.insn	2, 0x2079
    5998:	6f74                	.insn	2, 0x6f74
    599a:	696c6767          	.insn	4, 0x696c6767
    599e:	676e                	.insn	2, 0x676e
    59a0:	7320                	.insn	2, 0x7320
    59a2:	63746977          	.insn	4, 0x63746977
    59a6:	2068                	.insn	2, 0x2068
    59a8:	2e30                	.insn	2, 0x2e30
    59aa:	000a                	.insn	2, 0x000a
    59ac:	7341                	.insn	2, 0x7341
    59ae:	7420                	.insn	2, 0x7420
    59b0:	6568                	.insn	2, 0x6568
    59b2:	6420                	.insn	2, 0x6420
    59b4:	6172                	.insn	2, 0x6172
    59b6:	206e6f67          	.insn	4, 0x206e6f67
    59ba:	6166                	.insn	2, 0x6166
    59bc:	6c6c                	.insn	2, 0x6c6c
    59be:	6f742073          	csrs	0x6f7,s0
    59c2:	7420                	.insn	2, 0x7420
    59c4:	6568                	.insn	2, 0x6568
    59c6:	6720                	.insn	2, 0x6720
    59c8:	6f72                	.insn	2, 0x6f72
    59ca:	6e75                	.insn	2, 0x6e75
    59cc:	2c64                	.insn	2, 0x2c64
    59ce:	7920                	.insn	2, 0x7920
    59d0:	7020756f          	jal	a0,d0d2 <__global_pointer+0x84d9>
    59d4:	6369                	.insn	2, 0x6369
    59d6:	7075206b          	.insn	4, 0x7075206b
    59da:	6120                	.insn	2, 0x6120
    59dc:	6b20                	.insn	2, 0x6b20
    59de:	7965                	.insn	2, 0x7965
    59e0:	6820                	.insn	2, 0x6820
    59e2:	6e61                	.insn	2, 0x6e61
    59e4:	676e6967          	.insn	4, 0x676e6967
    59e8:	6120                	.insn	2, 0x6120
    59ea:	6f72                	.insn	2, 0x6f72
    59ec:	6e75                	.insn	2, 0x6e75
    59ee:	2064                	.insn	2, 0x2064
    59f0:	6874                	.insn	2, 0x6874
    59f2:	2065                	.insn	2, 0x2065
    59f4:	656e                	.insn	2, 0x656e
    59f6:	6f206b63          	bltu	zero,s2,60ec <__global_pointer+0x14f3>
    59fa:	2066                	.insn	2, 0x2066
    59fc:	6874                	.insn	2, 0x6874
    59fe:	2065                	.insn	2, 0x2065
    5a00:	6562                	.insn	2, 0x6562
    5a02:	7361                	.insn	2, 0x7361
    5a04:	2e74                	.insn	2, 0x2e74
    5a06:	0000                	.insn	2, 0x0000
    5a08:	590a                	.insn	2, 0x590a
    5a0a:	6c20756f          	jal	a0,d0cc <__global_pointer+0x84d3>
    5a0e:	206b6f6f          	jal	t5,bbc14 <__global_pointer+0xb701b>
    5a12:	6361                	.insn	2, 0x6361
    5a14:	6f72                	.insn	2, 0x6f72
    5a16:	74207373          	csrrci	t1,mncause,0
    5a1a:	6568                	.insn	2, 0x6568
    5a1c:	7220                	.insn	2, 0x7220
    5a1e:	206d6f6f          	jal	t5,dbc24 <__global_pointer+0xd702b>
    5a22:	6e61                	.insn	2, 0x6e61
    5a24:	2064                	.insn	2, 0x2064
    5a26:	20656573          	csrrsi	a0,0x206,10
    5a2a:	2061                	.insn	2, 0x2061
    5a2c:	616d                	.insn	2, 0x616d
    5a2e:	76697373          	csrrci	t1,0x766,18
    5a32:	2065                	.insn	2, 0x2065
    5a34:	73656863          	bltu	a0,s6,6164 <__global_pointer+0x156b>
    5a38:	2074                	.insn	2, 0x2074
    5a3a:	7061                	.insn	2, 0x7061
    5a3c:	6570                	.insn	2, 0x6570
    5a3e:	6972                	.insn	2, 0x6972
    5a40:	676e                	.insn	2, 0x676e
    5a42:	6220                	.insn	2, 0x6220
    5a44:	6865                	.insn	2, 0x6865
    5a46:	6e69                	.insn	2, 0x6e69
    5a48:	2064                	.insn	2, 0x2064
    5a4a:	6874                	.insn	2, 0x6874
    5a4c:	2065                	.insn	2, 0x2065
    5a4e:	6166                	.insn	2, 0x6166
    5a50:	6c6c                	.insn	2, 0x6c6c
    5a52:	6e65                	.insn	2, 0x6e65
    5a54:	6620                	.insn	2, 0x6620
    5a56:	002e656f          	jal	a0,eba58 <__global_pointer+0xe6e5f>
    5a5a:	0000                	.insn	2, 0x0000
    5a5c:	590a                	.insn	2, 0x590a
    5a5e:	6120756f          	jal	a0,d070 <__global_pointer+0x8477>
    5a62:	7070                	.insn	2, 0x7070
    5a64:	6f72                	.insn	2, 0x6f72
    5a66:	6361                	.insn	2, 0x6361
    5a68:	2068                	.insn	2, 0x2068
    5a6a:	6874                	.insn	2, 0x6874
    5a6c:	2065                	.insn	2, 0x2065
    5a6e:	73656863          	bltu	a0,s6,619e <__global_pointer+0x15a5>
    5a72:	2074                	.insn	2, 0x2074
    5a74:	6874                	.insn	2, 0x6874
    5a76:	7461                	.insn	2, 0x7461
    5a78:	6c20                	.insn	2, 0x6c20
    5a7a:	736b6f6f          	jal	t5,bc1b0 <__global_pointer+0xb75b7>
    5a7e:	7420                	.insn	2, 0x7420
    5a80:	6562206f          	j	280d6 <__global_pointer+0x234dd>
    5a84:	6220                	.insn	2, 0x6220
    5a86:	6769                	.insn	2, 0x6769
    5a88:	20726567          	.insn	4, 0x20726567
    5a8c:	6874                	.insn	2, 0x6874
    5a8e:	7461                	.insn	2, 0x7461
    5a90:	6120                	.insn	2, 0x6120
    5a92:	796e                	.insn	2, 0x796e
    5a94:	6320                	.insn	2, 0x6320
    5a96:	6966666f          	jal	a2,6c12c <__global_pointer+0x67533>
    5a9a:	206e                	.insn	2, 0x206e
    5a9c:	6f79                	.insn	2, 0x6f79
    5a9e:	2075                	.insn	2, 0x2075
    5aa0:	6168                	.insn	2, 0x6168
    5aa2:	6576                	.insn	2, 0x6576
    5aa4:	6520                	.insn	2, 0x6520
    5aa6:	6576                	.insn	2, 0x6576
    5aa8:	2072                	.insn	2, 0x2072
    5aaa:	6e656573          	csrrsi	a0,0x6e6,10
    5aae:	6220                	.insn	2, 0x6220
    5ab0:	6665                	.insn	2, 0x6665
    5ab2:	2c65726f          	jal	tp,5cd78 <__global_pointer+0x5817f>
    5ab6:	6120                	.insn	2, 0x6120
    5ab8:	646e                	.insn	2, 0x646e
    5aba:	7920                	.insn	2, 0x7920
    5abc:	7420756f          	jal	a0,d1fe <__global_pointer+0x8605>
    5ac0:	7972                	.insn	2, 0x7972
    5ac2:	7420                	.insn	2, 0x7420
    5ac4:	6568                	.insn	2, 0x6568
    5ac6:	6b20                	.insn	2, 0x6b20
    5ac8:	7965                	.insn	2, 0x7965
    5aca:	2e2e                	.insn	2, 0x2e2e
    5acc:	002e                	.insn	2, 0x002e
    5ace:	0000                	.insn	2, 0x0000
    5ad0:	490a                	.insn	2, 0x490a
    5ad2:	2074                	.insn	2, 0x2074
    5ad4:	6966                	.insn	2, 0x6966
    5ad6:	7374                	.insn	2, 0x7374
    5ad8:	2021                	.insn	2, 0x2021
    5ada:	6f59                	.insn	2, 0x6f59
    5adc:	2075                	.insn	2, 0x2075
    5ade:	6168                	.insn	2, 0x6168
    5ae0:	6c697473          	csrrci	s0,0x6c6,18
    5ae4:	2079                	.insn	2, 0x2079
    5ae6:	7574                	.insn	2, 0x7574
    5ae8:	6e72                	.insn	2, 0x6e72
    5aea:	7420                	.insn	2, 0x7420
    5aec:	6568                	.insn	2, 0x6568
    5aee:	6b20                	.insn	2, 0x6b20
    5af0:	7965                	.insn	2, 0x7965
    5af2:	6120                	.insn	2, 0x6120
    5af4:	646e                	.insn	2, 0x646e
    5af6:	7420                	.insn	2, 0x7420
    5af8:	6568                	.insn	2, 0x6568
    5afa:	6320                	.insn	2, 0x6320
    5afc:	6568                	.insn	2, 0x6568
    5afe:	73207473          	csrrci	s0,mhpmevent18h,0
    5b02:	676e6977          	.insn	4, 0x676e6977
    5b06:	706f2073          	csrs	0x706,t5
    5b0a:	6e65                	.insn	2, 0x6e65
    5b0c:	0a21                	.insn	2, 0x0a21
    5b0e:	0000                	.insn	2, 0x0000
    5b10:	410a                	.insn	2, 0x410a
    5b12:	6d20                	.insn	2, 0x6d20
    5b14:	746e756f          	jal	a0,ed25a <__global_pointer+0xe8661>
    5b18:	6961                	.insn	2, 0x6961
    5b1a:	206e                	.insn	2, 0x206e
    5b1c:	6720666f          	jal	a2,c18e <__global_pointer+0x7595>
    5b20:	20646c6f          	jal	s8,4bd26 <__global_pointer+0x4712d>
    5b24:	7061                	.insn	2, 0x7061
    5b26:	6570                	.insn	2, 0x6570
    5b28:	7261                	.insn	2, 0x7261
    5b2a:	7365                	.insn	2, 0x7365
    5b2c:	6920                	.insn	2, 0x6920
    5b2e:	206e                	.insn	2, 0x206e
    5b30:	7266                	.insn	2, 0x7266
    5b32:	20746e6f          	jal	t3,4c538 <__global_pointer+0x4793f>
    5b36:	7920666f          	jal	a2,c2c8 <__global_pointer+0x76cf>
    5b3a:	6120756f          	jal	a0,d14c <__global_pointer+0x8553>
    5b3e:	646e                	.insn	2, 0x646e
    5b40:	7920                	.insn	2, 0x7920
    5b42:	6120756f          	jal	a0,d154 <__global_pointer+0x855b>
    5b46:	6572                	.insn	2, 0x6572
    5b48:	6620                	.insn	2, 0x6620
    5b4a:	6c69                	.insn	2, 0x6c69
    5b4c:	656c                	.insn	2, 0x656c
    5b4e:	2064                	.insn	2, 0x2064
    5b50:	68746977          	.insn	4, 0x68746977
    5b54:	6a20                	.insn	2, 0x6a20
    5b56:	0021796f          	jal	s2,1cb58 <__global_pointer+0x17f5f>
    5b5a:	0000                	.insn	2, 0x0000
    5b5c:	4e0a                	.insn	2, 0x4e0a
    5b5e:	7320746f          	jal	s0,d290 <__global_pointer+0x8697>
    5b62:	756d206f          	j	d82b8 <__global_pointer+0xd36bf>
    5b66:	62206863          	bltu	zero,sp,6196 <__global_pointer+0x159d>
    5b6a:	6365                	.insn	2, 0x6365
    5b6c:	7561                	.insn	2, 0x7561
    5b6e:	6f206573          	csrrsi	a0,0x6f2,0
    5b72:	2066                	.insn	2, 0x2066
    5b74:	6874                	.insn	2, 0x6874
    5b76:	2065                	.insn	2, 0x2065
    5b78:	6972                	.insn	2, 0x6972
    5b7a:	73656863          	bltu	a0,s6,62aa <__global_pointer+0x16b1>
    5b7e:	202c                	.insn	2, 0x202c
    5b80:	7562                	.insn	2, 0x7562
    5b82:	2074                	.insn	2, 0x2074
    5b84:	6562                	.insn	2, 0x6562
    5b86:	75736163          	bltu	t1,s7,62c8 <__global_pointer+0x16cf>
    5b8a:	2065                	.insn	2, 0x2065
    5b8c:	6f79                	.insn	2, 0x6f79
    5b8e:	2075                	.insn	2, 0x2075
    5b90:	65726577          	.insn	4, 0x65726577
    5b94:	7420                	.insn	2, 0x7420
    5b96:	6568                	.insn	2, 0x6568
    5b98:	6120                	.insn	2, 0x6120
    5b9a:	7664                	.insn	2, 0x7664
    5b9c:	6e65                	.insn	2, 0x6e65
    5b9e:	7574                	.insn	2, 0x7574
    5ba0:	6572                	.insn	2, 0x6572
    5ba2:	2072                	.insn	2, 0x2072
    5ba4:	6f74                	.insn	2, 0x6f74
    5ba6:	7320                	.insn	2, 0x7320
    5ba8:	616c                	.insn	2, 0x616c
    5baa:	2079                	.insn	2, 0x2079
    5bac:	6874                	.insn	2, 0x6874
    5bae:	2065                	.insn	2, 0x2065
    5bb0:	7264                	.insn	2, 0x7264
    5bb2:	6761                	.insn	2, 0x6761
    5bb4:	61206e6f          	jal	t3,c1c6 <__global_pointer+0x75cd>
    5bb8:	646e                	.insn	2, 0x646e
    5bba:	7020                	.insn	2, 0x7020
    5bbc:	6f72                	.insn	2, 0x6f72
    5bbe:	6576                	.insn	2, 0x6576
    5bc0:	7420                	.insn	2, 0x7420
    5bc2:	6568                	.insn	2, 0x6568
    5bc4:	7220                	.insn	2, 0x7220
    5bc6:	6d75                	.insn	2, 0x6d75
    5bc8:	2073726f          	jal	tp,3d5ce <__global_pointer+0x389d5>
    5bcc:	6f74                	.insn	2, 0x6f74
    5bce:	6220                	.insn	2, 0x6220
    5bd0:	2065                	.insn	2, 0x2065
    5bd2:	7274                	.insn	2, 0x7274
    5bd4:	6575                	.insn	2, 0x6575
    5bd6:	002e                	.insn	2, 0x002e
    5bd8:	0a0a                	.insn	2, 0x0a0a
    5bda:	4320                	.insn	2, 0x4320
    5bdc:	72676e6f          	jal	t3,7c302 <__global_pointer+0x77709>
    5be0:	7461                	.insn	2, 0x7461
    5be2:	59202173          	csrr	sp,0x592
    5be6:	7720756f          	jal	a0,d358 <__global_pointer+0x875f>
    5bea:	74206e6f          	jal	t3,c32c <__global_pointer+0x7733>
    5bee:	6568                	.insn	2, 0x6568
    5bf0:	6720                	.insn	2, 0x6720
    5bf2:	6d61                	.insn	2, 0x6d61
    5bf4:	2165                	.insn	2, 0x2165
    5bf6:	000a                	.insn	2, 0x000a
    5bf8:	590a                	.insn	2, 0x590a
    5bfa:	7020756f          	jal	a0,d2fc <__global_pointer+0x8703>
    5bfe:	616c                	.insn	2, 0x616c
    5c00:	6579                	.insn	2, 0x6579
    5c02:	2064                	.insn	2, 0x2064
    5c04:	6f66                	.insn	2, 0x6f66
    5c06:	2072                	.insn	2, 0x2072
    5c08:	0000                	.insn	2, 0x0000
    5c0a:	0000                	.insn	2, 0x0000
    5c0c:	0a0a                	.insn	2, 0x0a0a
    5c0e:	6959                	.insn	2, 0x6959
    5c10:	7070                	.insn	2, 0x7070
    5c12:	6569                	.insn	2, 0x6569
    5c14:	2121                	.insn	2, 0x2121
    5c16:	000a                	.insn	2, 0x000a
    5c18:	570a                	.insn	2, 0x570a
    5c1a:	646c756f          	jal	a0,cd260 <__global_pointer+0xc8667>
    5c1e:	7920                	.insn	2, 0x7920
    5c20:	6c20756f          	jal	a0,d2e2 <__global_pointer+0x86e9>
    5c24:	6b69                	.insn	2, 0x6b69
    5c26:	2065                	.insn	2, 0x2065
    5c28:	6f74                	.insn	2, 0x6f74
    5c2a:	7020                	.insn	2, 0x7020
    5c2c:	616c                	.insn	2, 0x616c
    5c2e:	2079                	.insn	2, 0x2079
    5c30:	6761                	.insn	2, 0x6761
    5c32:	6961                	.insn	2, 0x6961
    5c34:	3f6e                	.insn	2, 0x3f6e
    5c36:	500a                	.insn	2, 0x500a
    5c38:	6572                	.insn	2, 0x6572
    5c3a:	42207373          	csrrci	t1,0x422,0
    5c3e:	7475                	.insn	2, 0x7475
    5c40:	6f74                	.insn	2, 0x6f74
    5c42:	206e                	.insn	2, 0x206e
    5c44:	2e31                	.insn	2, 0x2e31
    5c46:	0000                	.insn	2, 0x0000
    5c48:	2e31                	.insn	2, 0x2e31
    5c4a:	4120                	.insn	2, 0x4120
    5c4c:	7070                	.insn	2, 0x7070
    5c4e:	6f72                	.insn	2, 0x6f72
    5c50:	6361                	.insn	2, 0x6361
    5c52:	2068                	.insn	2, 0x2068
    5c54:	6874                	.insn	2, 0x6874
    5c56:	2065                	.insn	2, 0x2065
    5c58:	20646c6f          	jal	s8,4be5e <__global_pointer+0x47265>
    5c5c:	616d                	.insn	2, 0x616d
    5c5e:	2e6e                	.insn	2, 0x2e6e
    5c60:	000a                	.insn	2, 0x000a
    5c62:	0000                	.insn	2, 0x0000
    5c64:	2e32                	.insn	2, 0x2e32
    5c66:	4c20                	.insn	2, 0x4c20
    5c68:	6165                	.insn	2, 0x6165
    5c6a:	6576                	.insn	2, 0x6576
    5c6c:	0a2e                	.insn	2, 0x0a2e
    5c6e:	0000                	.insn	2, 0x0000
    5c70:	590a                	.insn	2, 0x590a
    5c72:	6420756f          	jal	a0,d2b4 <__global_pointer+0x86bb>
    5c76:	6365                	.insn	2, 0x6365
    5c78:	6469                	.insn	2, 0x6469
    5c7a:	2065                	.insn	2, 0x2065
    5c7c:	6f74                	.insn	2, 0x6f74
    5c7e:	7420                	.insn	2, 0x7420
    5c80:	6c61                	.insn	2, 0x6c61
    5c82:	6f74206b          	.insn	4, 0x6f74206b
    5c86:	7420                	.insn	2, 0x7420
    5c88:	6568                	.insn	2, 0x6568
    5c8a:	6f20                	.insn	2, 0x6f20
    5c8c:	646c                	.insn	2, 0x646c
    5c8e:	6d20                	.insn	2, 0x6d20
    5c90:	6e61                	.insn	2, 0x6e61
    5c92:	0a2e                	.insn	2, 0x0a2e
    5c94:	0000                	.insn	2, 0x0000
    5c96:	0000                	.insn	2, 0x0000
    5c98:	590a                	.insn	2, 0x590a
    5c9a:	6420756f          	jal	a0,d2dc <__global_pointer+0x86e3>
    5c9e:	6365                	.insn	2, 0x6365
    5ca0:	6469                	.insn	2, 0x6469
    5ca2:	2065                	.insn	2, 0x2065
    5ca4:	6f74                	.insn	2, 0x6f74
    5ca6:	6c20                	.insn	2, 0x6c20
    5ca8:	6165                	.insn	2, 0x6165
    5caa:	6576                	.insn	2, 0x6576
    5cac:	002e                	.insn	2, 0x002e
    5cae:	0000                	.insn	2, 0x0000
    5cb0:	2e31                	.insn	2, 0x2e31
    5cb2:	4520                	.insn	2, 0x4520
    5cb4:	7078                	.insn	2, 0x7078
    5cb6:	6f6c                	.insn	2, 0x6f6c
    5cb8:	6572                	.insn	2, 0x6572
    5cba:	7420                	.insn	2, 0x7420
    5cbc:	6568                	.insn	2, 0x6568
    5cbe:	6620                	.insn	2, 0x6620
    5cc0:	7365726f          	jal	tp,5d3f6 <__global_pointer+0x587fd>
    5cc4:	2e74                	.insn	2, 0x2e74
    5cc6:	000a                	.insn	2, 0x000a
    5cc8:	590a                	.insn	2, 0x590a
    5cca:	6420756f          	jal	a0,d30c <__global_pointer+0x8713>
    5cce:	6365                	.insn	2, 0x6365
    5cd0:	6469                	.insn	2, 0x6469
    5cd2:	2065                	.insn	2, 0x2065
    5cd4:	6f74                	.insn	2, 0x6f74
    5cd6:	6520                	.insn	2, 0x6520
    5cd8:	7078                	.insn	2, 0x7078
    5cda:	6f6c                	.insn	2, 0x6f6c
    5cdc:	6572                	.insn	2, 0x6572
    5cde:	7420                	.insn	2, 0x7420
    5ce0:	6568                	.insn	2, 0x6568
    5ce2:	6620                	.insn	2, 0x6620
    5ce4:	7365726f          	jal	tp,5d41a <__global_pointer+0x58821>
    5ce8:	2e74                	.insn	2, 0x2e74
    5cea:	000a                	.insn	2, 0x000a
    5cec:	540a                	.insn	2, 0x540a
    5cee:	6568                	.insn	2, 0x6568
    5cf0:	5720                	.insn	2, 0x5720
    5cf2:	20666c6f          	jal	s8,6bef8 <__global_pointer+0x672ff>
    5cf6:	696c                	.insn	2, 0x696c
    5cf8:	7365                	.insn	2, 0x7365
    5cfa:	7320                	.insn	2, 0x7320
    5cfc:	616c                	.insn	2, 0x616c
    5cfe:	6e69                	.insn	2, 0x6e69
    5d00:	6220                	.insn	2, 0x6220
    5d02:	7365                	.insn	2, 0x7365
    5d04:	6469                	.insn	2, 0x6469
    5d06:	2065                	.insn	2, 0x2065
    5d08:	6874                	.insn	2, 0x6874
    5d0a:	2065                	.insn	2, 0x2065
    5d0c:	6170                	.insn	2, 0x6170
    5d0e:	6874                	.insn	2, 0x6874
    5d10:	202c                	.insn	2, 0x202c
    5d12:	7562                	.insn	2, 0x7562
    5d14:	2074                	.insn	2, 0x2074
    5d16:	6f6e                	.insn	2, 0x6f6e
    5d18:	6f20                	.insn	2, 0x6f20
    5d1a:	6874                	.insn	2, 0x6874
    5d1c:	7265                	.insn	2, 0x7265
    5d1e:	6320                	.insn	2, 0x6320
    5d20:	6572                	.insn	2, 0x6572
    5d22:	7461                	.insn	2, 0x7461
    5d24:	7275                	.insn	2, 0x7275
    5d26:	7365                	.insn	2, 0x7365
    5d28:	6120                	.insn	2, 0x6120
    5d2a:	6572                	.insn	2, 0x6572
    5d2c:	6920                	.insn	2, 0x6920
    5d2e:	206e                	.insn	2, 0x206e
    5d30:	68676973          	csrrsi	s2,0x686,14
    5d34:	2e74                	.insn	2, 0x2e74
    5d36:	000a                	.insn	2, 0x000a
    5d38:	2e31                	.insn	2, 0x2e31
    5d3a:	4920                	.insn	2, 0x4920
    5d3c:	736e                	.insn	2, 0x736e
    5d3e:	6570                	.insn	2, 0x6570
    5d40:	74207463          	bgeu	zero,sp,6488 <__global_pointer+0x188f>
    5d44:	6568                	.insn	2, 0x6568
    5d46:	7720                	.insn	2, 0x7720
    5d48:	6c65                	.insn	2, 0x6c65
    5d4a:	2e6c                	.insn	2, 0x2e6c
    5d4c:	000a                	.insn	2, 0x000a
    5d4e:	0000                	.insn	2, 0x0000
    5d50:	590a                	.insn	2, 0x590a
    5d52:	6420756f          	jal	a0,d394 <__global_pointer+0x879b>
    5d56:	6365                	.insn	2, 0x6365
    5d58:	6469                	.insn	2, 0x6469
    5d5a:	2065                	.insn	2, 0x2065
    5d5c:	6f74                	.insn	2, 0x6f74
    5d5e:	6920                	.insn	2, 0x6920
    5d60:	736e                	.insn	2, 0x736e
    5d62:	6570                	.insn	2, 0x6570
    5d64:	74207463          	bgeu	zero,sp,64ac <__global_pointer+0x18b3>
    5d68:	6568                	.insn	2, 0x6568
    5d6a:	7720                	.insn	2, 0x7720
    5d6c:	6c65                	.insn	2, 0x6c65
    5d6e:	2e6c                	.insn	2, 0x2e6c
    5d70:	000a                	.insn	2, 0x000a
    5d72:	0000                	.insn	2, 0x0000
    5d74:	0079654b          	.insn	4, 0x0079654b
    5d78:	410a                	.insn	2, 0x410a
    5d7a:	6c6c                	.insn	2, 0x6c6c
    5d7c:	7920                	.insn	2, 0x7920
    5d7e:	6320756f          	jal	a0,d3b0 <__global_pointer+0x87b7>
    5d82:	6e61                	.insn	2, 0x6e61
    5d84:	7320                	.insn	2, 0x7320
    5d86:	6565                	.insn	2, 0x6565
    5d88:	6420                	.insn	2, 0x6420
    5d8a:	206e776f          	jal	a4,ecf90 <__global_pointer+0xe8397>
    5d8e:	6874                	.insn	2, 0x6874
    5d90:	7265                	.insn	2, 0x7265
    5d92:	2065                	.insn	2, 0x2065
    5d94:	7369                	.insn	2, 0x7369
    5d96:	6420                	.insn	2, 0x6420
    5d98:	7261                	.insn	2, 0x7261
    5d9a:	73656e6b          	.insn	4, 0x73656e6b
    5d9e:	62202c73          	csrr	s8,0x622
    5da2:	7475                	.insn	2, 0x7475
    5da4:	7920                	.insn	2, 0x7920
    5da6:	6320756f          	jal	a0,d3d8 <__global_pointer+0x87df>
    5daa:	6e61                	.insn	2, 0x6e61
    5dac:	6820                	.insn	2, 0x6820
    5dae:	6165                	.insn	2, 0x6165
    5db0:	2072                	.insn	2, 0x2072
    5db2:	6874                	.insn	2, 0x6874
    5db4:	2065                	.insn	2, 0x2065
    5db6:	6e756f73          	csrrsi	t5,0x6e7,10
    5dba:	2064                	.insn	2, 0x2064
    5dbc:	6420666f          	jal	a2,c3fe <__global_pointer+0x7805>
    5dc0:	6f72                	.insn	2, 0x6f72
    5dc2:	7370                	.insn	2, 0x7370
    5dc4:	6820                	.insn	2, 0x6820
    5dc6:	7469                	.insn	2, 0x7469
    5dc8:	6974                	.insn	2, 0x6974
    5dca:	676e                	.insn	2, 0x676e
    5dcc:	7420                	.insn	2, 0x7420
    5dce:	6568                	.insn	2, 0x6568
    5dd0:	7720                	.insn	2, 0x7720
    5dd2:	7461                	.insn	2, 0x7461
    5dd4:	7265                	.insn	2, 0x7265
    5dd6:	6220                	.insn	2, 0x6220
    5dd8:	6c65                	.insn	2, 0x6c65
    5dda:	002e776f          	jal	a4,ecddc <__global_pointer+0xe81e3>
    5dde:	0000                	.insn	2, 0x0000
    5de0:	410a                	.insn	2, 0x410a
    5de2:	6f792073          	csrs	0x6f7,s2
    5de6:	2075                	.insn	2, 0x2075
    5de8:	6f6c                	.insn	2, 0x6f6c
    5dea:	63206b6f          	jal	s6,c41c <__global_pointer+0x7823>
    5dee:	6f6c                	.insn	2, 0x6f6c
    5df0:	796c6573          	csrrsi	a0,0x796,24
    5df4:	202c                	.insn	2, 0x202c
    5df6:	656d6f73          	csrrsi	t5,hviprio1h,26
    5dfa:	6874                	.insn	2, 0x6874
    5dfc:	6e69                	.insn	2, 0x6e69
    5dfe:	68732067          	.insn	4, 0x68732067
    5e02:	6e69                	.insn	2, 0x6e69
    5e04:	6e69                	.insn	2, 0x6e69
    5e06:	61632067          	.insn	4, 0x61632067
    5e0a:	6374                	.insn	2, 0x6374
    5e0c:	6568                	.insn	2, 0x6568
    5e0e:	6f792073          	csrs	0x6f7,s2
    5e12:	7275                	.insn	2, 0x7275
    5e14:	6520                	.insn	2, 0x6520
    5e16:	6579                	.insn	2, 0x6579
    5e18:	2e2e                	.insn	2, 0x2e2e
    5e1a:	492e                	.insn	2, 0x492e
    5e1c:	2774                	.insn	2, 0x2774
    5e1e:	20612073          	csrs	0x206,sp
    5e22:	2179656b          	.insn	4, 0x2179656b
    5e26:	0000                	.insn	2, 0x0000
    5e28:	590a                	.insn	2, 0x590a
    5e2a:	6f20756f          	jal	a0,d51c <__global_pointer+0x8923>
    5e2e:	7462                	.insn	2, 0x7462
    5e30:	6961                	.insn	2, 0x6961
    5e32:	656e                	.insn	2, 0x656e
    5e34:	2064                	.insn	2, 0x2064
    5e36:	2061                	.insn	2, 0x2061
    5e38:	2179656b          	.insn	4, 0x2179656b
    5e3c:	000a                	.insn	2, 0x000a
    5e3e:	0000                	.insn	2, 0x0000
    5e40:	2b0a                	.insn	2, 0x2b0a
    5e42:	2031                	.insn	2, 0x2031
    5e44:	0a79654b          	.insn	4, 0x0a79654b
    5e48:	0000                	.insn	2, 0x0000
    5e4a:	0000                	.insn	2, 0x0000
    5e4c:	2e31                	.insn	2, 0x2e31
    5e4e:	4120                	.insn	2, 0x4120
    5e50:	7070                	.insn	2, 0x7070
    5e52:	6f72                	.insn	2, 0x6f72
    5e54:	6361                	.insn	2, 0x6361
    5e56:	2068                	.insn	2, 0x2068
    5e58:	6874                	.insn	2, 0x6874
    5e5a:	2065                	.insn	2, 0x2065
    5e5c:	6142                	.insn	2, 0x6142
    5e5e:	7472                	.insn	2, 0x7472
    5e60:	6e65                	.insn	2, 0x6e65
    5e62:	6564                	.insn	2, 0x6564
    5e64:	2e72                	.insn	2, 0x2e72
    5e66:	000a                	.insn	2, 0x000a
    5e68:	590a                	.insn	2, 0x590a
    5e6a:	6420756f          	jal	a0,d4ac <__global_pointer+0x88b3>
    5e6e:	6365                	.insn	2, 0x6365
    5e70:	6469                	.insn	2, 0x6469
    5e72:	2065                	.insn	2, 0x2065
    5e74:	6f74                	.insn	2, 0x6f74
    5e76:	7420                	.insn	2, 0x7420
    5e78:	6c61                	.insn	2, 0x6c61
    5e7a:	6f74206b          	.insn	4, 0x6f74206b
    5e7e:	7420                	.insn	2, 0x7420
    5e80:	6568                	.insn	2, 0x6568
    5e82:	6220                	.insn	2, 0x6220
    5e84:	7261                	.insn	2, 0x7261
    5e86:	6574                	.insn	2, 0x6574
    5e88:	646e                	.insn	2, 0x646e
    5e8a:	7265                	.insn	2, 0x7265
    5e8c:	0a2e                	.insn	2, 0x0a2e
    5e8e:	0000                	.insn	2, 0x0000
    5e90:	2e31                	.insn	2, 0x2e31
    5e92:	4120                	.insn	2, 0x4120
    5e94:	7070                	.insn	2, 0x7070
    5e96:	6f72                	.insn	2, 0x6f72
    5e98:	6361                	.insn	2, 0x6361
    5e9a:	2068                	.insn	2, 0x2068
    5e9c:	6874                	.insn	2, 0x6874
    5e9e:	2065                	.insn	2, 0x2065
    5ea0:	6556                	.insn	2, 0x6556
    5ea2:	646e                	.insn	2, 0x646e
    5ea4:	0a2e726f          	jal	tp,ecf46 <__global_pointer+0xe834d>
    5ea8:	0000                	.insn	2, 0x0000
    5eaa:	0000                	.insn	2, 0x0000
    5eac:	590a                	.insn	2, 0x590a
    5eae:	6420756f          	jal	a0,d4f0 <__global_pointer+0x88f7>
    5eb2:	6365                	.insn	2, 0x6365
    5eb4:	6469                	.insn	2, 0x6469
    5eb6:	2065                	.insn	2, 0x2065
    5eb8:	6f74                	.insn	2, 0x6f74
    5eba:	6120                	.insn	2, 0x6120
    5ebc:	7070                	.insn	2, 0x7070
    5ebe:	6f72                	.insn	2, 0x6f72
    5ec0:	6361                	.insn	2, 0x6361
    5ec2:	2068                	.insn	2, 0x2068
    5ec4:	6874                	.insn	2, 0x6874
    5ec6:	2065                	.insn	2, 0x2065
    5ec8:	6576                	.insn	2, 0x6576
    5eca:	646e                	.insn	2, 0x646e
    5ecc:	0a2e726f          	jal	tp,ecf6e <__global_pointer+0xe8375>
    5ed0:	0000                	.insn	2, 0x0000
    5ed2:	0000                	.insn	2, 0x0000
    5ed4:	2e31                	.insn	2, 0x2e31
    5ed6:	4520                	.insn	2, 0x4520
    5ed8:	7078                	.insn	2, 0x7078
    5eda:	6f6c                	.insn	2, 0x6f6c
    5edc:	6572                	.insn	2, 0x6572
    5ede:	7420                	.insn	2, 0x7420
    5ee0:	6568                	.insn	2, 0x6568
    5ee2:	6f20                	.insn	2, 0x6f20
    5ee4:	696d                	.insn	2, 0x696d
    5ee6:	6f6e                	.insn	2, 0x6f6e
    5ee8:	7375                	.insn	2, 0x7375
    5eea:	6320                	.insn	2, 0x6320
    5eec:	7661                	.insn	2, 0x7661
    5eee:	2e65                	.insn	2, 0x2e65
    5ef0:	000a                	.insn	2, 0x000a
    5ef2:	0000                	.insn	2, 0x0000
    5ef4:	2e32                	.insn	2, 0x2e32
    5ef6:	4720                	.insn	2, 0x4720
    5ef8:	6162206f          	j	2850e <__global_pointer+0x23915>
    5efc:	74206b63          	bltu	zero,sp,6652 <__global_pointer+0x1a59>
    5f00:	6874206f          	j	48d86 <__global_pointer+0x4418d>
    5f04:	2065                	.insn	2, 0x2065
    5f06:	614d                	.insn	2, 0x614d
    5f08:	6b72                	.insn	2, 0x6b72
    5f0a:	7465                	.insn	2, 0x7465
    5f0c:	6c70                	.insn	2, 0x6c70
    5f0e:	6361                	.insn	2, 0x6361
    5f10:	2e65                	.insn	2, 0x2e65
    5f12:	0000                	.insn	2, 0x0000
    5f14:	410a                	.insn	2, 0x410a
    5f16:	6f792073          	csrs	0x6f7,s2
    5f1a:	2075                	.insn	2, 0x2075
    5f1c:	6f6d                	.insn	2, 0x6f6d
    5f1e:	6576                	.insn	2, 0x6576
    5f20:	6920                	.insn	2, 0x6920
    5f22:	746e                	.insn	2, 0x746e
    5f24:	6874206f          	j	48daa <__global_pointer+0x441b1>
    5f28:	2065                	.insn	2, 0x2065
    5f2a:	65766163          	bltu	a2,s7,656c <__global_pointer+0x1973>
    5f2e:	7920                	.insn	2, 0x7920
    5f30:	6620756f          	jal	a0,d592 <__global_pointer+0x8999>
    5f34:	6565                	.insn	2, 0x6565
    5f36:	206c                	.insn	2, 0x206c
    5f38:	2061                	.insn	2, 0x2061
    5f3a:	6c696863          	bltu	s2,t1,660a <__global_pointer+0x1a11>
    5f3e:	696c                	.insn	2, 0x696c
    5f40:	676e                	.insn	2, 0x676e
    5f42:	6220                	.insn	2, 0x6220
    5f44:	6572                	.insn	2, 0x6572
    5f46:	7a65                	.insn	2, 0x7a65
    5f48:	2e65                	.insn	2, 0x2e65
    5f4a:	000a                	.insn	2, 0x000a
    5f4c:	2e31                	.insn	2, 0x2e31
    5f4e:	4520                	.insn	2, 0x4520
    5f50:	7078                	.insn	2, 0x7078
    5f52:	6f6c                	.insn	2, 0x6f6c
    5f54:	6572                	.insn	2, 0x6572
    5f56:	6620                	.insn	2, 0x6620
    5f58:	7275                	.insn	2, 0x7275
    5f5a:	6874                	.insn	2, 0x6874
    5f5c:	7265                	.insn	2, 0x7265
    5f5e:	0a2e                	.insn	2, 0x0a2e
    5f60:	0000                	.insn	2, 0x0000
    5f62:	0000                	.insn	2, 0x0000
    5f64:	410a                	.insn	2, 0x410a
    5f66:	6f792073          	csrs	0x6f7,s2
    5f6a:	2075                	.insn	2, 0x2075
    5f6c:	6f6d                	.insn	2, 0x6f6d
    5f6e:	6576                	.insn	2, 0x6576
    5f70:	6420                	.insn	2, 0x6420
    5f72:	6565                	.insn	2, 0x6565
    5f74:	6570                	.insn	2, 0x6570
    5f76:	2072                	.insn	2, 0x2072
    5f78:	6e69                	.insn	2, 0x6e69
    5f7a:	6f74                	.insn	2, 0x6f74
    5f7c:	7420                	.insn	2, 0x7420
    5f7e:	6568                	.insn	2, 0x6568
    5f80:	6320                	.insn	2, 0x6320
    5f82:	7661                	.insn	2, 0x7661
    5f84:	2c65                	.insn	2, 0x2c65
    5f86:	7420                	.insn	2, 0x7420
    5f88:	6568                	.insn	2, 0x6568
    5f8a:	6420                	.insn	2, 0x6420
    5f8c:	7261                	.insn	2, 0x7261
    5f8e:	73656e6b          	.insn	4, 0x73656e6b
    5f92:	72632073          	csrs	mhpmevent6h,t1
    5f96:	6565                	.insn	2, 0x6565
    5f98:	7370                	.insn	2, 0x7370
    5f9a:	6920                	.insn	2, 0x6920
    5f9c:	206e                	.insn	2, 0x206e
    5f9e:	7261                	.insn	2, 0x7261
    5fa0:	646e756f          	jal	a0,ed5e6 <__global_pointer+0xe89ed>
    5fa4:	7920                	.insn	2, 0x7920
    5fa6:	0a2e756f          	jal	a0,ed048 <__global_pointer+0xe844f>
    5faa:	0000                	.insn	2, 0x0000
    5fac:	590a                	.insn	2, 0x590a
    5fae:	6e20756f          	jal	a0,d690 <__global_pointer+0x8a97>
    5fb2:	6369746f          	jal	s0,9d5e8 <__global_pointer+0x989ef>
    5fb6:	2065                	.insn	2, 0x2065
    5fb8:	6874                	.insn	2, 0x6874
    5fba:	7461                	.insn	2, 0x7461
    5fbc:	7420                	.insn	2, 0x7420
    5fbe:	6568                	.insn	2, 0x6568
    5fc0:	6572                	.insn	2, 0x6572
    5fc2:	6120                	.insn	2, 0x6120
    5fc4:	6572                	.insn	2, 0x6572
    5fc6:	7420                	.insn	2, 0x7420
    5fc8:	6172                	.insn	2, 0x6172
    5fca:	7370                	.insn	2, 0x7370
    5fcc:	6120                	.insn	2, 0x6120
    5fce:	6568                	.insn	2, 0x6568
    5fd0:	6461                	.insn	2, 0x6461
    5fd2:	6f20                	.insn	2, 0x6f20
    5fd4:	2066                	.insn	2, 0x2066
    5fd6:	6f79                	.insn	2, 0x6f79
    5fd8:	2075                	.insn	2, 0x2075
    5fda:	6874                	.insn	2, 0x6874
    5fdc:	7461                	.insn	2, 0x7461
    5fde:	7920                	.insn	2, 0x7920
    5fe0:	6e20756f          	jal	a0,d6c2 <__global_pointer+0x8ac9>
    5fe4:	6565                	.insn	2, 0x6565
    5fe6:	2064                	.insn	2, 0x2064
    5fe8:	6f74                	.insn	2, 0x6f74
    5fea:	6120                	.insn	2, 0x6120
    5fec:	6f76                	.insn	2, 0x6f76
    5fee:	6469                	.insn	2, 0x6469
    5ff0:	0a21                	.insn	2, 0x0a21
    5ff2:	0000                	.insn	2, 0x0000
    5ff4:	280a                	.insn	2, 0x280a
    5ff6:	7641                	.insn	2, 0x7641
    5ff8:	2064696f          	jal	s2,4c1fe <__global_pointer+0x47605>
    5ffc:	68746977          	.insn	4, 0x68746977
    6000:	7320                	.insn	2, 0x7320
    6002:	63746977          	.insn	4, 0x63746977
    6006:	2068                	.insn	2, 0x2068
    6008:	00292133          	slt	sp,s2,sp
    600c:	590a                	.insn	2, 0x590a
    600e:	6d20756f          	jal	a0,d6e0 <__global_pointer+0x8ae7>
    6012:	6e61                	.insn	2, 0x6e61
    6014:	6761                	.insn	2, 0x6761
    6016:	6465                	.insn	2, 0x6465
    6018:	7420                	.insn	2, 0x7420
    601a:	7661206f          	j	18780 <__global_pointer+0x13b87>
    601e:	2064696f          	jal	s2,4c224 <__global_pointer+0x4762b>
    6022:	6874                	.insn	2, 0x6874
    6024:	2065                	.insn	2, 0x2065
    6026:	7274                	.insn	2, 0x7274
    6028:	7061                	.insn	2, 0x7061
    602a:	6e612073          	csrs	0x6e6,sp
    602e:	2064                	.insn	2, 0x2064
    6030:	7270                	.insn	2, 0x7270
    6032:	6565636f          	jal	t1,5c688 <__global_pointer+0x57a8f>
    6036:	2064                	.insn	2, 0x2064
    6038:	65666173          	csrrsi	sp,hviprio1h,12
    603c:	796c                	.insn	2, 0x796c
    603e:	0a2e                	.insn	2, 0x0a2e
    6040:	0000                	.insn	2, 0x0000
    6042:	0000                	.insn	2, 0x0000
    6044:	590a                	.insn	2, 0x590a
    6046:	6c20756f          	jal	a0,d708 <__global_pointer+0x8b0f>
    604a:	2074736f          	jal	t1,4da50 <__global_pointer+0x48e57>
    604e:	3532                	.insn	2, 0x3532
    6050:	6820                	.insn	2, 0x6820
    6052:	2070                	.insn	2, 0x2070
    6054:	7562                	.insn	2, 0x7562
    6056:	2074                	.insn	2, 0x2074
    6058:	616d                	.insn	2, 0x616d
    605a:	616e                	.insn	2, 0x616e
    605c:	20646567          	.insn	4, 0x20646567
    6060:	6f74                	.insn	2, 0x6f74
    6062:	6720                	.insn	2, 0x6720
    6064:	7465                	.insn	2, 0x7465
    6066:	7420                	.insn	2, 0x7420
    6068:	7268                	.insn	2, 0x7268
    606a:	6867756f          	jal	a0,7d6f0 <__global_pointer+0x78af7>
    606e:	6120                	.insn	2, 0x6120
    6070:	796e                	.insn	2, 0x796e
    6072:	2e796177          	.insn	4, 0x2e796177
    6076:	0000                	.insn	2, 0x0000
    6078:	2e31                	.insn	2, 0x2e31
    607a:	4320                	.insn	2, 0x4320
    607c:	6f72                	.insn	2, 0x6f72
    607e:	74207373          	csrrci	t1,mncause,0
    6082:	6568                	.insn	2, 0x6568
    6084:	6220                	.insn	2, 0x6220
    6086:	6972                	.insn	2, 0x6972
    6088:	6764                	.insn	2, 0x6764
    608a:	2e65                	.insn	2, 0x2e65
    608c:	000a                	.insn	2, 0x000a
    608e:	0000                	.insn	2, 0x0000
    6090:	590a                	.insn	2, 0x590a
    6092:	6420756f          	jal	a0,d6d4 <__global_pointer+0x8adb>
    6096:	6365                	.insn	2, 0x6365
    6098:	6469                	.insn	2, 0x6469
    609a:	2065                	.insn	2, 0x2065
    609c:	6f74                	.insn	2, 0x6f74
    609e:	6320                	.insn	2, 0x6320
    60a0:	6f72                	.insn	2, 0x6f72
    60a2:	74207373          	csrrci	t1,mncause,0
    60a6:	6568                	.insn	2, 0x6568
    60a8:	6220                	.insn	2, 0x6220
    60aa:	6972                	.insn	2, 0x6972
    60ac:	6764                	.insn	2, 0x6764
    60ae:	2e65                	.insn	2, 0x2e65
    60b0:	000a                	.insn	2, 0x000a
    60b2:	0000                	.insn	2, 0x0000
    60b4:	590a                	.insn	2, 0x590a
    60b6:	6e20756f          	jal	a0,d798 <__global_pointer+0x8b9f>
    60ba:	6369746f          	jal	s0,9d6f0 <__global_pointer+0x98af7>
    60be:	2065                	.insn	2, 0x2065
    60c0:	6874                	.insn	2, 0x6874
    60c2:	7461                	.insn	2, 0x7461
    60c4:	6920                	.insn	2, 0x6920
    60c6:	2074                	.insn	2, 0x2074
    60c8:	6168                	.insn	2, 0x6168
    60ca:	20612073          	csrs	0x206,sp
    60ce:	6962                	.insn	2, 0x6962
    60d0:	61672067          	.insn	4, 0x61672067
    60d4:	2070                	.insn	2, 0x2070
    60d6:	6e69                	.insn	2, 0x6e69
    60d8:	7420                	.insn	2, 0x7420
    60da:	6568                	.insn	2, 0x6568
    60dc:	6d20                	.insn	2, 0x6d20
    60de:	6469                	.insn	2, 0x6469
    60e0:	6c64                	.insn	2, 0x6c64
    60e2:	2c65                	.insn	2, 0x2c65
    60e4:	6820                	.insn	2, 0x6820
    60e6:	7665776f          	jal	a4,5d84c <__global_pointer+0x58c53>
    60ea:	7265                	.insn	2, 0x7265
    60ec:	202c                	.insn	2, 0x202c
    60ee:	7469                	.insn	2, 0x7469
    60f0:	6920                	.insn	2, 0x6920
    60f2:	6f702073          	csrr	zero,0x6f7
    60f6:	62697373          	csrrci	t1,0x626,18
    60fa:	656c                	.insn	2, 0x656c
    60fc:	7420                	.insn	2, 0x7420
    60fe:	756a206f          	j	a8854 <__global_pointer+0xa3c5b>
    6102:	706d                	.insn	2, 0x706d
    6104:	7420                	.insn	2, 0x7420
    6106:	6874206f          	j	48f8c <__global_pointer+0x44393>
    610a:	2065                	.insn	2, 0x2065
    610c:	6568746f          	jal	s0,8d762 <__global_pointer+0x88b69>
    6110:	2072                	.insn	2, 0x2072
    6112:	65646973          	csrrsi	s2,hviprio1h,8
    6116:	002e                	.insn	2, 0x002e
    6118:	280a                	.insn	2, 0x280a
    611a:	754a                	.insn	2, 0x754a
    611c:	706d                	.insn	2, 0x706d
    611e:	6220                	.insn	2, 0x6220
    6120:	2079                	.insn	2, 0x2079
    6122:	7270                	.insn	2, 0x7270
    6124:	7365                	.insn	2, 0x7365
    6126:	676e6973          	csrrsi	s2,0x676,28
    612a:	4220                	.insn	2, 0x4220
    612c:	7475                	.insn	2, 0x7475
    612e:	6f74                	.insn	2, 0x6f74
    6130:	206e                	.insn	2, 0x206e
    6132:	2131                	.insn	2, 0x2131
    6134:	0029                	.insn	2, 0x0029
    6136:	0000                	.insn	2, 0x0000
    6138:	2e31                	.insn	2, 0x2e31
    613a:	5520                	.insn	2, 0x5520
    613c:	6c6e                	.insn	2, 0x6c6e
    613e:	206b636f          	jal	t1,bc344 <__global_pointer+0xb774b>
    6142:	6874                	.insn	2, 0x6874
    6144:	2065                	.insn	2, 0x2065
    6146:	6f64                	.insn	2, 0x6f64
    6148:	7420726f          	jal	tp,d88a <__global_pointer+0x8c91>
    614c:	6874206f          	j	48fd2 <__global_pointer+0x443d9>
    6150:	2065                	.insn	2, 0x2065
    6152:	636f6c43          	.insn	4, 0x636f6c43
    6156:	776f746b          	.insn	4, 0x776f746b
    615a:	7265                	.insn	2, 0x7265
    615c:	0a2e                	.insn	2, 0x0a2e
    615e:	0000                	.insn	2, 0x0000
    6160:	590a                	.insn	2, 0x590a
    6162:	6120756f          	jal	a0,d774 <__global_pointer+0x8b7b>
    6166:	7474                	.insn	2, 0x7474
    6168:	6d65                	.insn	2, 0x6d65
    616a:	7470                	.insn	2, 0x7470
    616c:	7420                	.insn	2, 0x7420
    616e:	6e75206f          	j	59054 <__global_pointer+0x5445b>
    6172:	6f6c                	.insn	2, 0x6f6c
    6174:	74206b63          	bltu	zero,sp,68ca <__global_pointer+0x1cd1>
    6178:	6568                	.insn	2, 0x6568
    617a:	6420                	.insn	2, 0x6420
    617c:	2e726f6f          	jal	t5,2cc62 <__global_pointer+0x28069>
    6180:	2e2e                	.insn	2, 0x2e2e
    6182:	0000                	.insn	2, 0x0000
    6184:	590a                	.insn	2, 0x590a
    6186:	7520756f          	jal	a0,d8d8 <__global_pointer+0x8cdf>
    618a:	6c6e                	.insn	2, 0x6c6e
    618c:	206b636f          	jal	t1,bc392 <__global_pointer+0xb7799>
    6190:	6874                	.insn	2, 0x6874
    6192:	2065                	.insn	2, 0x2065
    6194:	6f64                	.insn	2, 0x6f64
    6196:	7520726f          	jal	tp,d8e8 <__global_pointer+0x8cef>
    619a:	676e6973          	csrrsi	s2,0x676,28
    619e:	7920                	.insn	2, 0x7920
    61a0:	2072756f          	jal	a0,2dba6 <__global_pointer+0x28fad>
    61a4:	2179656b          	.insn	4, 0x2179656b
    61a8:	000a                	.insn	2, 0x000a
    61aa:	0000                	.insn	2, 0x0000
    61ac:	590a                	.insn	2, 0x590a
    61ae:	6420756f          	jal	a0,d7f0 <__global_pointer+0x8bf7>
    61b2:	6f6e206f          	j	e88a8 <__global_pointer+0xe3caf>
    61b6:	2074                	.insn	2, 0x2074
    61b8:	6168                	.insn	2, 0x6168
    61ba:	6576                	.insn	2, 0x6576
    61bc:	7420                	.insn	2, 0x7420
    61be:	6568                	.insn	2, 0x6568
    61c0:	6b20                	.insn	2, 0x6b20
    61c2:	7965                	.insn	2, 0x7965
    61c4:	202c                	.insn	2, 0x202c
    61c6:	6f79                	.insn	2, 0x6f79
    61c8:	2075                	.insn	2, 0x2075
    61ca:	656e                	.insn	2, 0x656e
    61cc:	6465                	.insn	2, 0x6465
    61ce:	7420                	.insn	2, 0x7420
    61d0:	6966206f          	j	68866 <__global_pointer+0x63c6d>
    61d4:	646e                	.insn	2, 0x646e
    61d6:	6920                	.insn	2, 0x6920
    61d8:	2074                	.insn	2, 0x2074
    61da:	656d6f73          	csrrsi	t5,hviprio1h,26
    61de:	72656877          	.insn	4, 0x72656877
    61e2:	2e65                	.insn	2, 0x2e65
    61e4:	000a                	.insn	2, 0x000a
    61e6:	0000                	.insn	2, 0x0000
    61e8:	310a                	.insn	2, 0x310a
    61ea:	202e                	.insn	2, 0x202e
    61ec:	654c                	.insn	2, 0x654c
    61ee:	7661                	.insn	2, 0x7661
    61f0:	0a65                	.insn	2, 0x0a65
    61f2:	0000                	.insn	2, 0x0000
    61f4:	590a                	.insn	2, 0x590a
    61f6:	6a20756f          	jal	a0,d898 <__global_pointer+0x8c9f>
    61fa:	6d75                	.insn	2, 0x6d75
    61fc:	2070                	.insn	2, 0x2070
    61fe:	6e61                	.insn	2, 0x6e61
    6200:	2064                	.insn	2, 0x2064
    6202:	6162                	.insn	2, 0x6162
    6204:	6572                	.insn	2, 0x6572
    6206:	796c                	.insn	2, 0x796c
    6208:	6d20                	.insn	2, 0x6d20
    620a:	6b61                	.insn	2, 0x6b61
    620c:	2065                	.insn	2, 0x2065
    620e:	7469                	.insn	2, 0x7469
    6210:	7420                	.insn	2, 0x7420
    6212:	6874206f          	j	49098 <__global_pointer+0x4449f>
    6216:	2065                	.insn	2, 0x2065
    6218:	6568746f          	jal	s0,8d86e <__global_pointer+0x88c75>
    621c:	2072                	.insn	2, 0x2072
    621e:	65646973          	csrrsi	s2,hviprio1h,8
    6222:	202e                	.insn	2, 0x202e
    6224:	7542                	.insn	2, 0x7542
    6226:	2074                	.insn	2, 0x2074
    6228:	6f79                	.insn	2, 0x6f79
    622a:	2075                	.insn	2, 0x2075
    622c:	616c                	.insn	2, 0x616c
    622e:	646e                	.insn	2, 0x646e
    6230:	6f20                	.insn	2, 0x6f20
    6232:	206e                	.insn	2, 0x206e
    6234:	6874                	.insn	2, 0x6874
    6236:	2065                	.insn	2, 0x2065
    6238:	6465                	.insn	2, 0x6465
    623a:	61206567          	.insn	4, 0x61206567
    623e:	646e                	.insn	2, 0x646e
    6240:	6720                	.insn	2, 0x6720
    6242:	7465                	.insn	2, 0x7465
    6244:	7520                	.insn	2, 0x7520
    6246:	2070                	.insn	2, 0x2070
    6248:	65666173          	csrrsi	sp,hviprio1h,12
    624c:	796c                	.insn	2, 0x796c
    624e:	0a2e                	.insn	2, 0x0a2e
    6250:	0000                	.insn	2, 0x0000
    6252:	0000                	.insn	2, 0x0000
    6254:	6f59                	.insn	2, 0x6f59
    6256:	2075                	.insn	2, 0x2075
    6258:	616d                	.insn	2, 0x616d
    625a:	6564                	.insn	2, 0x6564
    625c:	6920                	.insn	2, 0x6920
    625e:	2174                	.insn	2, 0x2174
    6260:	000a                	.insn	2, 0x000a
    6262:	0000                	.insn	2, 0x0000
    6264:	540a                	.insn	2, 0x540a
    6266:	6568                	.insn	2, 0x6568
    6268:	7320                	.insn	2, 0x7320
    626a:	6365                	.insn	2, 0x6365
    626c:	20646e6f          	jal	t3,4c472 <__global_pointer+0x47879>
    6270:	6f79                	.insn	2, 0x6f79
    6272:	7275                	.insn	2, 0x7275
    6274:	6620                	.insn	2, 0x6620
    6276:	20746f6f          	jal	t5,4cc7c <__global_pointer+0x48083>
    627a:	656c                	.insn	2, 0x656c
    627c:	7661                	.insn	2, 0x7661
    627e:	7365                	.insn	2, 0x7365
    6280:	7420                	.insn	2, 0x7420
    6282:	6568                	.insn	2, 0x6568
    6284:	6720                	.insn	2, 0x6720
    6286:	6f72                	.insn	2, 0x6f72
    6288:	6e75                	.insn	2, 0x6e75
    628a:	2c64                	.insn	2, 0x2c64
    628c:	7920                	.insn	2, 0x7920
    628e:	7320756f          	jal	a0,d9c0 <__global_pointer+0x8dc7>
    6292:	696c                	.insn	2, 0x696c
    6294:	2070                	.insn	2, 0x2070
    6296:	68746977          	.insn	4, 0x68746977
    629a:	7920                	.insn	2, 0x7920
    629c:	2072756f          	jal	a0,2dca2 <__global_pointer+0x290a9>
    62a0:	6568746f          	jal	s0,8d8f6 <__global_pointer+0x88cfd>
    62a4:	2072                	.insn	2, 0x2072
    62a6:	6f66                	.insn	2, 0x6f66
    62a8:	0a21746f          	jal	s0,1d34a <__global_pointer+0x18751>
    62ac:	0000                	.insn	2, 0x0000
    62ae:	0000                	.insn	2, 0x0000
    62b0:	6f59                	.insn	2, 0x6f59
    62b2:	2075                	.insn	2, 0x2075
    62b4:	6f6c                	.insn	2, 0x6f6c
    62b6:	64206b6f          	jal	s6,c8f8 <__global_pointer+0x7cff>
    62ba:	206e776f          	jal	a4,ed4c0 <__global_pointer+0xe88c7>
    62be:	6e61                	.insn	2, 0x6e61
    62c0:	2064                	.insn	2, 0x2064
    62c2:	20656573          	csrrsi	a0,0x206,10
    62c6:	6f6e                	.insn	2, 0x6f6e
    62c8:	6874                	.insn	2, 0x6874
    62ca:	6e69                	.insn	2, 0x6e69
    62cc:	75622067          	.insn	4, 0x75622067
    62d0:	2074                	.insn	2, 0x2074
    62d2:	6164                	.insn	2, 0x6164
    62d4:	6b72                	.insn	2, 0x6b72
    62d6:	656e                	.insn	2, 0x656e
    62d8:	61207373          	csrrci	t1,0x612,0
    62dc:	6f792073          	csrs	0x6f7,s2
    62e0:	2075                	.insn	2, 0x2075
    62e2:	6166                	.insn	2, 0x6166
    62e4:	6c6c                	.insn	2, 0x6c6c
    62e6:	7420                	.insn	2, 0x7420
    62e8:	6f79206f          	j	991de <__global_pointer+0x945e5>
    62ec:	7275                	.insn	2, 0x7275
    62ee:	6420                	.insn	2, 0x6420
    62f0:	6d65                	.insn	2, 0x6d65
    62f2:	7369                	.insn	2, 0x7369
    62f4:	2e65                	.insn	2, 0x2e65
    62f6:	000a                	.insn	2, 0x000a
    62f8:	500a                	.insn	2, 0x500a
    62fa:	6572                	.insn	2, 0x6572
    62fc:	42207373          	csrrci	t1,0x422,0
    6300:	7475                	.insn	2, 0x7475
    6302:	6f74                	.insn	2, 0x6f74
    6304:	206e                	.insn	2, 0x206e
    6306:	2031                	.insn	2, 0x2031
    6308:	6f74                	.insn	2, 0x6f74
    630a:	6320                	.insn	2, 0x6320
    630c:	69746e6f          	jal	t3,4d1a2 <__global_pointer+0x485a9>
    6310:	756e                	.insn	2, 0x756e
    6312:	2e65                	.insn	2, 0x2e65
    6314:	000a                	.insn	2, 0x000a
    6316:	0000                	.insn	2, 0x0000
    6318:	0a0a                	.insn	2, 0x0a0a
    631a:	6f59                	.insn	2, 0x6f59
    631c:	2075                	.insn	2, 0x2075
    631e:	6944                	.insn	2, 0x6944
    6320:	6465                	.insn	2, 0x6465
    6322:	0a21                	.insn	2, 0x0a21
    6324:	0000                	.insn	2, 0x0000
    6326:	0000                	.insn	2, 0x0000
    6328:	0a0a                	.insn	2, 0x0a0a
    632a:	6552                	.insn	2, 0x6552
    632c:	72617473          	csrrci	s0,mhpmevent6h,2
    6330:	6974                	.insn	2, 0x6974
    6332:	676e                	.insn	2, 0x676e
    6334:	6720                	.insn	2, 0x6720
    6336:	6d61                	.insn	2, 0x6d61
    6338:	2e65                	.insn	2, 0x2e65
    633a:	2e2e                	.insn	2, 0x2e2e
    633c:	0000                	.insn	2, 0x0000
    633e:	0000                	.insn	2, 0x0000
    6340:	570a                	.insn	2, 0x570a
    6342:	6c65                	.insn	2, 0x6c65
    6344:	2c6c                	.insn	2, 0x2c6c
    6346:	7720                	.insn	2, 0x7720
    6348:	6c65                	.insn	2, 0x6c65
    634a:	2e6c                	.insn	2, 0x2e6c
    634c:	2e2e                	.insn	2, 0x2e2e
    634e:	7720                	.insn	2, 0x7720
    6350:	6168                	.insn	2, 0x6168
    6352:	2074                	.insn	2, 0x2074
    6354:	6f64                	.insn	2, 0x6f64
    6356:	7720                	.insn	2, 0x7720
    6358:	2065                	.insn	2, 0x2065
    635a:	6168                	.insn	2, 0x6168
    635c:	6576                	.insn	2, 0x6576
    635e:	6820                	.insn	2, 0x6820
    6360:	7265                	.insn	2, 0x7265
    6362:	3f65                	.insn	2, 0x3f65
    6364:	4120                	.insn	2, 0x4120
    6366:	6c20                	.insn	2, 0x6c20
    6368:	6c656e6f          	jal	t3,5ca2e <__global_pointer+0x57e35>
    636c:	2079                	.insn	2, 0x2079
    636e:	7274                	.insn	2, 0x7274
    6370:	7661                	.insn	2, 0x7661
    6372:	6c65                	.insn	2, 0x6c65
    6374:	7265                	.insn	2, 0x7265
    6376:	202c                	.insn	2, 0x202c
    6378:	72726163          	bltu	tp,t2,6a9a <__global_pointer+0x1ea1>
    637c:	6979                	.insn	2, 0x6979
    637e:	676e                	.insn	2, 0x676e
    6380:	7320                	.insn	2, 0x7320
    6382:	6968                	.insn	2, 0x6968
    6384:	796e                	.insn	2, 0x796e
    6386:	6320                	.insn	2, 0x6320
    6388:	736e696f          	jal	s2,ecabe <__global_pointer+0xe7ec5>
    638c:	6120                	.insn	2, 0x6120
    638e:	646e                	.insn	2, 0x646e
    6390:	6d20                	.insn	2, 0x6d20
    6392:	7961                	.insn	2, 0x7961
    6394:	6562                	.insn	2, 0x6562
    6396:	7320                	.insn	2, 0x7320
    6398:	20656d6f          	jal	s10,5c59e <__global_pointer+0x579a5>
    639c:	7274                	.insn	2, 0x7274
    639e:	6165                	.insn	2, 0x6165
    63a0:	65727573          	csrrci	a0,hviprio2h,4
    63a4:	48203f73          	csrrc	t5,0x482,zero
    63a8:	6e61                	.insn	2, 0x6e61
    63aa:	2064                	.insn	2, 0x2064
    63ac:	7469                	.insn	2, 0x7469
    63ae:	6f20                	.insn	2, 0x6f20
    63b0:	6576                	.insn	2, 0x6576
    63b2:	2c72                	.insn	2, 0x2c72
    63b4:	6120                	.insn	2, 0x6120
    63b6:	646e                	.insn	2, 0x646e
    63b8:	4920                	.insn	2, 0x4920
    63ba:	6d20                	.insn	2, 0x6d20
    63bc:	6769                	.insn	2, 0x6769
    63be:	7468                	.insn	2, 0x7468
    63c0:	6a20                	.insn	2, 0x6a20
    63c2:	7375                	.insn	2, 0x7375
    63c4:	2074                	.insn	2, 0x2074
    63c6:	656c                	.insn	2, 0x656c
    63c8:	2074                	.insn	2, 0x2074
    63ca:	6f79                	.insn	2, 0x6f79
    63cc:	2075                	.insn	2, 0x2075
    63ce:	6b6c6177          	.insn	4, 0x6b6c6177
    63d2:	6120                	.insn	2, 0x6120
    63d4:	2e796177          	.insn	4, 0x2e796177
    63d8:	0000                	.insn	2, 0x0000
    63da:	0000                	.insn	2, 0x0000
    63dc:	310a                	.insn	2, 0x310a
    63de:	202e                	.insn	2, 0x202e
    63e0:	6559                	.insn	2, 0x6559
    63e2:	2d282073          	csrs	0x2d2,a6
    63e6:	3035                	.insn	2, 0x3035
    63e8:	6320                	.insn	2, 0x6320
    63ea:	736e696f          	jal	s2,ecb20 <__global_pointer+0xe7f27>
    63ee:	2e29                	.insn	2, 0x2e29
    63f0:	0000                	.insn	2, 0x0000
    63f2:	0000                	.insn	2, 0x0000
    63f4:	320a                	.insn	2, 0x320a
    63f6:	202e                	.insn	2, 0x202e
    63f8:	6f4e                	.insn	2, 0x6f4e
    63fa:	2820                	.insn	2, 0x2820
    63fc:	6946                	.insn	2, 0x6946
    63fe:	29746867          	.insn	4, 0x29746867
    6402:	002e                	.insn	2, 0x002e
    6404:	6f59                	.insn	2, 0x6f59
    6406:	2075                	.insn	2, 0x2075
    6408:	6168                	.insn	2, 0x6168
    640a:	6576                	.insn	2, 0x6576
    640c:	6d20                	.insn	2, 0x6d20
    640e:	6461                	.insn	2, 0x6461
    6410:	2065                	.insn	2, 0x2065
    6412:	2061                	.insn	2, 0x2061
    6414:	65736977          	.insn	4, 0x65736977
    6418:	6320                	.insn	2, 0x6320
    641a:	6f68                	.insn	2, 0x6f68
    641c:	6369                	.insn	2, 0x6369
    641e:	2c65                	.insn	2, 0x2c65
    6420:	7420                	.insn	2, 0x7420
    6422:	6172                	.insn	2, 0x6172
    6424:	6576                	.insn	2, 0x6576
    6426:	656c                	.insn	2, 0x656c
    6428:	2e72                	.insn	2, 0x2e72
    642a:	000a                	.insn	2, 0x000a
    642c:	74206f53          	.insn	4, 0x74206f53
    6430:	6168                	.insn	2, 0x6168
    6432:	2774                	.insn	2, 0x2774
    6434:	6f682073          	csrs	0x6f6,a6
    6438:	74692077          	.insn	4, 0x74692077
    643c:	67207327          	.insn	4, 0x67207327
    6440:	616e6e6f          	jal	t3,eca56 <__global_pointer+0xe7e5d>
    6444:	6220                	.insn	2, 0x6220
    6446:	3f65                	.insn	2, 0x3f65
    6448:	4220                	.insn	2, 0x4220
    644a:	2065                	.insn	2, 0x2065
    644c:	7270                	.insn	2, 0x7270
    644e:	7065                	.insn	2, 0x7065
    6450:	7261                	.insn	2, 0x7261
    6452:	6465                	.insn	2, 0x6465
    6454:	7420                	.insn	2, 0x7420
    6456:	6964206f          	j	48aec <__global_pointer+0x43ef3>
    645a:	2165                	.insn	2, 0x2165
    645c:	0000                	.insn	2, 0x0000
    645e:	0000                	.insn	2, 0x0000
    6460:	636c6557          	.insn	4, 0x636c6557
    6464:	20656d6f          	jal	s10,5c66a <__global_pointer+0x57a71>
    6468:	6f74                	.insn	2, 0x6f74
    646a:	5620                	.insn	2, 0x5620
    646c:	6c69                	.insn	2, 0x6c69
    646e:	616c                	.insn	2, 0x616c
    6470:	42206567          	.insn	4, 0x42206567
    6474:	7261                	.insn	2, 0x7261
    6476:	2021                	.insn	2, 0x2021
    6478:	74616857          	.insn	4, 0x74616857
    647c:	6320                	.insn	2, 0x6320
    647e:	6e61                	.insn	2, 0x6e61
    6480:	4920                	.insn	2, 0x4920
    6482:	6720                	.insn	2, 0x6720
    6484:	7465                	.insn	2, 0x7465
    6486:	7920                	.insn	2, 0x7920
    6488:	0a3f756f          	jal	a0,fdd2a <__global_pointer+0xf9131>
    648c:	0a20                	.insn	2, 0x0a20
    648e:	202d                	.insn	2, 0x202d
    6490:	2049                	.insn	2, 0x2049
    6492:	6c756f77          	.insn	4, 0x6c756f77
    6496:	2064                	.insn	2, 0x2064
    6498:	696c                	.insn	2, 0x696c
    649a:	6120656b          	.insn	4, 0x6120656b
    649e:	6420                	.insn	2, 0x6420
    64a0:	6972                	.insn	2, 0x6972
    64a2:	6b6e                	.insn	2, 0x6b6e
    64a4:	202c                	.insn	2, 0x202c
    64a6:	6c70                	.insn	2, 0x6c70
    64a8:	6165                	.insn	2, 0x6165
    64aa:	0a2e6573          	csrrsi	a0,0xa2,28
    64ae:	0a20                	.insn	2, 0x0a20
    64b0:	6142                	.insn	2, 0x6142
    64b2:	7472                	.insn	2, 0x7472
    64b4:	6e65                	.insn	2, 0x6e65
    64b6:	6564                	.insn	2, 0x6564
    64b8:	3a72                	.insn	2, 0x3a72
    64ba:	4920                	.insn	2, 0x4920
    64bc:	2774                	.insn	2, 0x2774
    64be:	6e6f2073          	csrs	0x6e6,t5
    64c2:	7420                	.insn	2, 0x7420
    64c4:	6568                	.insn	2, 0x6568
    64c6:	6820                	.insn	2, 0x6820
    64c8:	6573756f          	jal	a0,3e31e <__global_pointer+0x39725>
    64cc:	202e                	.insn	2, 0x202e
    64ce:	2049                	.insn	2, 0x2049
    64d0:	6168                	.insn	2, 0x6168
    64d2:	6576                	.insn	2, 0x6576
    64d4:	6820                	.insn	2, 0x6820
    64d6:	6165                	.insn	2, 0x6165
    64d8:	6472                	.insn	2, 0x6472
    64da:	7920                	.insn	2, 0x7920
    64dc:	6120756f          	jal	a0,daee <__global_pointer+0x8ef5>
    64e0:	6572                	.insn	2, 0x6572
    64e2:	6720                	.insn	2, 0x6720
    64e4:	676e696f          	jal	s2,ecb5a <__global_pointer+0xe7f61>
    64e8:	7420                	.insn	2, 0x7420
    64ea:	6874206f          	j	49370 <__global_pointer+0x44777>
    64ee:	2065                	.insn	2, 0x2065
    64f0:	636f6c43          	.insn	4, 0x636f6c43
    64f4:	776f746b          	.insn	4, 0x776f746b
    64f8:	7265                	.insn	2, 0x7265
    64fa:	202c                	.insn	2, 0x202c
    64fc:	6e61                	.insn	2, 0x6e61
    64fe:	2064                	.insn	2, 0x2064
    6500:	2049                	.insn	2, 0x2049
    6502:	696d                	.insn	2, 0x696d
    6504:	20746867          	.insn	4, 0x20746867
    6508:	776f6e6b          	.insn	4, 0x776f6e6b
    650c:	7320                	.insn	2, 0x7320
    650e:	74656d6f          	jal	s10,5cc54 <__global_pointer+0x5805b>
    6512:	6968                	.insn	2, 0x6968
    6514:	676e                	.insn	2, 0x676e
    6516:	6920                	.insn	2, 0x6920
    6518:	746e                	.insn	2, 0x746e
    651a:	7265                	.insn	2, 0x7265
    651c:	7365                	.insn	2, 0x7365
    651e:	6974                	.insn	2, 0x6974
    6520:	676e                	.insn	2, 0x676e
    6522:	6120                	.insn	2, 0x6120
    6524:	6f62                	.insn	2, 0x6f62
    6526:	7475                	.insn	2, 0x7475
    6528:	7420                	.insn	2, 0x7420
    652a:	6168                	.insn	2, 0x6168
    652c:	2e74                	.insn	2, 0x2e74
    652e:	4220                	.insn	2, 0x4220
    6530:	7475                	.insn	2, 0x7475
    6532:	6b20                	.insn	2, 0x6b20
    6534:	6f6e                	.insn	2, 0x6f6e
    6536:	64656c77          	.insn	4, 0x64656c77
    653a:	69206567          	.insn	4, 0x69206567
    653e:	74276e73          	csrrsi	t3,mncause,14
    6542:	6620                	.insn	2, 0x6620
    6544:	6572                	.insn	2, 0x6572
    6546:	2c65                	.insn	2, 0x2c65
    6548:	6120                	.insn	2, 0x6120
    654a:	7664                	.insn	2, 0x7664
    654c:	6e65                	.insn	2, 0x6e65
    654e:	7574                	.insn	2, 0x7574
    6550:	6572                	.insn	2, 0x6572
    6552:	2e72                	.insn	2, 0x2e72
    6554:	5420                	.insn	2, 0x5420
    6556:	6568                	.insn	2, 0x6568
    6558:	6320                	.insn	2, 0x6320
    655a:	6f68                	.insn	2, 0x6f68
    655c:	6369                	.insn	2, 0x6369
    655e:	2065                	.insn	2, 0x2065
    6560:	7369                	.insn	2, 0x7369
    6562:	7920                	.insn	2, 0x7920
    6564:	7372756f          	jal	a0,2e49a <__global_pointer+0x298a1>
    6568:	002e                	.insn	2, 0x002e
    656a:	0000                	.insn	2, 0x0000
    656c:	310a                	.insn	2, 0x310a
    656e:	202e                	.insn	2, 0x202e
    6570:	2049                	.insn	2, 0x2049
    6572:	746e6177          	.insn	4, 0x746e6177
    6576:	7420                	.insn	2, 0x7420
    6578:	6e6b206f          	j	b8c5e <__global_pointer+0xb4065>
    657c:	2820776f          	jal	a4,d7fe <__global_pointer+0x8c05>
    6580:	322d                	.insn	2, 0x322d
    6582:	2035                	.insn	2, 0x2035
    6584:	6e696f63          	bltu	s2,t1,6c82 <__global_pointer+0x2089>
    6588:	00002973          	csrr	s2,ustatus
    658c:	320a                	.insn	2, 0x320a
    658e:	202e                	.insn	2, 0x202e
    6590:	614d                	.insn	2, 0x614d
    6592:	6279                	.insn	2, 0x6279
    6594:	2065                	.insn	2, 0x2065
    6596:	6e61                	.insn	2, 0x6e61
    6598:	6568746f          	jal	s0,8dbee <__global_pointer+0x88ff5>
    659c:	2072                	.insn	2, 0x2072
    659e:	6974                	.insn	2, 0x6974
    65a0:	656d                	.insn	2, 0x656d
    65a2:	002e                	.insn	2, 0x002e
    65a4:	2049                	.insn	2, 0x2049
    65a6:	6168                	.insn	2, 0x6168
    65a8:	6576                	.insn	2, 0x6576
    65aa:	6820                	.insn	2, 0x6820
    65ac:	6165                	.insn	2, 0x6165
    65ae:	6472                	.insn	2, 0x6472
    65b0:	7720                	.insn	2, 0x7720
    65b2:	6968                	.insn	2, 0x6968
    65b4:	72657073          	csrci	mhpmevent6h,10
    65b8:	a680e273          	csrrsi	tp,0xa68,1
    65bc:	4120                	.insn	2, 0x4120
    65be:	6220                	.insn	2, 0x6220
    65c0:	6165                	.insn	2, 0x6165
    65c2:	67207473          	csrrci	s0,0x672,0
    65c6:	6175                	.insn	2, 0x6175
    65c8:	6472                	.insn	2, 0x6472
    65ca:	68742073          	csrs	0x687,s0
    65ce:	2065                	.insn	2, 0x2065
    65d0:	7274                	.insn	2, 0x7274
    65d2:	6165                	.insn	2, 0x6165
    65d4:	65727573          	csrrci	a0,hviprio2h,4
    65d8:	6920                	.insn	2, 0x6920
    65da:	736e                	.insn	2, 0x736e
    65dc:	6469                	.insn	2, 0x6469
    65de:	2e65                	.insn	2, 0x2e65
    65e0:	5420                	.insn	2, 0x5420
    65e2:	6568                	.insn	2, 0x6568
    65e4:	6d20                	.insn	2, 0x6d20
    65e6:	74736e6f          	jal	t3,3d52c <__global_pointer+0x38933>
    65ea:	7265                	.insn	2, 0x7265
    65ec:	6920                	.insn	2, 0x6920
    65ee:	6f6e2073          	csrs	0x6f6,t3
    65f2:	6f20                	.insn	2, 0x6f20
    65f4:	6472                	.insn	2, 0x6472
    65f6:	6e69                	.insn	2, 0x6e69
    65f8:	7261                	.insn	2, 0x7261
    65fa:	2079                	.insn	2, 0x2079
    65fc:	6f66                	.insn	2, 0x6f66
    65fe:	2e65                	.insn	2, 0x2e65
    6600:	6920                	.insn	2, 0x6920
    6602:	2074                	.insn	2, 0x2074
    6604:	7369                	.insn	2, 0x7369
    6606:	6620                	.insn	2, 0x6620
    6608:	6569                	.insn	2, 0x6569
    660a:	6372                	.insn	2, 0x6372
    660c:	2065                	.insn	2, 0x2065
    660e:	6e61                	.insn	2, 0x6e61
    6610:	2064                	.insn	2, 0x2064
    6612:	656d                	.insn	2, 0x656d
    6614:	6372                	.insn	2, 0x6372
    6616:	6c69                	.insn	2, 0x6c69
    6618:	7365                	.insn	2, 0x7365
    661a:	0a202e73          	csrr	t3,0xa2
    661e:	7242                	.insn	2, 0x7242
    6620:	6e69                	.insn	2, 0x6e69
    6622:	65772067          	.insn	4, 0x65772067
    6626:	7061                	.insn	2, 0x7061
    6628:	2c736e6f          	jal	t3,3d0ee <__global_pointer+0x384f5>
    662c:	6220                	.insn	2, 0x6220
    662e:	6972                	.insn	2, 0x6972
    6630:	676e                	.insn	2, 0x676e
    6632:	6320                	.insn	2, 0x6320
    6634:	6172756f          	jal	a0,2e44a <__global_pointer+0x29851>
    6638:	202c6567          	.insn	4, 0x202c6567
    663c:	6e61                	.insn	2, 0x6e61
    663e:	2064                	.insn	2, 0x2064
    6640:	616d                	.insn	2, 0x616d
    6642:	6279                	.insn	2, 0x6279
    6644:	2065                	.insn	2, 0x2065
    6646:	6f79                	.insn	2, 0x6f79
    6648:	2775                	.insn	2, 0x2775
    664a:	6c6c                	.insn	2, 0x6c6c
    664c:	6c20                	.insn	2, 0x6c20
    664e:	7669                	.insn	2, 0x7669
    6650:	2065                	.insn	2, 0x2065
    6652:	6f74                	.insn	2, 0x6f74
    6654:	7420                	.insn	2, 0x7420
    6656:	6c65                	.insn	2, 0x6c65
    6658:	206c                	.insn	2, 0x206c
    665a:	6874                	.insn	2, 0x6874
    665c:	2065                	.insn	2, 0x2065
    665e:	6174                	.insn	2, 0x6174
    6660:	656c                	.insn	2, 0x656c
    6662:	002e                	.insn	2, 0x002e
    6664:	6d45                	.insn	2, 0x6d45
    6666:	7470                	.insn	2, 0x7470
    6668:	2079                	.insn	2, 0x2079
    666a:	6f70                	.insn	2, 0x6f70
    666c:	74656b63          	bltu	a0,t1,6dc2 <__global_pointer+0x21c9>
    6670:	65202c73          	csrr	s8,0x652
    6674:	3f68                	.insn	2, 0x3f68
    6676:	4320                	.insn	2, 0x4320
    6678:	20656d6f          	jal	s10,5c87e <__global_pointer+0x57c85>
    667c:	6162                	.insn	2, 0x6162
    667e:	77206b63          	bltu	zero,s2,6df4 <__global_pointer+0x21fb>
    6682:	6568                	.insn	2, 0x6568
    6684:	206e                	.insn	2, 0x206e
    6686:	6f79                	.insn	2, 0x6f79
    6688:	2075                	.insn	2, 0x2075
    668a:	6168                	.insn	2, 0x6168
    668c:	6576                	.insn	2, 0x6576
    668e:	6320                	.insn	2, 0x6320
    6690:	736e696f          	jal	s2,ecdc6 <__global_pointer+0xe81cd>
    6694:	002e                	.insn	2, 0x002e
    6696:	0000                	.insn	2, 0x0000
    6698:	6548                	.insn	2, 0x6548
    669a:	2079                	.insn	2, 0x2079
    669c:	6874                	.insn	2, 0x6874
    669e:	7265                	.insn	2, 0x7265
    66a0:	2c65                	.insn	2, 0x2c65
    66a2:	7420                	.insn	2, 0x7420
    66a4:	6172                	.insn	2, 0x6172
    66a6:	6576                	.insn	2, 0x6576
    66a8:	656c                	.insn	2, 0x656c
    66aa:	2e72                	.insn	2, 0x2e72
    66ac:	0000                	.insn	2, 0x0000
    66ae:	0000                	.insn	2, 0x0000
    66b0:	206f6857          	.insn	4, 0x206f6857
    66b4:	7261                	.insn	2, 0x7261
    66b6:	2065                	.insn	2, 0x2065
    66b8:	6f79                	.insn	2, 0x6f79
    66ba:	3f75                	.insn	2, 0x3f75
    66bc:	0000                	.insn	2, 0x0000
    66be:	0000                	.insn	2, 0x0000
    66c0:	2049                	.insn	2, 0x2049
    66c2:	6d61                	.insn	2, 0x6d61
    66c4:	6a20                	.insn	2, 0x6a20
    66c6:	7375                	.insn	2, 0x7375
    66c8:	2074                	.insn	2, 0x2074
    66ca:	6f79                	.insn	2, 0x6f79
    66cc:	7275                	.insn	2, 0x7275
    66ce:	6120                	.insn	2, 0x6120
    66d0:	6576                	.insn	2, 0x6576
    66d2:	6172                	.insn	2, 0x6172
    66d4:	6f206567          	.insn	4, 0x6f206567
    66d8:	646c                	.insn	2, 0x646c
    66da:	6d20                	.insn	2, 0x6d20
    66dc:	6e61                	.insn	2, 0x6e61
    66de:	202c                	.insn	2, 0x202c
    66e0:	20656e6f          	jal	t3,5c8e6 <__global_pointer+0x57ced>
    66e4:	206f6877          	.insn	4, 0x206f6877
    66e8:	6168                	.insn	2, 0x6168
    66ea:	696c2073          	csrs	0x696,s8
    66ee:	6576                	.insn	2, 0x6576
    66f0:	2064                	.insn	2, 0x2064
    66f2:	6f74                	.insn	2, 0x6f74
    66f4:	6f6c206f          	j	c8dea <__global_pointer+0xc41f1>
    66f8:	676e                	.insn	2, 0x676e
    66fa:	6120                	.insn	2, 0x6120
    66fc:	646e                	.insn	2, 0x646e
    66fe:	7320                	.insn	2, 0x7320
    6700:	6565                	.insn	2, 0x6565
    6702:	206e                	.insn	2, 0x206e
    6704:	6f74                	.insn	2, 0x6f74
    6706:	756d206f          	j	d8e5c <__global_pointer+0xd4263>
    670a:	002e6863          	bltu	t3,sp,671a <__global_pointer+0x1b21>
    670e:	0000                	.insn	2, 0x0000
    6710:	6f44                	.insn	2, 0x6f44
    6712:	7920                	.insn	2, 0x7920
    6714:	6b20756f          	jal	a0,ddc6 <__global_pointer+0x91cd>
    6718:	6f6e                	.insn	2, 0x6f6e
    671a:	6e612077          	.insn	4, 0x6e612077
    671e:	7479                	.insn	2, 0x7479
    6720:	6968                	.insn	2, 0x6968
    6722:	676e                	.insn	2, 0x676e
    6724:	6120                	.insn	2, 0x6120
    6726:	6f62                	.insn	2, 0x6f62
    6728:	7475                	.insn	2, 0x7475
    672a:	7420                	.insn	2, 0x7420
    672c:	6568                	.insn	2, 0x6568
    672e:	4320                	.insn	2, 0x4320
    6730:	6f6c                	.insn	2, 0x6f6c
    6732:	6f746b63          	bltu	s0,s7,6e28 <__global_pointer+0x222f>
    6736:	3f726577          	.insn	4, 0x3f726577
    673a:	0000                	.insn	2, 0x0000
    673c:	646c6f47          	.insn	4, 0x646c6f47
    6740:	202c                	.insn	2, 0x202c
    6742:	656a                	.insn	2, 0x656a
    6744:	736c6577          	.insn	4, 0x736c6577
    6748:	202c                	.insn	2, 0x202c
    674a:	6e61                	.insn	2, 0x6e61
    674c:	2064                	.insn	2, 0x2064
    674e:	7274                	.insn	2, 0x7274
    6750:	6165                	.insn	2, 0x6165
    6752:	65727573          	csrrci	a0,hviprio2h,4
    6756:	2e2e                	.insn	2, 0x2e2e
    6758:	202e                	.insn	2, 0x202e
    675a:	6c61                	.insn	2, 0x6c61
    675c:	206c                	.insn	2, 0x206c
    675e:	74696177          	.insn	4, 0x74696177
    6762:	6e69                	.insn	2, 0x6e69
    6764:	6f742067          	.insn	4, 0x6f742067
    6768:	6220                	.insn	2, 0x6220
    676a:	2065                	.insn	2, 0x2065
    676c:	69616c63          	bltu	sp,s6,6e04 <__global_pointer+0x220b>
    6770:	656d                	.insn	2, 0x656d
    6772:	2e64                	.insn	2, 0x2e64
    6774:	5920                	.insn	2, 0x5920
    6776:	7465                	.insn	2, 0x7465
    6778:	6e20                	.insn	2, 0x6e20
    677a:	6e6f206f          	j	f8e60 <__global_pointer+0xf4267>
    677e:	2065                	.insn	2, 0x2065
    6780:	6168                	.insn	2, 0x6168
    6782:	76652073          	csrs	0x766,a0
    6786:	7265                	.insn	2, 0x7265
    6788:	6320                	.insn	2, 0x6320
    678a:	20656d6f          	jal	s10,5c990 <__global_pointer+0x57d97>
    678e:	736f6c63          	bltu	t5,s6,6ec6 <__global_pointer+0x22cd>
    6792:	2e65                	.insn	2, 0x2e65
    6794:	5020                	.insn	2, 0x5020
    6796:	7265                	.insn	2, 0x7265
    6798:	6168                	.insn	2, 0x6168
    679a:	7370                	.insn	2, 0x7370
    679c:	7920                	.insn	2, 0x7920
    679e:	7720756f          	jal	a0,df10 <__global_pointer+0x9317>
    67a2:	6c69                	.insn	2, 0x6c69
    67a4:	206c                	.insn	2, 0x206c
    67a6:	6562                	.insn	2, 0x6562
    67a8:	7420                	.insn	2, 0x7420
    67aa:	6568                	.insn	2, 0x6568
    67ac:	6f20                	.insn	2, 0x6f20
    67ae:	656e                	.insn	2, 0x656e
    67b0:	7420                	.insn	2, 0x7420
    67b2:	7573206f          	j	39708 <__global_pointer+0x34b0f>
    67b6:	65656363          	bltu	a0,s6,6dfc <__global_pointer+0x2203>
    67ba:	2064                	.insn	2, 0x2064
    67bc:	72656877          	.insn	4, 0x72656877
    67c0:	2065                	.insn	2, 0x2065
    67c2:	6c61                	.insn	2, 0x6c61
    67c4:	206c                	.insn	2, 0x206c
    67c6:	6568746f          	jal	s0,8de1c <__global_pointer+0x89223>
    67ca:	7372                	.insn	2, 0x7372
    67cc:	6820                	.insn	2, 0x6820
    67ce:	7661                	.insn	2, 0x7661
    67d0:	2065                	.insn	2, 0x2065
    67d2:	6166                	.insn	2, 0x6166
    67d4:	6c69                	.insn	2, 0x6c69
    67d6:	6465                	.insn	2, 0x6465
    67d8:	002e                	.insn	2, 0x002e

Disassembly of section .comment:

00000000 <.comment>:
   0:	3a434347          	.insn	4, 0x3a434347
   4:	2820                	.insn	2, 0x2820
   6:	2029                	.insn	2, 0x2029
   8:	3531                	.insn	2, 0x3531
   a:	312e                	.insn	2, 0x312e
   c:	302e                	.insn	2, 0x302e
	...

Disassembly of section .riscv.attributes:

00000000 <.riscv.attributes>:
   0:	3641                	.insn	2, 0x3641
   2:	0000                	.insn	2, 0x0000
   4:	7200                	.insn	2, 0x7200
   6:	7369                	.insn	2, 0x7369
   8:	01007663          	bgeu	zero,a6,14 <_isr_routine+0xc>
   c:	002c                	.insn	2, 0x002c
   e:	0000                	.insn	2, 0x0000
  10:	1004                	.insn	2, 0x1004
  12:	7205                	.insn	2, 0x7205
  14:	3376                	.insn	2, 0x3376
  16:	6932                	.insn	2, 0x6932
  18:	7032                	.insn	2, 0x7032
  1a:	5f31                	.insn	2, 0x5f31
  1c:	326d                	.insn	2, 0x326d
  1e:	3070                	.insn	2, 0x3070
  20:	7a5f 6369 7273      	.insn	6, 0x727363697a5f
  26:	7032                	.insn	2, 0x7032
  28:	5f30                	.insn	2, 0x5f30
  2a:	6d7a                	.insn	2, 0x6d7a
  2c:	756d                	.insn	2, 0x756d
  2e:	316c                	.insn	2, 0x316c
  30:	3070                	.insn	2, 0x3070
  32:	0800                	.insn	2, 0x0800
  34:	0a01                	.insn	2, 0x0a01
  36:	0b                	.byte	0x0b
