
main.elf:     file format elf32-littleriscv


Disassembly of section .text:

00000000 <_isr_handler>:
       0:	0080006f          	j	8 <_isr_routine>
       4:	1440006f          	j	148 <_start>

00000008 <_isr_routine>:
       8:	f8010113          	addi	sp,sp,-128
       c:	00112023          	sw	ra,0(sp)
      10:	00312423          	sw	gp,8(sp)
      14:	00412623          	sw	tp,12(sp)
      18:	00512823          	sw	t0,16(sp)
      1c:	00612a23          	sw	t1,20(sp)
      20:	00712c23          	sw	t2,24(sp)
      24:	00812e23          	sw	s0,28(sp)
      28:	02912023          	sw	s1,32(sp)
      2c:	02a12223          	sw	a0,36(sp)
      30:	02b12423          	sw	a1,40(sp)
      34:	02c12623          	sw	a2,44(sp)
      38:	02d12823          	sw	a3,48(sp)
      3c:	02e12a23          	sw	a4,52(sp)
      40:	02f12c23          	sw	a5,56(sp)
      44:	03012e23          	sw	a6,60(sp)
      48:	05112023          	sw	a7,64(sp)
      4c:	05212223          	sw	s2,68(sp)
      50:	05312423          	sw	s3,72(sp)
      54:	05412623          	sw	s4,76(sp)
      58:	05512823          	sw	s5,80(sp)
      5c:	05612a23          	sw	s6,84(sp)
      60:	05712c23          	sw	s7,88(sp)
      64:	05812e23          	sw	s8,92(sp)
      68:	07912023          	sw	s9,96(sp)
      6c:	07a12223          	sw	s10,100(sp)
      70:	07b12423          	sw	s11,104(sp)
      74:	07c12623          	sw	t3,108(sp)
      78:	07d12823          	sw	t4,112(sp)
      7c:	07e12a23          	sw	t5,116(sp)
      80:	07f12c23          	sw	t6,120(sp)
      84:	342022f3          	csrr	t0,mcause
      88:	80000337          	lui	t1,0x80000
      8c:	02536463          	bltu	t1,t0,b4 <external_irq>
      90:	00028833          	add	a6,t0,zero
      94:	00b00313          	li	t1,11
      98:	00628463          	beq	t0,t1,a0 <skip_init_args>
      9c:	34102573          	csrr	a0,mepc

000000a0 <skip_init_args>:
      a0:	221000ef          	jal	ac0 <handle_exception>
      a4:	341022f3          	csrr	t0,mepc
      a8:	00428293          	addi	t0,t0,4
      ac:	34129073          	csrw	mepc,t0
      b0:	0180006f          	j	c8 <restore>

000000b4 <external_irq>:
      b4:	800002b7          	lui	t0,0x80000
      b8:	fff28293          	addi	t0,t0,-1 # 7fffffff <_stack_end+0x7fef9823>
      bc:	34202373          	csrr	t1,mcause
      c0:	0062f533          	and	a0,t0,t1
      c4:	425030ef          	jal	3ce8 <handle_interrupt>

000000c8 <restore>:
      c8:	00012083          	lw	ra,0(sp)
      cc:	00812183          	lw	gp,8(sp)
      d0:	00c12203          	lw	tp,12(sp)
      d4:	01012283          	lw	t0,16(sp)
      d8:	01412303          	lw	t1,20(sp)
      dc:	01812383          	lw	t2,24(sp)
      e0:	01c12403          	lw	s0,28(sp)
      e4:	02012483          	lw	s1,32(sp)
      e8:	02412503          	lw	a0,36(sp)
      ec:	02812583          	lw	a1,40(sp)
      f0:	02c12603          	lw	a2,44(sp)
      f4:	03012683          	lw	a3,48(sp)
      f8:	03412703          	lw	a4,52(sp)
      fc:	03812783          	lw	a5,56(sp)
     100:	03c12803          	lw	a6,60(sp)
     104:	04012883          	lw	a7,64(sp)
     108:	04412903          	lw	s2,68(sp)
     10c:	04812983          	lw	s3,72(sp)
     110:	04c12a03          	lw	s4,76(sp)
     114:	05012a83          	lw	s5,80(sp)
     118:	05412b03          	lw	s6,84(sp)
     11c:	05812b83          	lw	s7,88(sp)
     120:	05c12c03          	lw	s8,92(sp)
     124:	06012c83          	lw	s9,96(sp)
     128:	06412d03          	lw	s10,100(sp)
     12c:	06812d83          	lw	s11,104(sp)
     130:	06c12e03          	lw	t3,108(sp)
     134:	07012e83          	lw	t4,112(sp)
     138:	07412f03          	lw	t5,116(sp)
     13c:	07812f83          	lw	t6,120(sp)
     140:	08010113          	addi	sp,sp,128
     144:	30200073          	mret

00000148 <_start>:
     148:	30401073          	csrw	mie,zero
     14c:	00106117          	auipc	sp,0x106
     150:	69010113          	addi	sp,sp,1680 # 1067dc <_stack_end>
     154:	00005197          	auipc	gp,0x5
     158:	aa518193          	addi	gp,gp,-1371 # 4bf9 <__global_pointer>
     15c:	00004517          	auipc	a0,0x4
     160:	1c050513          	addi	a0,a0,448 # 431c <welcome_msg>
     164:	00400893          	li	a7,4
     168:	00000073          	ecall
     16c:	71d030ef          	jal	4088 <main>

00000170 <loop>:
     170:	0000006f          	j	170 <loop>

00000174 <enable_interrupts>:
     174:	30486073          	csrsi	mie,16
     178:	3048e073          	csrsi	mie,17
     17c:	3001e073          	csrsi	mstatus,3
     180:	00008067          	ret

00000184 <new_player>:
     184:	12c00793          	li	a5,300
     188:	02f507b3          	mul	a5,a0,a5
     18c:	030008b7          	lui	a7,0x3000
     190:	00005737          	lui	a4,0x5
     194:	93070713          	addi	a4,a4,-1744 # 4930 <mytime+0xac>
     198:	06400693          	li	a3,100
     19c:	00500813          	li	a6,5
     1a0:	011787b3          	add	a5,a5,a7
     1a4:	00a7a023          	sw	a0,0(a5)
     1a8:	00b7a223          	sw	a1,4(a5)
     1ac:	00c7a423          	sw	a2,8(a5)
     1b0:	0107aa23          	sw	a6,20(a5)
     1b4:	00d7a623          	sw	a3,12(a5)
     1b8:	00d7a823          	sw	a3,16(a5)
     1bc:	00e7ae23          	sw	a4,28(a5)
     1c0:	02e7a023          	sw	a4,32(a5)
     1c4:	02e7a223          	sw	a4,36(a5)
     1c8:	02e7a423          	sw	a4,40(a5)
     1cc:	02e7a623          	sw	a4,44(a5)
     1d0:	00078513          	mv	a0,a5
     1d4:	00008067          	ret

000001d8 <setP_hp>:
     1d8:	00c52703          	lw	a4,12(a0)
     1dc:	00050793          	mv	a5,a0
     1e0:	00100513          	li	a0,1
     1e4:	00e585b3          	add	a1,a1,a4
     1e8:	00b04663          	bgtz	a1,1f4 <setP_hp+0x1c>
     1ec:	00000593          	li	a1,0
     1f0:	00000513          	li	a0,0
     1f4:	00b7a623          	sw	a1,12(a5)
     1f8:	00008067          	ret

000001fc <check_damage>:
     1fc:	fd010113          	addi	sp,sp,-48
     200:	03212023          	sw	s2,32(sp)
     204:	01312e23          	sw	s3,28(sp)
     208:	00005937          	lui	s2,0x5
     20c:	000059b7          	lui	s3,0x5
     210:	000057b7          	lui	a5,0x5
     214:	02812423          	sw	s0,40(sp)
     218:	01412c23          	sw	s4,24(sp)
     21c:	01512a23          	sw	s5,20(sp)
     220:	01612823          	sw	s6,16(sp)
     224:	01712623          	sw	s7,12(sp)
     228:	01812423          	sw	s8,8(sp)
     22c:	02112623          	sw	ra,44(sp)
     230:	02912223          	sw	s1,36(sp)
     234:	00050a13          	mv	s4,a0
     238:	01c50413          	addi	s0,a0,28
     23c:	03050b13          	addi	s6,a0,48
     240:	93898993          	addi	s3,s3,-1736 # 4938 <mytime+0xb4>
     244:	94490913          	addi	s2,s2,-1724 # 4944 <mytime+0xc0>
     248:	95078c13          	addi	s8,a5,-1712 # 4950 <mytime+0xcc>
     24c:	00000a93          	li	s5,0
     250:	00f00b93          	li	s7,15
     254:	00042483          	lw	s1,0(s0)
     258:	00098593          	mv	a1,s3
     25c:	00048513          	mv	a0,s1
     260:	2e9000ef          	jal	d48 <strcmp>
     264:	00050793          	mv	a5,a0
     268:	00090593          	mv	a1,s2
     26c:	00048513          	mv	a0,s1
     270:	08078263          	beqz	a5,2f4 <check_damage+0xf8>
     274:	2d5000ef          	jal	d48 <strcmp>
     278:	04051263          	bnez	a0,2bc <check_damage+0xc0>
     27c:	017a2a23          	sw	s7,20(s4)
     280:	00200a93          	li	s5,2
     284:	00440413          	addi	s0,s0,4
     288:	fd6416e3          	bne	s0,s6,254 <check_damage+0x58>
     28c:	02c12083          	lw	ra,44(sp)
     290:	02812403          	lw	s0,40(sp)
     294:	02412483          	lw	s1,36(sp)
     298:	02012903          	lw	s2,32(sp)
     29c:	01c12983          	lw	s3,28(sp)
     2a0:	01812a03          	lw	s4,24(sp)
     2a4:	01412a83          	lw	s5,20(sp)
     2a8:	01012b03          	lw	s6,16(sp)
     2ac:	00c12b83          	lw	s7,12(sp)
     2b0:	00812c03          	lw	s8,8(sp)
     2b4:	03010113          	addi	sp,sp,48
     2b8:	00008067          	ret
     2bc:	00048513          	mv	a0,s1
     2c0:	000c0593          	mv	a1,s8
     2c4:	285000ef          	jal	d48 <strcmp>
     2c8:	00200793          	li	a5,2
     2cc:	00051c63          	bnez	a0,2e4 <check_damage+0xe8>
     2d0:	00800713          	li	a4,8
     2d4:	fafa86e3          	beq	s5,a5,280 <check_damage+0x84>
     2d8:	00ea2a23          	sw	a4,20(s4)
     2dc:	00100a93          	li	s5,1
     2e0:	fa5ff06f          	j	284 <check_damage+0x88>
     2e4:	00500793          	li	a5,5
     2e8:	f80a9ee3          	bnez	s5,284 <check_damage+0x88>
     2ec:	00fa2a23          	sw	a5,20(s4)
     2f0:	f95ff06f          	j	284 <check_damage+0x88>
     2f4:	01400793          	li	a5,20
     2f8:	00fa2a23          	sw	a5,20(s4)
     2fc:	f91ff06f          	j	28c <check_damage+0x90>

00000300 <peek_inventory>:
     300:	fe010113          	addi	sp,sp,-32
     304:	00812c23          	sw	s0,24(sp)
     308:	00912a23          	sw	s1,20(sp)
     30c:	01212823          	sw	s2,16(sp)
     310:	01312623          	sw	s3,12(sp)
     314:	00112e23          	sw	ra,28(sp)
     318:	01c50413          	addi	s0,a0,28
     31c:	00058913          	mv	s2,a1
     320:	00100493          	li	s1,1
     324:	00600993          	li	s3,6
     328:	00042503          	lw	a0,0(s0)
     32c:	00090593          	mv	a1,s2
     330:	219000ef          	jal	d48 <strcmp>
     334:	00050a63          	beqz	a0,348 <peek_inventory+0x48>
     338:	00148493          	addi	s1,s1,1
     33c:	00440413          	addi	s0,s0,4
     340:	ff3494e3          	bne	s1,s3,328 <peek_inventory+0x28>
     344:	00000493          	li	s1,0
     348:	01c12083          	lw	ra,28(sp)
     34c:	01812403          	lw	s0,24(sp)
     350:	01012903          	lw	s2,16(sp)
     354:	00c12983          	lw	s3,12(sp)
     358:	00048513          	mv	a0,s1
     35c:	01412483          	lw	s1,20(sp)
     360:	02010113          	addi	sp,sp,32
     364:	00008067          	ret

00000368 <add_to_inventory>:
     368:	fd010113          	addi	sp,sp,-48
     36c:	01312e23          	sw	s3,28(sp)
     370:	01412c23          	sw	s4,24(sp)
     374:	000059b7          	lui	s3,0x5
     378:	01c50a13          	addi	s4,a0,28
     37c:	02912223          	sw	s1,36(sp)
     380:	03212023          	sw	s2,32(sp)
     384:	01512a23          	sw	s5,20(sp)
     388:	01612823          	sw	s6,16(sp)
     38c:	01712623          	sw	s7,12(sp)
     390:	02112623          	sw	ra,44(sp)
     394:	02812423          	sw	s0,40(sp)
     398:	00050a93          	mv	s5,a0
     39c:	00058b93          	mv	s7,a1
     3a0:	000a0913          	mv	s2,s4
     3a4:	93098993          	addi	s3,s3,-1744 # 4930 <mytime+0xac>
     3a8:	00100493          	li	s1,1
     3ac:	00600b13          	li	s6,6
     3b0:	00092503          	lw	a0,0(s2)
     3b4:	00098593          	mv	a1,s3
     3b8:	191000ef          	jal	d48 <strcmp>
     3bc:	00050413          	mv	s0,a0
     3c0:	04050663          	beqz	a0,40c <add_to_inventory+0xa4>
     3c4:	00148493          	addi	s1,s1,1
     3c8:	00490913          	addi	s2,s2,4
     3cc:	ff6492e3          	bne	s1,s6,3b0 <add_to_inventory+0x48>
     3d0:	00005537          	lui	a0,0x5
     3d4:	95850513          	addi	a0,a0,-1704 # 4958 <mytime+0xd4>
     3d8:	594000ef          	jal	96c <print>
     3dc:	00000513          	li	a0,0
     3e0:	02c12083          	lw	ra,44(sp)
     3e4:	02812403          	lw	s0,40(sp)
     3e8:	02412483          	lw	s1,36(sp)
     3ec:	02012903          	lw	s2,32(sp)
     3f0:	01c12983          	lw	s3,28(sp)
     3f4:	01812a03          	lw	s4,24(sp)
     3f8:	01412a83          	lw	s5,20(sp)
     3fc:	01012b03          	lw	s6,16(sp)
     400:	00c12b83          	lw	s7,12(sp)
     404:	03010113          	addi	sp,sp,48
     408:	00008067          	ret
     40c:	00249793          	slli	a5,s1,0x2
     410:	01812423          	sw	s8,8(sp)
     414:	00fa87b3          	add	a5,s5,a5
     418:	0177ac23          	sw	s7,24(a5)
     41c:	00005937          	lui	s2,0x5
     420:	000059b7          	lui	s3,0x5
     424:	000057b7          	lui	a5,0x5
     428:	94490b93          	addi	s7,s2,-1724 # 4944 <mytime+0xc0>
     42c:	93898993          	addi	s3,s3,-1736 # 4938 <mytime+0xb4>
     430:	95078c13          	addi	s8,a5,-1712 # 4950 <mytime+0xcc>
     434:	030a8b13          	addi	s6,s5,48
     438:	00f00913          	li	s2,15
     43c:	000a2483          	lw	s1,0(s4)
     440:	00098593          	mv	a1,s3
     444:	00048513          	mv	a0,s1
     448:	101000ef          	jal	d48 <strcmp>
     44c:	00050793          	mv	a5,a0
     450:	000b8593          	mv	a1,s7
     454:	00048513          	mv	a0,s1
     458:	06078063          	beqz	a5,4b8 <add_to_inventory+0x150>
     45c:	0ed000ef          	jal	d48 <strcmp>
     460:	02051063          	bnez	a0,480 <add_to_inventory+0x118>
     464:	012aaa23          	sw	s2,20(s5)
     468:	00200413          	li	s0,2
     46c:	004a0a13          	addi	s4,s4,4
     470:	fd6a16e3          	bne	s4,s6,43c <add_to_inventory+0xd4>
     474:	00812c03          	lw	s8,8(sp)
     478:	00100513          	li	a0,1
     47c:	f65ff06f          	j	3e0 <add_to_inventory+0x78>
     480:	00048513          	mv	a0,s1
     484:	000c0593          	mv	a1,s8
     488:	0c1000ef          	jal	d48 <strcmp>
     48c:	00200793          	li	a5,2
     490:	00051c63          	bnez	a0,4a8 <add_to_inventory+0x140>
     494:	00800713          	li	a4,8
     498:	fcf408e3          	beq	s0,a5,468 <add_to_inventory+0x100>
     49c:	00eaaa23          	sw	a4,20(s5)
     4a0:	00100413          	li	s0,1
     4a4:	fc9ff06f          	j	46c <add_to_inventory+0x104>
     4a8:	00500793          	li	a5,5
     4ac:	fc0410e3          	bnez	s0,46c <add_to_inventory+0x104>
     4b0:	00faaa23          	sw	a5,20(s5)
     4b4:	fb9ff06f          	j	46c <add_to_inventory+0x104>
     4b8:	01400793          	li	a5,20
     4bc:	00faaa23          	sw	a5,20(s5)
     4c0:	fb5ff06f          	j	474 <add_to_inventory+0x10c>

000004c4 <remove_from_inventory>:
     4c4:	00259793          	slli	a5,a1,0x2
     4c8:	00f507b3          	add	a5,a0,a5
     4cc:	0187a603          	lw	a2,24(a5)
     4d0:	fd010113          	addi	sp,sp,-48
     4d4:	00005737          	lui	a4,0x5
     4d8:	02812423          	sw	s0,40(sp)
     4dc:	03212023          	sw	s2,32(sp)
     4e0:	01312e23          	sw	s3,28(sp)
     4e4:	01412c23          	sw	s4,24(sp)
     4e8:	01512a23          	sw	s5,20(sp)
     4ec:	01612823          	sw	s6,16(sp)
     4f0:	01712623          	sw	s7,12(sp)
     4f4:	01812423          	sw	s8,8(sp)
     4f8:	01912223          	sw	s9,4(sp)
     4fc:	02112623          	sw	ra,44(sp)
     500:	02912223          	sw	s1,36(sp)
     504:	93070713          	addi	a4,a4,-1744 # 4930 <mytime+0xac>
     508:	00005a37          	lui	s4,0x5
     50c:	000059b7          	lui	s3,0x5
     510:	000056b7          	lui	a3,0x5
     514:	00050913          	mv	s2,a0
     518:	00060c93          	mv	s9,a2
     51c:	00e7ac23          	sw	a4,24(a5)
     520:	01c50413          	addi	s0,a0,28
     524:	03050b13          	addi	s6,a0,48
     528:	938a0a13          	addi	s4,s4,-1736 # 4938 <mytime+0xb4>
     52c:	94498993          	addi	s3,s3,-1724 # 4944 <mytime+0xc0>
     530:	95068c13          	addi	s8,a3,-1712 # 4950 <mytime+0xcc>
     534:	00000a93          	li	s5,0
     538:	00f00b93          	li	s7,15
     53c:	00042483          	lw	s1,0(s0)
     540:	000a0593          	mv	a1,s4
     544:	00048513          	mv	a0,s1
     548:	001000ef          	jal	d48 <strcmp>
     54c:	00050793          	mv	a5,a0
     550:	00098593          	mv	a1,s3
     554:	00048513          	mv	a0,s1
     558:	08078663          	beqz	a5,5e4 <remove_from_inventory+0x120>
     55c:	7ec000ef          	jal	d48 <strcmp>
     560:	04051663          	bnez	a0,5ac <remove_from_inventory+0xe8>
     564:	01792a23          	sw	s7,20(s2)
     568:	00200a93          	li	s5,2
     56c:	00440413          	addi	s0,s0,4
     570:	fd6416e3          	bne	s0,s6,53c <remove_from_inventory+0x78>
     574:	02c12083          	lw	ra,44(sp)
     578:	02812403          	lw	s0,40(sp)
     57c:	02412483          	lw	s1,36(sp)
     580:	02012903          	lw	s2,32(sp)
     584:	01c12983          	lw	s3,28(sp)
     588:	01812a03          	lw	s4,24(sp)
     58c:	01412a83          	lw	s5,20(sp)
     590:	01012b03          	lw	s6,16(sp)
     594:	00c12b83          	lw	s7,12(sp)
     598:	00812c03          	lw	s8,8(sp)
     59c:	000c8513          	mv	a0,s9
     5a0:	00412c83          	lw	s9,4(sp)
     5a4:	03010113          	addi	sp,sp,48
     5a8:	00008067          	ret
     5ac:	00048513          	mv	a0,s1
     5b0:	000c0593          	mv	a1,s8
     5b4:	794000ef          	jal	d48 <strcmp>
     5b8:	00200793          	li	a5,2
     5bc:	00051c63          	bnez	a0,5d4 <remove_from_inventory+0x110>
     5c0:	00800713          	li	a4,8
     5c4:	fafa82e3          	beq	s5,a5,568 <remove_from_inventory+0xa4>
     5c8:	00e92a23          	sw	a4,20(s2)
     5cc:	00100a93          	li	s5,1
     5d0:	f9dff06f          	j	56c <remove_from_inventory+0xa8>
     5d4:	00500793          	li	a5,5
     5d8:	f80a9ae3          	bnez	s5,56c <remove_from_inventory+0xa8>
     5dc:	00f92a23          	sw	a5,20(s2)
     5e0:	f8dff06f          	j	56c <remove_from_inventory+0xa8>
     5e4:	01400793          	li	a5,20
     5e8:	00f92a23          	sw	a5,20(s2)
     5ec:	f89ff06f          	j	574 <remove_from_inventory+0xb0>

000005f0 <print_inventory>:
     5f0:	fd010113          	addi	sp,sp,-48
     5f4:	000057b7          	lui	a5,0x5
     5f8:	02912223          	sw	s1,36(sp)
     5fc:	00050493          	mv	s1,a0
     600:	96c78513          	addi	a0,a5,-1684 # 496c <mytime+0xe8>
     604:	02112623          	sw	ra,44(sp)
     608:	02812423          	sw	s0,40(sp)
     60c:	03212023          	sw	s2,32(sp)
     610:	01312e23          	sw	s3,28(sp)
     614:	01412c23          	sw	s4,24(sp)
     618:	01512a23          	sw	s5,20(sp)
     61c:	01612823          	sw	s6,16(sp)
     620:	34c000ef          	jal	96c <print>
     624:	0104a503          	lw	a0,16(s1)
     628:	00005937          	lui	s2,0x5
     62c:	000059b7          	lui	s3,0x5
     630:	374000ef          	jal	9a4 <print_dec>
     634:	00005537          	lui	a0,0x5
     638:	f7450513          	addi	a0,a0,-140 # 4f74 <__global_pointer+0x37b>
     63c:	330000ef          	jal	96c <print>
     640:	00005537          	lui	a0,0x5
     644:	97850513          	addi	a0,a0,-1672 # 4978 <mytime+0xf4>
     648:	00005ab7          	lui	s5,0x5
     64c:	320000ef          	jal	96c <print>
     650:	00005b37          	lui	s6,0x5
     654:	01c48493          	addi	s1,s1,28
     658:	93090913          	addi	s2,s2,-1744 # 4930 <mytime+0xac>
     65c:	9dc98993          	addi	s3,s3,-1572 # 49dc <mytime+0x158>
     660:	984a8a93          	addi	s5,s5,-1660 # 4984 <mytime+0x100>
     664:	00100413          	li	s0,1
     668:	00600a13          	li	s4,6
     66c:	0004a503          	lw	a0,0(s1)
     670:	00090593          	mv	a1,s2
     674:	6d4000ef          	jal	d48 <strcmp>
     678:	00050793          	mv	a5,a0
     67c:	00040513          	mv	a0,s0
     680:	04078c63          	beqz	a5,6d8 <print_inventory+0xe8>
     684:	320000ef          	jal	9a4 <print_dec>
     688:	00098513          	mv	a0,s3
     68c:	2e0000ef          	jal	96c <print>
     690:	0004a503          	lw	a0,0(s1)
     694:	2d8000ef          	jal	96c <print>
     698:	c50b0513          	addi	a0,s6,-944 # 4c50 <__global_pointer+0x57>
     69c:	2d0000ef          	jal	96c <print>
     6a0:	00140413          	addi	s0,s0,1
     6a4:	00448493          	addi	s1,s1,4
     6a8:	fd4412e3          	bne	s0,s4,66c <print_inventory+0x7c>
     6ac:	02812403          	lw	s0,40(sp)
     6b0:	02c12083          	lw	ra,44(sp)
     6b4:	02412483          	lw	s1,36(sp)
     6b8:	02012903          	lw	s2,32(sp)
     6bc:	01c12983          	lw	s3,28(sp)
     6c0:	01812a03          	lw	s4,24(sp)
     6c4:	01412a83          	lw	s5,20(sp)
     6c8:	c50b0513          	addi	a0,s6,-944
     6cc:	01012b03          	lw	s6,16(sp)
     6d0:	03010113          	addi	sp,sp,48
     6d4:	2980006f          	j	96c <print>
     6d8:	2cc000ef          	jal	9a4 <print_dec>
     6dc:	00098513          	mv	a0,s3
     6e0:	28c000ef          	jal	96c <print>
     6e4:	000a8513          	mv	a0,s5
     6e8:	284000ef          	jal	96c <print>
     6ec:	fb5ff06f          	j	6a0 <print_inventory+0xb0>

000006f0 <new_enemy>:
     6f0:	00b52023          	sw	a1,0(a0)
     6f4:	00c52223          	sw	a2,4(a0)
     6f8:	00d52423          	sw	a3,8(a0)
     6fc:	00d52623          	sw	a3,12(a0)
     700:	00e52823          	sw	a4,16(a0)
     704:	00f52c23          	sw	a5,24(a0)
     708:	00008067          	ret

0000070c <new_room>:
     70c:	00b52023          	sw	a1,0(a0)
     710:	00c52223          	sw	a2,4(a0)
     714:	00d52423          	sw	a3,8(a0)
     718:	00052623          	sw	zero,12(a0)
     71c:	00052823          	sw	zero,16(a0)
     720:	00052a23          	sw	zero,20(a0)
     724:	02e52a23          	sw	a4,52(a0)
     728:	06f52623          	sw	a5,108(a0)
     72c:	00008067          	ret

00000730 <new_npc>:
     730:	0006a283          	lw	t0,0(a3)
     734:	0046af83          	lw	t6,4(a3)
     738:	0086af03          	lw	t5,8(a3)
     73c:	00c6ae83          	lw	t4,12(a3)
     740:	0106ae03          	lw	t3,16(a3)
     744:	0146a303          	lw	t1,20(a3)
     748:	0186a883          	lw	a7,24(a3)
     74c:	01c6a803          	lw	a6,28(a3)
     750:	0246a783          	lw	a5,36(a3)
     754:	00b52023          	sw	a1,0(a0)
     758:	0206a583          	lw	a1,32(a3)
     75c:	00c52223          	sw	a2,4(a0)
     760:	02e52823          	sw	a4,48(a0)
     764:	00552423          	sw	t0,8(a0)
     768:	01f52623          	sw	t6,12(a0)
     76c:	01e52823          	sw	t5,16(a0)
     770:	01d52a23          	sw	t4,20(a0)
     774:	01c52c23          	sw	t3,24(a0)
     778:	00652e23          	sw	t1,28(a0)
     77c:	03152023          	sw	a7,32(a0)
     780:	03052223          	sw	a6,36(a0)
     784:	02b52423          	sw	a1,40(a0)
     788:	02f52623          	sw	a5,44(a0)
     78c:	00008067          	ret

00000790 <display_string>:
     790:	00400893          	li	a7,4
     794:	00000073          	ecall
     798:	00a00513          	li	a0,10
     79c:	00b00893          	li	a7,11
     7a0:	00000073          	ecall
     7a4:	00008067          	ret

000007a8 <timetemplate>:
     7a8:	00004517          	auipc	a0,0x4
     7ac:	c0c50513          	addi	a0,a0,-1012 # 43b4 <timstr>
     7b0:	fe1ff0ef          	jal	790 <display_string>
     7b4:	3e800513          	li	a0,1000
     7b8:	170000ef          	jal	928 <delay>
     7bc:	00004517          	auipc	a0,0x4
     7c0:	bf450513          	addi	a0,a0,-1036 # 43b0 <mytime>
     7c4:	020000ef          	jal	7e4 <tick>
     7c8:	00004517          	auipc	a0,0x4
     7cc:	bec50513          	addi	a0,a0,-1044 # 43b4 <timstr>
     7d0:	00004297          	auipc	t0,0x4
     7d4:	be028293          	addi	t0,t0,-1056 # 43b0 <mytime>
     7d8:	0002a583          	lw	a1,0(t0)
     7dc:	080000ef          	jal	85c <time2string>
     7e0:	fc9ff06f          	j	7a8 <timetemplate>

000007e4 <tick>:
     7e4:	00052283          	lw	t0,0(a0)
     7e8:	00128293          	addi	t0,t0,1
     7ec:	00f2f313          	andi	t1,t0,15
     7f0:	00a33393          	sltiu	t2,t1,10
     7f4:	06039063          	bnez	t2,854 <tiend>
     7f8:	00628293          	addi	t0,t0,6
     7fc:	0f02f313          	andi	t1,t0,240
     800:	06033393          	sltiu	t2,t1,96
     804:	04039863          	bnez	t2,854 <tiend>
     808:	0a028293          	addi	t0,t0,160
     80c:	00f00e13          	li	t3,15
     810:	008e1e13          	slli	t3,t3,0x8
     814:	01c2f333          	and	t1,t0,t3
     818:	00a00e13          	li	t3,10
     81c:	008e1e13          	slli	t3,t3,0x8
     820:	01c323b3          	slt	t2,t1,t3
     824:	02039863          	bnez	t2,854 <tiend>
     828:	60028293          	addi	t0,t0,1536
     82c:	00f00e13          	li	t3,15
     830:	00ce1e13          	slli	t3,t3,0xc
     834:	01c2f333          	and	t1,t0,t3
     838:	00600e13          	li	t3,6
     83c:	00ce1e13          	slli	t3,t3,0xc
     840:	01c323b3          	slt	t2,t1,t3
     844:	00039863          	bnez	t2,854 <tiend>
     848:	00a00e13          	li	t3,10
     84c:	00ce1e13          	slli	t3,t3,0xc
     850:	01c282b3          	add	t0,t0,t3

00000854 <tiend>:
     854:	00552023          	sw	t0,0(a0)
     858:	00008067          	ret

0000085c <time2string>:
     85c:	ffc10113          	addi	sp,sp,-4
     860:	00812023          	sw	s0,0(sp)
     864:	ffc10113          	addi	sp,sp,-4
     868:	00912023          	sw	s1,0(sp)
     86c:	ffc10113          	addi	sp,sp,-4
     870:	01212023          	sw	s2,0(sp)
     874:	ffc10113          	addi	sp,sp,-4
     878:	00112023          	sw	ra,0(sp)
     87c:	000102b7          	lui	t0,0x10
     880:	fff28293          	addi	t0,t0,-1 # ffff <__global_pointer+0xb406>
     884:	0055f5b3          	and	a1,a1,t0
     888:	00050433          	add	s0,a0,zero
     88c:	000584b3          	add	s1,a1,zero
     890:	00c00913          	li	s2,12
     894:	00048533          	add	a0,s1,zero
     898:	01255533          	srl	a0,a0,s2
     89c:	070000ef          	jal	90c <hexasc>
     8a0:	00a40023          	sb	a0,0(s0)
     8a4:	ffc90913          	addi	s2,s2,-4
     8a8:	00048533          	add	a0,s1,zero
     8ac:	01255533          	srl	a0,a0,s2
     8b0:	05c000ef          	jal	90c <hexasc>
     8b4:	00a400a3          	sb	a0,1(s0)
     8b8:	ffc90913          	addi	s2,s2,-4
     8bc:	03a00513          	li	a0,58
     8c0:	00a40123          	sb	a0,2(s0)
     8c4:	00048533          	add	a0,s1,zero
     8c8:	01255533          	srl	a0,a0,s2
     8cc:	040000ef          	jal	90c <hexasc>
     8d0:	00a401a3          	sb	a0,3(s0)
     8d4:	ffc90913          	addi	s2,s2,-4
     8d8:	00048533          	add	a0,s1,zero
     8dc:	030000ef          	jal	90c <hexasc>
     8e0:	00a40223          	sb	a0,4(s0)
     8e4:	000402a3          	sb	zero,5(s0)
     8e8:	00012083          	lw	ra,0(sp)
     8ec:	00410113          	addi	sp,sp,4
     8f0:	00012903          	lw	s2,0(sp)
     8f4:	00410113          	addi	sp,sp,4
     8f8:	00012483          	lw	s1,0(sp)
     8fc:	00410113          	addi	sp,sp,4
     900:	00012403          	lw	s0,0(sp)
     904:	00410113          	addi	sp,sp,4
     908:	00008067          	ret

0000090c <hexasc>:
     90c:	00f57513          	andi	a0,a0,15
     910:	00900313          	li	t1,9
     914:	00a35663          	bge	t1,a0,920 <else>
     918:	03750513          	addi	a0,a0,55
     91c:	0080006f          	j	924 <done>

00000920 <else>:
     920:	03050513          	addi	a0,a0,48

00000924 <done>:
     924:	00008067          	ret

00000928 <delay>:
     928:	00002337          	lui	t1,0x2
     92c:	71030313          	addi	t1,t1,1808 # 2710 <room_init+0x41c>

00000930 <dwhile>:
     930:	00a05c63          	blez	a0,948 <dwhileout>
     934:	00000293          	li	t0,0
     938:	fff50513          	addi	a0,a0,-1

0000093c <dfor>:
     93c:	fe62dae3          	bge	t0,t1,930 <dwhile>
     940:	00128293          	addi	t0,t0,1
     944:	ff9ff06f          	j	93c <dfor>

00000948 <dwhileout>:
     948:	00008067          	ret

0000094c <printc>:
     94c:	04000737          	lui	a4,0x4000
     950:	04470713          	addi	a4,a4,68 # 4000044 <_stack_end+0x3ef9868>
     954:	000106b7          	lui	a3,0x10
     958:	00072783          	lw	a5,0(a4)
     95c:	fed7eee3          	bltu	a5,a3,958 <printc+0xc>
     960:	040007b7          	lui	a5,0x4000
     964:	04a7a023          	sw	a0,64(a5) # 4000040 <_stack_end+0x3ef9864>
     968:	00008067          	ret

0000096c <print>:
     96c:	00054603          	lbu	a2,0(a0)
     970:	02060863          	beqz	a2,9a0 <print+0x34>
     974:	04000737          	lui	a4,0x4000
     978:	040005b7          	lui	a1,0x4000
     97c:	04470713          	addi	a4,a4,68 # 4000044 <_stack_end+0x3ef9868>
     980:	04058593          	addi	a1,a1,64 # 4000040 <_stack_end+0x3ef9864>
     984:	000106b7          	lui	a3,0x10
     988:	00072783          	lw	a5,0(a4)
     98c:	fed7eee3          	bltu	a5,a3,988 <print+0x1c>
     990:	00c5a023          	sw	a2,0(a1)
     994:	00154603          	lbu	a2,1(a0)
     998:	00150513          	addi	a0,a0,1
     99c:	fe0616e3          	bnez	a2,988 <print+0x1c>
     9a0:	00008067          	ret

000009a4 <print_dec>:
     9a4:	3b9ad737          	lui	a4,0x3b9ad
     9a8:	040006b7          	lui	a3,0x4000
     9ac:	04000337          	lui	t1,0x4000
     9b0:	ccccd8b7          	lui	a7,0xccccd
     9b4:	a0070713          	addi	a4,a4,-1536 # 3b9aca00 <_stack_end+0x3b8a6224>
     9b8:	04468693          	addi	a3,a3,68 # 4000044 <_stack_end+0x3ef9868>
     9bc:	04030313          	addi	t1,t1,64 # 4000040 <_stack_end+0x3ef9864>
     9c0:	ccd88893          	addi	a7,a7,-819 # cccccccd <_stack_end+0xccbc64f1>
     9c4:	00a00593          	li	a1,10
     9c8:	00000793          	li	a5,0
     9cc:	00010637          	lui	a2,0x10
     9d0:	04e57663          	bgeu	a0,a4,a1c <print_dec+0x78>
     9d4:	00078813          	mv	a6,a5
     9d8:	00000793          	li	a5,0
     9dc:	04081063          	bnez	a6,a1c <print_dec+0x78>
     9e0:	03173833          	mulhu	a6,a4,a7
     9e4:	fff58593          	addi	a1,a1,-1
     9e8:	02e57533          	remu	a0,a0,a4
     9ec:	00385713          	srli	a4,a6,0x3
     9f0:	fe0590e3          	bnez	a1,9d0 <print_dec+0x2c>
     9f4:	02079263          	bnez	a5,a18 <print_dec+0x74>
     9f8:	04000737          	lui	a4,0x4000
     9fc:	04470713          	addi	a4,a4,68 # 4000044 <_stack_end+0x3ef9868>
     a00:	000106b7          	lui	a3,0x10
     a04:	00072783          	lw	a5,0(a4)
     a08:	fed7eee3          	bltu	a5,a3,a04 <print_dec+0x60>
     a0c:	040007b7          	lui	a5,0x4000
     a10:	03000713          	li	a4,48
     a14:	04e7a023          	sw	a4,64(a5) # 4000040 <_stack_end+0x3ef9864>
     a18:	00008067          	ret
     a1c:	02e55833          	divu	a6,a0,a4
     a20:	03080813          	addi	a6,a6,48
     a24:	0ff87813          	zext.b	a6,a6
     a28:	0006a783          	lw	a5,0(a3) # 10000 <__global_pointer+0xb407>
     a2c:	fec7eee3          	bltu	a5,a2,a28 <print_dec+0x84>
     a30:	01032023          	sw	a6,0(t1)
     a34:	00100793          	li	a5,1
     a38:	fa9ff06f          	j	9e0 <print_dec+0x3c>

00000a3c <print_hex32>:
     a3c:	04000737          	lui	a4,0x4000
     a40:	04470713          	addi	a4,a4,68 # 4000044 <_stack_end+0x3ef9868>
     a44:	000106b7          	lui	a3,0x10
     a48:	00072783          	lw	a5,0(a4)
     a4c:	fed7eee3          	bltu	a5,a3,a48 <print_hex32+0xc>
     a50:	040007b7          	lui	a5,0x4000
     a54:	03000693          	li	a3,48
     a58:	04d7a023          	sw	a3,64(a5) # 4000040 <_stack_end+0x3ef9864>
     a5c:	04478713          	addi	a4,a5,68
     a60:	000106b7          	lui	a3,0x10
     a64:	00072783          	lw	a5,0(a4)
     a68:	fed7eee3          	bltu	a5,a3,a64 <print_hex32+0x28>
     a6c:	04000837          	lui	a6,0x4000
     a70:	04080813          	addi	a6,a6,64 # 4000040 <_stack_end+0x3ef9864>
     a74:	07800793          	li	a5,120
     a78:	04000737          	lui	a4,0x4000
     a7c:	00f82023          	sw	a5,0(a6)
     a80:	04470713          	addi	a4,a4,68 # 4000044 <_stack_end+0x3ef9868>
     a84:	01c00613          	li	a2,28
     a88:	00900313          	li	t1,9
     a8c:	000106b7          	lui	a3,0x10
     a90:	ffc00893          	li	a7,-4
     a94:	00c557b3          	srl	a5,a0,a2
     a98:	00f7f793          	andi	a5,a5,15
     a9c:	03778593          	addi	a1,a5,55
     aa0:	00f36463          	bltu	t1,a5,aa8 <print_hex32+0x6c>
     aa4:	03078593          	addi	a1,a5,48
     aa8:	00072783          	lw	a5,0(a4)
     aac:	fed7eee3          	bltu	a5,a3,aa8 <print_hex32+0x6c>
     ab0:	00b82023          	sw	a1,0(a6)
     ab4:	ffc60613          	addi	a2,a2,-4 # fffc <__global_pointer+0xb403>
     ab8:	fd161ee3          	bne	a2,a7,a94 <print_hex32+0x58>
     abc:	00008067          	ret

00000ac0 <handle_exception>:
     ac0:	00200793          	li	a5,2
     ac4:	1af80463          	beq	a6,a5,c6c <handle_exception+0x1ac>
     ac8:	00b00793          	li	a5,11
     acc:	12f80663          	beq	a6,a5,bf8 <handle_exception+0x138>
     ad0:	14081c63          	bnez	a6,c28 <handle_exception+0x168>
     ad4:	00005637          	lui	a2,0x5
     ad8:	000058b7          	lui	a7,0x5
     adc:	04000737          	lui	a4,0x4000
     ae0:	04000837          	lui	a6,0x4000
     ae4:	98c60613          	addi	a2,a2,-1652 # 498c <mytime+0x108>
     ae8:	9bb88893          	addi	a7,a7,-1605 # 49bb <mytime+0x137>
     aec:	04470713          	addi	a4,a4,68 # 4000044 <_stack_end+0x3ef9868>
     af0:	04080813          	addi	a6,a6,64 # 4000040 <_stack_end+0x3ef9864>
     af4:	00a00593          	li	a1,10
     af8:	000106b7          	lui	a3,0x10
     afc:	00072783          	lw	a5,0(a4)
     b00:	fed7eee3          	bltu	a5,a3,afc <handle_exception+0x3c>
     b04:	00b82023          	sw	a1,0(a6)
     b08:	00160613          	addi	a2,a2,1
     b0c:	00064583          	lbu	a1,0(a2)
     b10:	ff1616e3          	bne	a2,a7,afc <handle_exception+0x3c>
     b14:	00005637          	lui	a2,0x5
     b18:	000058b7          	lui	a7,0x5
     b1c:	04000737          	lui	a4,0x4000
     b20:	04000837          	lui	a6,0x4000
     b24:	a0060613          	addi	a2,a2,-1536 # 4a00 <mytime+0x17c>
     b28:	a1388893          	addi	a7,a7,-1517 # 4a13 <mytime+0x18f>
     b2c:	04470713          	addi	a4,a4,68 # 4000044 <_stack_end+0x3ef9868>
     b30:	04080813          	addi	a6,a6,64 # 4000040 <_stack_end+0x3ef9864>
     b34:	04500593          	li	a1,69
     b38:	000106b7          	lui	a3,0x10
     b3c:	00072783          	lw	a5,0(a4)
     b40:	fed7eee3          	bltu	a5,a3,b3c <handle_exception+0x7c>
     b44:	00b82023          	sw	a1,0(a6)
     b48:	00160613          	addi	a2,a2,1
     b4c:	00064583          	lbu	a1,0(a2)
     b50:	ff1616e3          	bne	a2,a7,b3c <handle_exception+0x7c>
     b54:	04000737          	lui	a4,0x4000
     b58:	04470713          	addi	a4,a4,68 # 4000044 <_stack_end+0x3ef9868>
     b5c:	000106b7          	lui	a3,0x10
     b60:	00072783          	lw	a5,0(a4)
     b64:	fed7eee3          	bltu	a5,a3,b60 <handle_exception+0xa0>
     b68:	040007b7          	lui	a5,0x4000
     b6c:	03000693          	li	a3,48
     b70:	04d7a023          	sw	a3,64(a5) # 4000040 <_stack_end+0x3ef9864>
     b74:	04478713          	addi	a4,a5,68
     b78:	000106b7          	lui	a3,0x10
     b7c:	00072783          	lw	a5,0(a4)
     b80:	fed7eee3          	bltu	a5,a3,b7c <handle_exception+0xbc>
     b84:	04000837          	lui	a6,0x4000
     b88:	04080813          	addi	a6,a6,64 # 4000040 <_stack_end+0x3ef9864>
     b8c:	07800793          	li	a5,120
     b90:	04000737          	lui	a4,0x4000
     b94:	00f82023          	sw	a5,0(a6)
     b98:	04470713          	addi	a4,a4,68 # 4000044 <_stack_end+0x3ef9868>
     b9c:	01c00613          	li	a2,28
     ba0:	00900313          	li	t1,9
     ba4:	000106b7          	lui	a3,0x10
     ba8:	ffc00893          	li	a7,-4
     bac:	00c557b3          	srl	a5,a0,a2
     bb0:	00f7f793          	andi	a5,a5,15
     bb4:	03778593          	addi	a1,a5,55
     bb8:	00f36463          	bltu	t1,a5,bc0 <handle_exception+0x100>
     bbc:	03078593          	addi	a1,a5,48
     bc0:	00072783          	lw	a5,0(a4)
     bc4:	fed7eee3          	bltu	a5,a3,bc0 <handle_exception+0x100>
     bc8:	00b82023          	sw	a1,0(a6)
     bcc:	ffc60613          	addi	a2,a2,-4
     bd0:	fd161ee3          	bne	a2,a7,bac <handle_exception+0xec>
     bd4:	04000737          	lui	a4,0x4000
     bd8:	04470713          	addi	a4,a4,68 # 4000044 <_stack_end+0x3ef9868>
     bdc:	000106b7          	lui	a3,0x10
     be0:	00072783          	lw	a5,0(a4)
     be4:	fed7eee3          	bltu	a5,a3,be0 <handle_exception+0x120>
     be8:	040007b7          	lui	a5,0x4000
     bec:	00a00713          	li	a4,10
     bf0:	04e7a023          	sw	a4,64(a5) # 4000040 <_stack_end+0x3ef9864>
     bf4:	0000006f          	j	bf4 <handle_exception+0x134>
     bf8:	00400793          	li	a5,4
     bfc:	0af88a63          	beq	a7,a5,cb0 <handle_exception+0x1f0>
     c00:	0f089463          	bne	a7,a6,ce8 <handle_exception+0x228>
     c04:	04000737          	lui	a4,0x4000
     c08:	04470713          	addi	a4,a4,68 # 4000044 <_stack_end+0x3ef9868>
     c0c:	000106b7          	lui	a3,0x10
     c10:	00072783          	lw	a5,0(a4)
     c14:	fed7eee3          	bltu	a5,a3,c10 <handle_exception+0x150>
     c18:	040007b7          	lui	a5,0x4000
     c1c:	0ff57513          	zext.b	a0,a0
     c20:	04a7a023          	sw	a0,64(a5) # 4000040 <_stack_end+0x3ef9864>
     c24:	00008067          	ret
     c28:	00005637          	lui	a2,0x5
     c2c:	000058b7          	lui	a7,0x5
     c30:	04000737          	lui	a4,0x4000
     c34:	04000837          	lui	a6,0x4000
     c38:	9e060613          	addi	a2,a2,-1568 # 49e0 <mytime+0x15c>
     c3c:	9fc88893          	addi	a7,a7,-1540 # 49fc <mytime+0x178>
     c40:	04470713          	addi	a4,a4,68 # 4000044 <_stack_end+0x3ef9868>
     c44:	04080813          	addi	a6,a6,64 # 4000040 <_stack_end+0x3ef9864>
     c48:	00a00593          	li	a1,10
     c4c:	000106b7          	lui	a3,0x10
     c50:	00072783          	lw	a5,0(a4)
     c54:	fed7eee3          	bltu	a5,a3,c50 <handle_exception+0x190>
     c58:	00b82023          	sw	a1,0(a6)
     c5c:	00160613          	addi	a2,a2,1
     c60:	00064583          	lbu	a1,0(a2)
     c64:	ff1616e3          	bne	a2,a7,c50 <handle_exception+0x190>
     c68:	eadff06f          	j	b14 <handle_exception+0x54>
     c6c:	00005637          	lui	a2,0x5
     c70:	000058b7          	lui	a7,0x5
     c74:	04000737          	lui	a4,0x4000
     c78:	04000837          	lui	a6,0x4000
     c7c:	9bc60613          	addi	a2,a2,-1604 # 49bc <mytime+0x138>
     c80:	9de88893          	addi	a7,a7,-1570 # 49de <mytime+0x15a>
     c84:	04470713          	addi	a4,a4,68 # 4000044 <_stack_end+0x3ef9868>
     c88:	04080813          	addi	a6,a6,64 # 4000040 <_stack_end+0x3ef9864>
     c8c:	00a00593          	li	a1,10
     c90:	000106b7          	lui	a3,0x10
     c94:	00072783          	lw	a5,0(a4)
     c98:	fed7eee3          	bltu	a5,a3,c94 <handle_exception+0x1d4>
     c9c:	00b82023          	sw	a1,0(a6)
     ca0:	00160613          	addi	a2,a2,1
     ca4:	00064583          	lbu	a1,0(a2)
     ca8:	ff1616e3          	bne	a2,a7,c94 <handle_exception+0x1d4>
     cac:	e69ff06f          	j	b14 <handle_exception+0x54>
     cb0:	00054603          	lbu	a2,0(a0)
     cb4:	02060a63          	beqz	a2,ce8 <handle_exception+0x228>
     cb8:	04000737          	lui	a4,0x4000
     cbc:	040005b7          	lui	a1,0x4000
     cc0:	04470713          	addi	a4,a4,68 # 4000044 <_stack_end+0x3ef9868>
     cc4:	04058593          	addi	a1,a1,64 # 4000040 <_stack_end+0x3ef9864>
     cc8:	000106b7          	lui	a3,0x10
     ccc:	00072783          	lw	a5,0(a4)
     cd0:	fed7eee3          	bltu	a5,a3,ccc <handle_exception+0x20c>
     cd4:	00c5a023          	sw	a2,0(a1)
     cd8:	00154603          	lbu	a2,1(a0)
     cdc:	00150513          	addi	a0,a0,1
     ce0:	fe0616e3          	bnez	a2,ccc <handle_exception+0x20c>
     ce4:	00008067          	ret
     ce8:	00008067          	ret

00000cec <nextprime>:
     cec:	00200793          	li	a5,2
     cf0:	02a7c063          	blt	a5,a0,d10 <nextprime+0x24>
     cf4:	00100693          	li	a3,1
     cf8:	00a05863          	blez	a0,d08 <nextprime+0x1c>
     cfc:	fff50793          	addi	a5,a0,-1
     d00:	00f037b3          	snez	a5,a5
     d04:	00278693          	addi	a3,a5,2
     d08:	00068513          	mv	a0,a3
     d0c:	00008067          	ret
     d10:	00150513          	addi	a0,a0,1
     d14:	00156693          	ori	a3,a0,1
     d18:	00300793          	li	a5,3
     d1c:	02f6e733          	rem	a4,a3,a5
     d20:	4016d613          	srai	a2,a3,0x1
     d24:	00260613          	addi	a2,a2,2
     d28:	00178793          	addi	a5,a5,1
     d2c:	00070a63          	beqz	a4,d40 <nextprime+0x54>
     d30:	fcf60ce3          	beq	a2,a5,d08 <nextprime+0x1c>
     d34:	02f6e733          	rem	a4,a3,a5
     d38:	00178793          	addi	a5,a5,1
     d3c:	fe071ae3          	bnez	a4,d30 <nextprime+0x44>
     d40:	00268693          	addi	a3,a3,2 # 10002 <__global_pointer+0xb409>
     d44:	fd5ff06f          	j	d18 <nextprime+0x2c>

00000d48 <strcmp>:
     d48:	00050283          	lb	t0,0(a0)
     d4c:	00058303          	lb	t1,0(a1)

00000d50 <loop>:
     d50:	02629263          	bne	t0,t1,d74 <diff>
     d54:	00028c63          	beqz	t0,d6c <equal>
     d58:	00150513          	addi	a0,a0,1
     d5c:	00158593          	addi	a1,a1,1
     d60:	00050283          	lb	t0,0(a0)
     d64:	00058303          	lb	t1,0(a1)
     d68:	fe9ff06f          	j	d50 <loop>

00000d6c <equal>:
     d6c:	00000513          	li	a0,0
     d70:	00008067          	ret

00000d74 <diff>:
     d74:	40628533          	sub	a0,t0,t1
     d78:	00008067          	ret

00000d7c <room_exits.constprop.0>:
     d7c:	fd010113          	addi	sp,sp,-48
     d80:	02912223          	sw	s1,36(sp)
     d84:	01412c23          	sw	s4,24(sp)
     d88:	01512a23          	sw	s5,20(sp)
     d8c:	01612823          	sw	s6,16(sp)
     d90:	000054b7          	lui	s1,0x5
     d94:	00005b37          	lui	s6,0x5
     d98:	00005ab7          	lui	s5,0x5
     d9c:	00004a37          	lui	s4,0x4
     da0:	03212023          	sw	s2,32(sp)
     da4:	01312e23          	sw	s3,28(sp)
     da8:	01712623          	sw	s7,12(sp)
     dac:	01812423          	sw	s8,8(sp)
     db0:	02112623          	sw	ra,44(sp)
     db4:	02812423          	sw	s0,40(sp)
     db8:	00050993          	mv	s3,a0
     dbc:	c5048493          	addi	s1,s1,-944 # 4c50 <__global_pointer+0x57>
     dc0:	a14b0b13          	addi	s6,s6,-1516 # 4a14 <mytime+0x190>
     dc4:	9dca8a93          	addi	s5,s5,-1572 # 49dc <mytime+0x158>
     dc8:	408a0a13          	addi	s4,s4,1032 # 4408 <rooms>
     dcc:	00005c37          	lui	s8,0x5
     dd0:	00005937          	lui	s2,0x5
     dd4:	00200b93          	li	s7,2
     dd8:	02800413          	li	s0,40
     ddc:	00048513          	mv	a0,s1
     de0:	fff40413          	addi	s0,s0,-1
     de4:	b89ff0ef          	jal	96c <print>
     de8:	fe041ae3          	bnez	s0,ddc <room_exits.constprop.0+0x60>
     dec:	000b0513          	mv	a0,s6
     df0:	b7dff0ef          	jal	96c <print>
     df4:	0049a503          	lw	a0,4(s3)
     df8:	b75ff0ef          	jal	96c <print>
     dfc:	a24c0513          	addi	a0,s8,-1500 # 4a24 <mytime+0x1a0>
     e00:	b6dff0ef          	jal	96c <print>
     e04:	00c9a783          	lw	a5,12(s3)
     e08:	0a079e63          	bnez	a5,ec4 <room_exits.constprop.0+0x148>
     e0c:	0109a783          	lw	a5,16(s3)
     e10:	04079063          	bnez	a5,e50 <room_exits.constprop.0+0xd4>
     e14:	0149a783          	lw	a5,20(s3)
     e18:	06079a63          	bnez	a5,e8c <room_exits.constprop.0+0x110>
     e1c:	86092a23          	sw	zero,-1932(s2) # 4874 <option>
     e20:	00a00513          	li	a0,10
     e24:	b05ff0ef          	jal	928 <delay>
     e28:	87492783          	lw	a5,-1932(s2)
     e2c:	fe078ae3          	beqz	a5,e20 <room_exits.constprop.0+0xa4>
     e30:	fff78793          	addi	a5,a5,-1
     e34:	00fbea63          	bltu	s7,a5,e48 <room_exits.constprop.0+0xcc>
     e38:	00279793          	slli	a5,a5,0x2
     e3c:	00f987b3          	add	a5,s3,a5
     e40:	00c7a783          	lw	a5,12(a5)
     e44:	0a079c63          	bnez	a5,efc <room_exits.constprop.0+0x180>
     e48:	86092a23          	sw	zero,-1932(s2)
     e4c:	f8dff06f          	j	dd8 <room_exits.constprop.0+0x5c>
     e50:	00200513          	li	a0,2
     e54:	b51ff0ef          	jal	9a4 <print_dec>
     e58:	000a8513          	mv	a0,s5
     e5c:	b11ff0ef          	jal	96c <print>
     e60:	0109a703          	lw	a4,16(s3)
     e64:	00371793          	slli	a5,a4,0x3
     e68:	40e787b3          	sub	a5,a5,a4
     e6c:	00479793          	slli	a5,a5,0x4
     e70:	00fa07b3          	add	a5,s4,a5
     e74:	0047a503          	lw	a0,4(a5)
     e78:	af5ff0ef          	jal	96c <print>
     e7c:	00048513          	mv	a0,s1
     e80:	aedff0ef          	jal	96c <print>
     e84:	0149a783          	lw	a5,20(s3)
     e88:	f8078ae3          	beqz	a5,e1c <room_exits.constprop.0+0xa0>
     e8c:	00300513          	li	a0,3
     e90:	b15ff0ef          	jal	9a4 <print_dec>
     e94:	000a8513          	mv	a0,s5
     e98:	ad5ff0ef          	jal	96c <print>
     e9c:	0149a703          	lw	a4,20(s3)
     ea0:	00371793          	slli	a5,a4,0x3
     ea4:	40e787b3          	sub	a5,a5,a4
     ea8:	00479793          	slli	a5,a5,0x4
     eac:	00fa07b3          	add	a5,s4,a5
     eb0:	0047a503          	lw	a0,4(a5)
     eb4:	ab9ff0ef          	jal	96c <print>
     eb8:	00048513          	mv	a0,s1
     ebc:	ab1ff0ef          	jal	96c <print>
     ec0:	f5dff06f          	j	e1c <room_exits.constprop.0+0xa0>
     ec4:	00100513          	li	a0,1
     ec8:	addff0ef          	jal	9a4 <print_dec>
     ecc:	000a8513          	mv	a0,s5
     ed0:	a9dff0ef          	jal	96c <print>
     ed4:	00c9a703          	lw	a4,12(s3)
     ed8:	00371793          	slli	a5,a4,0x3
     edc:	40e787b3          	sub	a5,a5,a4
     ee0:	00479793          	slli	a5,a5,0x4
     ee4:	00fa07b3          	add	a5,s4,a5
     ee8:	0047a503          	lw	a0,4(a5)
     eec:	a81ff0ef          	jal	96c <print>
     ef0:	00048513          	mv	a0,s1
     ef4:	a79ff0ef          	jal	96c <print>
     ef8:	f15ff06f          	j	e0c <room_exits.constprop.0+0x90>
     efc:	00004737          	lui	a4,0x4
     f00:	3fc72583          	lw	a1,1020(a4) # 43fc <current_room>
     f04:	02c12083          	lw	ra,44(sp)
     f08:	02812403          	lw	s0,40(sp)
     f0c:	00005637          	lui	a2,0x5
     f10:	000056b7          	lui	a3,0x5
     f14:	3ef72e23          	sw	a5,1020(a4)
     f18:	86b62423          	sw	a1,-1944(a2) # 4868 <prev_room>
     f1c:	8606a623          	sw	zero,-1940(a3) # 486c <next_room>
     f20:	02412483          	lw	s1,36(sp)
     f24:	02012903          	lw	s2,32(sp)
     f28:	01c12983          	lw	s3,28(sp)
     f2c:	01812a03          	lw	s4,24(sp)
     f30:	01412a83          	lw	s5,20(sp)
     f34:	01012b03          	lw	s6,16(sp)
     f38:	00c12b83          	lw	s7,12(sp)
     f3c:	00812c03          	lw	s8,8(sp)
     f40:	03010113          	addi	sp,sp,48
     f44:	00008067          	ret

00000f48 <combat.part.0>:
     f48:	fa010113          	addi	sp,sp,-96
     f4c:	03712e23          	sw	s7,60(sp)
     f50:	00100793          	li	a5,1
     f54:	00005bb7          	lui	s7,0x5
     f58:	04812c23          	sw	s0,88(sp)
     f5c:	05312623          	sw	s3,76(sp)
     f60:	05412423          	sw	s4,72(sp)
     f64:	05612023          	sw	s6,64(sp)
     f68:	04112e23          	sw	ra,92(sp)
     f6c:	86fba823          	sw	a5,-1936(s7) # 4870 <in_combat>
     f70:	00005b37          	lui	s6,0x5
     f74:	00050993          	mv	s3,a0
     f78:	00058a13          	mv	s4,a1
     f7c:	02800413          	li	s0,40
     f80:	c50b0513          	addi	a0,s6,-944 # 4c50 <__global_pointer+0x57>
     f84:	fff40413          	addi	s0,s0,-1
     f88:	9e5ff0ef          	jal	96c <print>
     f8c:	fe041ae3          	bnez	s0,f80 <combat.part.0+0x38>
     f90:	00005537          	lui	a0,0x5
     f94:	a4450513          	addi	a0,a0,-1468 # 4a44 <mytime+0x1c0>
     f98:	9d5ff0ef          	jal	96c <print>
     f9c:	01c9a503          	lw	a0,28(s3)
     fa0:	9cdff0ef          	jal	96c <print>
     fa4:	00006537          	lui	a0,0x6
     fa8:	ff050513          	addi	a0,a0,-16 # 5ff0 <__global_pointer+0x13f7>
     fac:	9c1ff0ef          	jal	96c <print>
     fb0:	00001537          	lui	a0,0x1
     fb4:	fa050513          	addi	a0,a0,-96 # fa0 <combat.part.0+0x58>
     fb8:	971ff0ef          	jal	928 <delay>
     fbc:	00ca2783          	lw	a5,12(s4)
     fc0:	0cf05a63          	blez	a5,1094 <combat.part.0+0x14c>
     fc4:	05512223          	sw	s5,68(sp)
     fc8:	03812c23          	sw	s8,56(sp)
     fcc:	03912a23          	sw	s9,52(sp)
     fd0:	00005ab7          	lui	s5,0x5
     fd4:	00005cb7          	lui	s9,0x5
     fd8:	00005c37          	lui	s8,0x5
     fdc:	04912a23          	sw	s1,84(sp)
     fe0:	05212823          	sw	s2,80(sp)
     fe4:	03a12823          	sw	s10,48(sp)
     fe8:	a58a8a93          	addi	s5,s5,-1448 # 4a58 <mytime+0x1d4>
     fec:	bccc8c93          	addi	s9,s9,-1076 # 4bcc <mytime+0x348>
     ff0:	bd4c0c13          	addi	s8,s8,-1068 # 4bd4 <mytime+0x350>
     ff4:	c50b0493          	addi	s1,s6,-944
     ff8:	0209a783          	lw	a5,32(s3)
     ffc:	08f05063          	blez	a5,107c <combat.part.0+0x134>
    1000:	02800413          	li	s0,40
    1004:	00048513          	mv	a0,s1
    1008:	fff40413          	addi	s0,s0,-1
    100c:	961ff0ef          	jal	96c <print>
    1010:	fe041ae3          	bnez	s0,1004 <combat.part.0+0xbc>
    1014:	000a8513          	mv	a0,s5
    1018:	955ff0ef          	jal	96c <print>
    101c:	00005937          	lui	s2,0x5
    1020:	87492783          	lw	a5,-1932(s2) # 4874 <option>
    1024:	00079a63          	bnez	a5,1038 <combat.part.0+0xf0>
    1028:	00a00513          	li	a0,10
    102c:	8fdff0ef          	jal	928 <delay>
    1030:	87492783          	lw	a5,-1932(s2)
    1034:	fe078ae3          	beqz	a5,1028 <combat.part.0+0xe0>
    1038:	02800413          	li	s0,40
    103c:	00048513          	mv	a0,s1
    1040:	fff40413          	addi	s0,s0,-1
    1044:	929ff0ef          	jal	96c <print>
    1048:	fe041ae3          	bnez	s0,103c <combat.part.0+0xf4>
    104c:	87492783          	lw	a5,-1932(s2)
    1050:	00100713          	li	a4,1
    1054:	06e78263          	beq	a5,a4,10b8 <combat.part.0+0x170>
    1058:	00200713          	li	a4,2
    105c:	28e78e63          	beq	a5,a4,12f8 <combat.part.0+0x3b0>
    1060:	00300713          	li	a4,3
    1064:	44e78263          	beq	a5,a4,14a8 <combat.part.0+0x560>
    1068:	00400713          	li	a4,4
    106c:	86092a23          	sw	zero,-1932(s2)
    1070:	56e78e63          	beq	a5,a4,15ec <combat.part.0+0x6a4>
    1074:	00ca2783          	lw	a5,12(s4)
    1078:	f8f040e3          	bgtz	a5,ff8 <combat.part.0+0xb0>
    107c:	05412483          	lw	s1,84(sp)
    1080:	05012903          	lw	s2,80(sp)
    1084:	04412a83          	lw	s5,68(sp)
    1088:	03812c03          	lw	s8,56(sp)
    108c:	03412c83          	lw	s9,52(sp)
    1090:	03012d03          	lw	s10,48(sp)
    1094:	05c12083          	lw	ra,92(sp)
    1098:	05812403          	lw	s0,88(sp)
    109c:	860ba823          	sw	zero,-1936(s7)
    10a0:	04c12983          	lw	s3,76(sp)
    10a4:	04812a03          	lw	s4,72(sp)
    10a8:	04012b03          	lw	s6,64(sp)
    10ac:	03c12b83          	lw	s7,60(sp)
    10b0:	06010113          	addi	sp,sp,96
    10b4:	00008067          	ret
    10b8:	00005537          	lui	a0,0x5
    10bc:	a9850513          	addi	a0,a0,-1384 # 4a98 <mytime+0x214>
    10c0:	86092a23          	sw	zero,-1932(s2)
    10c4:	8a9ff0ef          	jal	96c <print>
    10c8:	7d000513          	li	a0,2000
    10cc:	85dff0ef          	jal	928 <delay>
    10d0:	014a2703          	lw	a4,20(s4)
    10d4:	00500793          	li	a5,5
    10d8:	62f70e63          	beq	a4,a5,1714 <combat.part.0+0x7cc>
    10dc:	00005537          	lui	a0,0x5
    10e0:	ad050513          	addi	a0,a0,-1328 # 4ad0 <mytime+0x24c>
    10e4:	889ff0ef          	jal	96c <print>
    10e8:	01c9a503          	lw	a0,28(s3)
    10ec:	881ff0ef          	jal	96c <print>
    10f0:	00005537          	lui	a0,0x5
    10f4:	ac050513          	addi	a0,a0,-1344 # 4ac0 <mytime+0x23c>
    10f8:	875ff0ef          	jal	96c <print>
    10fc:	0209a783          	lw	a5,32(s3)
    1100:	014a2703          	lw	a4,20(s4)
    1104:	7d000513          	li	a0,2000
    1108:	40e787b3          	sub	a5,a5,a4
    110c:	02f9a023          	sw	a5,32(s3)
    1110:	819ff0ef          	jal	928 <delay>
    1114:	0209a683          	lw	a3,32(s3)
    1118:	68d05c63          	blez	a3,17b0 <combat.part.0+0x868>
    111c:	0249a703          	lw	a4,36(s3)
    1120:	41f75793          	srai	a5,a4,0x1f
    1124:	0037f793          	andi	a5,a5,3
    1128:	00e787b3          	add	a5,a5,a4
    112c:	4027d793          	srai	a5,a5,0x2
    1130:	5ed7d863          	bge	a5,a3,1720 <combat.part.0+0x7d8>
    1134:	01f75793          	srli	a5,a4,0x1f
    1138:	00e787b3          	add	a5,a5,a4
    113c:	4017d793          	srai	a5,a5,0x1
    1140:	60d7de63          	bge	a5,a3,175c <combat.part.0+0x814>
    1144:	00005437          	lui	s0,0x5
    1148:	8a040413          	addi	s0,s0,-1888 # 48a0 <mytime+0x1c>
    114c:	00004937          	lui	s2,0x4
    1150:	00810d13          	addi	s10,sp,8
    1154:	000c8513          	mv	a0,s9
    1158:	815ff0ef          	jal	96c <print>
    115c:	01c9a503          	lw	a0,28(s3)
    1160:	80dff0ef          	jal	96c <print>
    1164:	000c0513          	mv	a0,s8
    1168:	805ff0ef          	jal	96c <print>
    116c:	7d000513          	li	a0,2000
    1170:	fb8ff0ef          	jal	928 <delay>
    1174:	00005537          	lui	a0,0x5
    1178:	c0050513          	addi	a0,a0,-1024 # 4c00 <__global_pointer+0x7>
    117c:	ff0ff0ef          	jal	96c <print>
    1180:	01c9a503          	lw	a0,28(s3)
    1184:	fe8ff0ef          	jal	96c <print>
    1188:	00005537          	lui	a0,0x5
    118c:	c0850513          	addi	a0,a0,-1016 # 4c08 <__global_pointer+0xf>
    1190:	fdcff0ef          	jal	96c <print>
    1194:	3e800513          	li	a0,1000
    1198:	f90ff0ef          	jal	928 <delay>
    119c:	0289a583          	lw	a1,40(s3)
    11a0:	000a0513          	mv	a0,s4
    11a4:	40b005b3          	neg	a1,a1
    11a8:	830ff0ef          	jal	1d8 <setP_hp>
    11ac:	00ca2683          	lw	a3,12(s4)
    11b0:	66666737          	lui	a4,0x66666
    11b4:	66770713          	addi	a4,a4,1639 # 66666667 <_stack_end+0x6655fe8b>
    11b8:	02e69733          	mulh	a4,a3,a4
    11bc:	00442783          	lw	a5,4(s0)
    11c0:	41f6d613          	srai	a2,a3,0x1f
    11c4:	00042803          	lw	a6,0(s0)
    11c8:	00c42583          	lw	a1,12(s0)
    11cc:	40a92023          	sw	a0,1024(s2) # 4400 <alive>
    11d0:	00842503          	lw	a0,8(s0)
    11d4:	00f12623          	sw	a5,12(sp)
    11d8:	01012423          	sw	a6,8(sp)
    11dc:	00a12823          	sw	a0,16(sp)
    11e0:	40275713          	srai	a4,a4,0x2
    11e4:	40c70733          	sub	a4,a4,a2
    11e8:	00271793          	slli	a5,a4,0x2
    11ec:	00e787b3          	add	a5,a5,a4
    11f0:	00b12a23          	sw	a1,20(sp)
    11f4:	01042e03          	lw	t3,16(s0)
    11f8:	02442583          	lw	a1,36(s0)
    11fc:	01442303          	lw	t1,20(s0)
    1200:	01842883          	lw	a7,24(s0)
    1204:	01c42803          	lw	a6,28(s0)
    1208:	02042503          	lw	a0,32(s0)
    120c:	00179793          	slli	a5,a5,0x1
    1210:	40f687b3          	sub	a5,a3,a5
    1214:	00279793          	slli	a5,a5,0x2
    1218:	01c12c23          	sw	t3,24(sp)
    121c:	00612e23          	sw	t1,28(sp)
    1220:	03112023          	sw	a7,32(sp)
    1224:	03012223          	sw	a6,36(sp)
    1228:	02a12423          	sw	a0,40(sp)
    122c:	02b12623          	sw	a1,44(sp)
    1230:	00fd07b3          	add	a5,s10,a5
    1234:	0007a583          	lw	a1,0(a5)
    1238:	040007b7          	lui	a5,0x4000
    123c:	04b7a823          	sw	a1,80(a5) # 4000050 <_stack_end+0x3ef9874>
    1240:	00900793          	li	a5,9
    1244:	24d7da63          	bge	a5,a3,1498 <combat.part.0+0x550>
    1248:	ccccd5b7          	lui	a1,0xccccd
    124c:	ccd58593          	addi	a1,a1,-819 # cccccccd <_stack_end+0xccbc64f1>
    1250:	02b735b3          	mulhu	a1,a4,a1
    1254:	04000537          	lui	a0,0x4000
    1258:	06300813          	li	a6,99
    125c:	0035d593          	srli	a1,a1,0x3
    1260:	00259793          	slli	a5,a1,0x2
    1264:	00b787b3          	add	a5,a5,a1
    1268:	00179793          	slli	a5,a5,0x1
    126c:	40f707b3          	sub	a5,a4,a5
    1270:	00279793          	slli	a5,a5,0x2
    1274:	00fd07b3          	add	a5,s10,a5
    1278:	0007a783          	lw	a5,0(a5)
    127c:	06f52023          	sw	a5,96(a0) # 4000060 <_stack_end+0x3ef9884>
    1280:	40d84063          	blt	a6,a3,1680 <combat.part.0+0x738>
    1284:	040007b7          	lui	a5,0x4000
    1288:	0ff00713          	li	a4,255
    128c:	06e7a823          	sw	a4,112(a5) # 4000070 <_stack_end+0x3ef9894>
    1290:	040007b7          	lui	a5,0x4000
    1294:	0ff00693          	li	a3,255
    1298:	08d7a023          	sw	a3,128(a5) # 4000080 <_stack_end+0x3ef98a4>
    129c:	08900693          	li	a3,137
    12a0:	0ad7a023          	sw	a3,160(a5)
    12a4:	08c00713          	li	a4,140
    12a8:	00005537          	lui	a0,0x5
    12ac:	ce850513          	addi	a0,a0,-792 # 4ce8 <__global_pointer+0xef>
    12b0:	08e7a823          	sw	a4,144(a5)
    12b4:	eb8ff0ef          	jal	96c <print>
    12b8:	0289a503          	lw	a0,40(s3)
    12bc:	ee8ff0ef          	jal	9a4 <print_dec>
    12c0:	00005537          	lui	a0,0x5
    12c4:	cf450513          	addi	a0,a0,-780 # 4cf4 <__global_pointer+0xfb>
    12c8:	ea4ff0ef          	jal	96c <print>
    12cc:	7d000513          	li	a0,2000
    12d0:	e58ff0ef          	jal	928 <delay>
    12d4:	40092783          	lw	a5,1024(s2)
    12d8:	4a078e63          	beqz	a5,1794 <combat.part.0+0x84c>
    12dc:	00005537          	lui	a0,0x5
    12e0:	d3c50513          	addi	a0,a0,-708 # 4d3c <__global_pointer+0x143>
    12e4:	e88ff0ef          	jal	96c <print>
    12e8:	00001537          	lui	a0,0x1
    12ec:	fa050513          	addi	a0,a0,-96 # fa0 <combat.part.0+0x58>
    12f0:	e38ff0ef          	jal	928 <delay>
    12f4:	d81ff06f          	j	1074 <combat.part.0+0x12c>
    12f8:	00005537          	lui	a0,0x5
    12fc:	b6850513          	addi	a0,a0,-1176 # 4b68 <mytime+0x2e4>
    1300:	86092a23          	sw	zero,-1932(s2)
    1304:	e68ff0ef          	jal	96c <print>
    1308:	7d000513          	li	a0,2000
    130c:	e1cff0ef          	jal	928 <delay>
    1310:	00005537          	lui	a0,0x5
    1314:	b8050513          	addi	a0,a0,-1152 # 4b80 <mytime+0x2fc>
    1318:	e54ff0ef          	jal	96c <print>
    131c:	00001537          	lui	a0,0x1
    1320:	fa050513          	addi	a0,a0,-96 # fa0 <combat.part.0+0x58>
    1324:	e04ff0ef          	jal	928 <delay>
    1328:	00005537          	lui	a0,0x5
    132c:	bcc50513          	addi	a0,a0,-1076 # 4bcc <mytime+0x348>
    1330:	e3cff0ef          	jal	96c <print>
    1334:	01c9a503          	lw	a0,28(s3)
    1338:	00005437          	lui	s0,0x5
    133c:	8a040413          	addi	s0,s0,-1888 # 48a0 <mytime+0x1c>
    1340:	e2cff0ef          	jal	96c <print>
    1344:	00005537          	lui	a0,0x5
    1348:	bd450513          	addi	a0,a0,-1068 # 4bd4 <mytime+0x350>
    134c:	e20ff0ef          	jal	96c <print>
    1350:	7d000513          	li	a0,2000
    1354:	dd4ff0ef          	jal	928 <delay>
    1358:	00005537          	lui	a0,0x5
    135c:	c0050513          	addi	a0,a0,-1024 # 4c00 <__global_pointer+0x7>
    1360:	e0cff0ef          	jal	96c <print>
    1364:	01c9a503          	lw	a0,28(s3)
    1368:	00810d13          	addi	s10,sp,8
    136c:	00004937          	lui	s2,0x4
    1370:	dfcff0ef          	jal	96c <print>
    1374:	00005537          	lui	a0,0x5
    1378:	c0850513          	addi	a0,a0,-1016 # 4c08 <__global_pointer+0xf>
    137c:	df0ff0ef          	jal	96c <print>
    1380:	3e800513          	li	a0,1000
    1384:	da4ff0ef          	jal	928 <delay>
    1388:	0289a783          	lw	a5,40(s3)
    138c:	000a0513          	mv	a0,s4
    1390:	01f7d593          	srli	a1,a5,0x1f
    1394:	00f585b3          	add	a1,a1,a5
    1398:	4015d593          	srai	a1,a1,0x1
    139c:	40b005b3          	neg	a1,a1
    13a0:	e39fe0ef          	jal	1d8 <setP_hp>
    13a4:	00ca2683          	lw	a3,12(s4)
    13a8:	66666737          	lui	a4,0x66666
    13ac:	66770713          	addi	a4,a4,1639 # 66666667 <_stack_end+0x6655fe8b>
    13b0:	02e69733          	mulh	a4,a3,a4
    13b4:	00442583          	lw	a1,4(s0)
    13b8:	00042803          	lw	a6,0(s0)
    13bc:	00842783          	lw	a5,8(s0)
    13c0:	00b12623          	sw	a1,12(sp)
    13c4:	00c42583          	lw	a1,12(s0)
    13c8:	01012423          	sw	a6,8(sp)
    13cc:	01042803          	lw	a6,16(s0)
    13d0:	00b12a23          	sw	a1,20(sp)
    13d4:	01442583          	lw	a1,20(s0)
    13d8:	40275713          	srai	a4,a4,0x2
    13dc:	41f6d613          	srai	a2,a3,0x1f
    13e0:	00f12823          	sw	a5,16(sp)
    13e4:	01012c23          	sw	a6,24(sp)
    13e8:	00b12e23          	sw	a1,28(sp)
    13ec:	01842803          	lw	a6,24(s0)
    13f0:	01c42583          	lw	a1,28(s0)
    13f4:	40c707b3          	sub	a5,a4,a2
    13f8:	00279713          	slli	a4,a5,0x2
    13fc:	00f70733          	add	a4,a4,a5
    1400:	03012023          	sw	a6,32(sp)
    1404:	02b12223          	sw	a1,36(sp)
    1408:	02042803          	lw	a6,32(s0)
    140c:	02442583          	lw	a1,36(s0)
    1410:	00171713          	slli	a4,a4,0x1
    1414:	40e68733          	sub	a4,a3,a4
    1418:	00271713          	slli	a4,a4,0x2
    141c:	03012423          	sw	a6,40(sp)
    1420:	02b12623          	sw	a1,44(sp)
    1424:	00ed0733          	add	a4,s10,a4
    1428:	00072583          	lw	a1,0(a4)
    142c:	40a92023          	sw	a0,1024(s2) # 4400 <alive>
    1430:	04000737          	lui	a4,0x4000
    1434:	04b72823          	sw	a1,80(a4) # 4000050 <_stack_end+0x3ef9874>
    1438:	00900713          	li	a4,9
    143c:	1cd74e63          	blt	a4,a3,1618 <combat.part.0+0x6d0>
    1440:	040007b7          	lui	a5,0x4000
    1444:	0ff00713          	li	a4,255
    1448:	06e7a023          	sw	a4,96(a5) # 4000060 <_stack_end+0x3ef9884>
    144c:	040007b7          	lui	a5,0x4000
    1450:	0ff00713          	li	a4,255
    1454:	06e7a823          	sw	a4,112(a5) # 4000070 <_stack_end+0x3ef9894>
    1458:	040007b7          	lui	a5,0x4000
    145c:	0ff00693          	li	a3,255
    1460:	08d7a023          	sw	a3,128(a5) # 4000080 <_stack_end+0x3ef98a4>
    1464:	08900693          	li	a3,137
    1468:	0ad7a023          	sw	a3,160(a5)
    146c:	08c00713          	li	a4,140
    1470:	00005537          	lui	a0,0x5
    1474:	08e7a823          	sw	a4,144(a5)
    1478:	cb850513          	addi	a0,a0,-840 # 4cb8 <__global_pointer+0xbf>
    147c:	cf0ff0ef          	jal	96c <print>
    1480:	0289a783          	lw	a5,40(s3)
    1484:	01f7d513          	srli	a0,a5,0x1f
    1488:	00f50533          	add	a0,a0,a5
    148c:	40155513          	srai	a0,a0,0x1
    1490:	d14ff0ef          	jal	9a4 <print_dec>
    1494:	e2dff06f          	j	12c0 <combat.part.0+0x378>
    1498:	040007b7          	lui	a5,0x4000
    149c:	0ff00713          	li	a4,255
    14a0:	06e7a023          	sw	a4,96(a5) # 4000060 <_stack_end+0x3ef9884>
    14a4:	de1ff06f          	j	1284 <combat.part.0+0x33c>
    14a8:	000055b7          	lui	a1,0x5
    14ac:	c1458593          	addi	a1,a1,-1004 # 4c14 <__global_pointer+0x1b>
    14b0:	000a0513          	mv	a0,s4
    14b4:	86092a23          	sw	zero,-1932(s2)
    14b8:	e49fe0ef          	jal	300 <peek_inventory>
    14bc:	00050413          	mv	s0,a0
    14c0:	2a050e63          	beqz	a0,177c <combat.part.0+0x834>
    14c4:	00005537          	lui	a0,0x5
    14c8:	c2450513          	addi	a0,a0,-988 # 4c24 <__global_pointer+0x2b>
    14cc:	ca0ff0ef          	jal	96c <print>
    14d0:	3e800513          	li	a0,1000
    14d4:	c54ff0ef          	jal	928 <delay>
    14d8:	00005537          	lui	a0,0x5
    14dc:	c5450513          	addi	a0,a0,-940 # 4c54 <__global_pointer+0x5b>
    14e0:	c8cff0ef          	jal	96c <print>
    14e4:	00040593          	mv	a1,s0
    14e8:	000a0513          	mv	a0,s4
    14ec:	fd9fe0ef          	jal	4c4 <remove_from_inventory>
    14f0:	03200593          	li	a1,50
    14f4:	000a0513          	mv	a0,s4
    14f8:	ce1fe0ef          	jal	1d8 <setP_hp>
    14fc:	00ca2683          	lw	a3,12(s4)
    1500:	66666737          	lui	a4,0x66666
    1504:	66770713          	addi	a4,a4,1639 # 66666667 <_stack_end+0x6655fe8b>
    1508:	02e69733          	mulh	a4,a3,a4
    150c:	00005437          	lui	s0,0x5
    1510:	8a040413          	addi	s0,s0,-1888 # 48a0 <mytime+0x1c>
    1514:	00042803          	lw	a6,0(s0)
    1518:	00442583          	lw	a1,4(s0)
    151c:	00842783          	lw	a5,8(s0)
    1520:	01012423          	sw	a6,8(sp)
    1524:	00b12623          	sw	a1,12(sp)
    1528:	00c42803          	lw	a6,12(s0)
    152c:	01042583          	lw	a1,16(s0)
    1530:	40275713          	srai	a4,a4,0x2
    1534:	41f6d613          	srai	a2,a3,0x1f
    1538:	00f12823          	sw	a5,16(sp)
    153c:	01012a23          	sw	a6,20(sp)
    1540:	00b12c23          	sw	a1,24(sp)
    1544:	01842803          	lw	a6,24(s0)
    1548:	01c42583          	lw	a1,28(s0)
    154c:	40c707b3          	sub	a5,a4,a2
    1550:	00279713          	slli	a4,a5,0x2
    1554:	00f70733          	add	a4,a4,a5
    1558:	03012023          	sw	a6,32(sp)
    155c:	02b12223          	sw	a1,36(sp)
    1560:	01442883          	lw	a7,20(s0)
    1564:	02442583          	lw	a1,36(s0)
    1568:	02042803          	lw	a6,32(s0)
    156c:	00171713          	slli	a4,a4,0x1
    1570:	40e68733          	sub	a4,a3,a4
    1574:	00271713          	slli	a4,a4,0x2
    1578:	00810d13          	addi	s10,sp,8
    157c:	01112e23          	sw	a7,28(sp)
    1580:	03012423          	sw	a6,40(sp)
    1584:	02b12623          	sw	a1,44(sp)
    1588:	00ed0733          	add	a4,s10,a4
    158c:	00072583          	lw	a1,0(a4)
    1590:	00004937          	lui	s2,0x4
    1594:	04000737          	lui	a4,0x4000
    1598:	40a92023          	sw	a0,1024(s2) # 4400 <alive>
    159c:	04b72823          	sw	a1,80(a4) # 4000050 <_stack_end+0x3ef9874>
    15a0:	00900713          	li	a4,9
    15a4:	10d74463          	blt	a4,a3,16ac <combat.part.0+0x764>
    15a8:	040007b7          	lui	a5,0x4000
    15ac:	0ff00713          	li	a4,255
    15b0:	06e7a023          	sw	a4,96(a5) # 4000060 <_stack_end+0x3ef9884>
    15b4:	040007b7          	lui	a5,0x4000
    15b8:	0ff00713          	li	a4,255
    15bc:	06e7a823          	sw	a4,112(a5) # 4000070 <_stack_end+0x3ef9894>
    15c0:	040007b7          	lui	a5,0x4000
    15c4:	0ff00693          	li	a3,255
    15c8:	08d7a023          	sw	a3,128(a5) # 4000080 <_stack_end+0x3ef98a4>
    15cc:	08900693          	li	a3,137
    15d0:	0ad7a023          	sw	a3,160(a5)
    15d4:	08c00713          	li	a4,140
    15d8:	00001537          	lui	a0,0x1
    15dc:	08e7a823          	sw	a4,144(a5)
    15e0:	fa050513          	addi	a0,a0,-96 # fa0 <combat.part.0+0x58>
    15e4:	b44ff0ef          	jal	928 <delay>
    15e8:	b6dff06f          	j	1154 <combat.part.0+0x20c>
    15ec:	00005537          	lui	a0,0x5
    15f0:	c8c50513          	addi	a0,a0,-884 # 4c8c <__global_pointer+0x93>
    15f4:	b78ff0ef          	jal	96c <print>
    15f8:	00001537          	lui	a0,0x1
    15fc:	fa050513          	addi	a0,a0,-96 # fa0 <combat.part.0+0x58>
    1600:	b28ff0ef          	jal	928 <delay>
    1604:	000057b7          	lui	a5,0x5
    1608:	8687a703          	lw	a4,-1944(a5) # 4868 <prev_room>
    160c:	000057b7          	lui	a5,0x5
    1610:	86e7a623          	sw	a4,-1940(a5) # 486c <next_room>
    1614:	a69ff06f          	j	107c <combat.part.0+0x134>
    1618:	ccccd737          	lui	a4,0xccccd
    161c:	ccd70713          	addi	a4,a4,-819 # cccccccd <_stack_end+0xccbc64f1>
    1620:	02e7b733          	mulhu	a4,a5,a4
    1624:	04000537          	lui	a0,0x4000
    1628:	06300813          	li	a6,99
    162c:	00375713          	srli	a4,a4,0x3
    1630:	00271593          	slli	a1,a4,0x2
    1634:	00e58733          	add	a4,a1,a4
    1638:	00171713          	slli	a4,a4,0x1
    163c:	40e78733          	sub	a4,a5,a4
    1640:	00271713          	slli	a4,a4,0x2
    1644:	00ed0733          	add	a4,s10,a4
    1648:	00072783          	lw	a5,0(a4)
    164c:	06f52023          	sw	a5,96(a0) # 4000060 <_stack_end+0x3ef9884>
    1650:	ded85ee3          	bge	a6,a3,144c <combat.part.0+0x504>
    1654:	51eb87b7          	lui	a5,0x51eb8
    1658:	51f78793          	addi	a5,a5,1311 # 51eb851f <_stack_end+0x51db1d43>
    165c:	02f697b3          	mulh	a5,a3,a5
    1660:	04000737          	lui	a4,0x4000
    1664:	4057d793          	srai	a5,a5,0x5
    1668:	40c787b3          	sub	a5,a5,a2
    166c:	00279793          	slli	a5,a5,0x2
    1670:	00fd07b3          	add	a5,s10,a5
    1674:	0007a783          	lw	a5,0(a5)
    1678:	06f72823          	sw	a5,112(a4) # 4000070 <_stack_end+0x3ef9894>
    167c:	dddff06f          	j	1458 <combat.part.0+0x510>
    1680:	51eb87b7          	lui	a5,0x51eb8
    1684:	51f78793          	addi	a5,a5,1311 # 51eb851f <_stack_end+0x51db1d43>
    1688:	02f697b3          	mulh	a5,a3,a5
    168c:	04000737          	lui	a4,0x4000
    1690:	4057d793          	srai	a5,a5,0x5
    1694:	40c787b3          	sub	a5,a5,a2
    1698:	00279793          	slli	a5,a5,0x2
    169c:	00fd07b3          	add	a5,s10,a5
    16a0:	0007a783          	lw	a5,0(a5)
    16a4:	06f72823          	sw	a5,112(a4) # 4000070 <_stack_end+0x3ef9894>
    16a8:	be9ff06f          	j	1290 <combat.part.0+0x348>
    16ac:	ccccd737          	lui	a4,0xccccd
    16b0:	ccd70713          	addi	a4,a4,-819 # cccccccd <_stack_end+0xccbc64f1>
    16b4:	02e7b733          	mulhu	a4,a5,a4
    16b8:	04000537          	lui	a0,0x4000
    16bc:	06300813          	li	a6,99
    16c0:	00375713          	srli	a4,a4,0x3
    16c4:	00271593          	slli	a1,a4,0x2
    16c8:	00e58733          	add	a4,a1,a4
    16cc:	00171713          	slli	a4,a4,0x1
    16d0:	40e78733          	sub	a4,a5,a4
    16d4:	00271713          	slli	a4,a4,0x2
    16d8:	00ed0733          	add	a4,s10,a4
    16dc:	00072783          	lw	a5,0(a4)
    16e0:	06f52023          	sw	a5,96(a0) # 4000060 <_stack_end+0x3ef9884>
    16e4:	ecd858e3          	bge	a6,a3,15b4 <combat.part.0+0x66c>
    16e8:	51eb87b7          	lui	a5,0x51eb8
    16ec:	51f78793          	addi	a5,a5,1311 # 51eb851f <_stack_end+0x51db1d43>
    16f0:	02f697b3          	mulh	a5,a3,a5
    16f4:	04000737          	lui	a4,0x4000
    16f8:	4057d793          	srai	a5,a5,0x5
    16fc:	40c787b3          	sub	a5,a5,a2
    1700:	00279793          	slli	a5,a5,0x2
    1704:	00fd07b3          	add	a5,s10,a5
    1708:	0007a783          	lw	a5,0(a5)
    170c:	06f72823          	sw	a5,112(a4) # 4000070 <_stack_end+0x3ef9894>
    1710:	eb1ff06f          	j	15c0 <combat.part.0+0x678>
    1714:	00005537          	lui	a0,0x5
    1718:	ab050513          	addi	a0,a0,-1360 # 4ab0 <mytime+0x22c>
    171c:	9c9ff06f          	j	10e4 <combat.part.0+0x19c>
    1720:	00005537          	lui	a0,0x5
    1724:	b2050513          	addi	a0,a0,-1248 # 4b20 <mytime+0x29c>
    1728:	a44ff0ef          	jal	96c <print>
    172c:	01c9a503          	lw	a0,28(s3)
    1730:	a3cff0ef          	jal	96c <print>
    1734:	00005537          	lui	a0,0x5
    1738:	b3450513          	addi	a0,a0,-1228 # 4b34 <mytime+0x2b0>
    173c:	a30ff0ef          	jal	96c <print>
    1740:	7d000513          	li	a0,2000
    1744:	00005437          	lui	s0,0x5
    1748:	9e0ff0ef          	jal	928 <delay>
    174c:	00810d13          	addi	s10,sp,8
    1750:	8a040413          	addi	s0,s0,-1888 # 48a0 <mytime+0x1c>
    1754:	00004937          	lui	s2,0x4
    1758:	9fdff06f          	j	1154 <combat.part.0+0x20c>
    175c:	00005537          	lui	a0,0x5
    1760:	b2050513          	addi	a0,a0,-1248 # 4b20 <mytime+0x29c>
    1764:	a08ff0ef          	jal	96c <print>
    1768:	01c9a503          	lw	a0,28(s3)
    176c:	a00ff0ef          	jal	96c <print>
    1770:	00005537          	lui	a0,0x5
    1774:	b5850513          	addi	a0,a0,-1192 # 4b58 <mytime+0x2d4>
    1778:	fc5ff06f          	j	173c <combat.part.0+0x7f4>
    177c:	00005537          	lui	a0,0x5
    1780:	c6850513          	addi	a0,a0,-920 # 4c68 <__global_pointer+0x6f>
    1784:	9e8ff0ef          	jal	96c <print>
    1788:	7d000513          	li	a0,2000
    178c:	99cff0ef          	jal	928 <delay>
    1790:	8e5ff06f          	j	1074 <combat.part.0+0x12c>
    1794:	00005537          	lui	a0,0x5
    1798:	d0050513          	addi	a0,a0,-768 # 4d00 <__global_pointer+0x107>
    179c:	9d0ff0ef          	jal	96c <print>
    17a0:	00001537          	lui	a0,0x1
    17a4:	fa050513          	addi	a0,a0,-96 # fa0 <combat.part.0+0x58>
    17a8:	980ff0ef          	jal	928 <delay>
    17ac:	8d1ff06f          	j	107c <combat.part.0+0x134>
    17b0:	00005537          	lui	a0,0x5
    17b4:	af050513          	addi	a0,a0,-1296 # 4af0 <mytime+0x26c>
    17b8:	9b4ff0ef          	jal	96c <print>
    17bc:	01c9a503          	lw	a0,28(s3)
    17c0:	9acff0ef          	jal	96c <print>
    17c4:	00005537          	lui	a0,0x5
    17c8:	b0450513          	addi	a0,a0,-1276 # 4b04 <mytime+0x280>
    17cc:	9a0ff0ef          	jal	96c <print>
    17d0:	0309a503          	lw	a0,48(s3)
    17d4:	998ff0ef          	jal	96c <print>
    17d8:	c50b0513          	addi	a0,s6,-944
    17dc:	990ff0ef          	jal	96c <print>
    17e0:	0309a583          	lw	a1,48(s3)
    17e4:	000a0513          	mv	a0,s4
    17e8:	b81fe0ef          	jal	368 <add_to_inventory>
    17ec:	00001537          	lui	a0,0x1
    17f0:	77050513          	addi	a0,a0,1904 # 1770 <combat.part.0+0x828>
    17f4:	934ff0ef          	jal	928 <delay>
    17f8:	885ff06f          	j	107c <combat.part.0+0x134>

000017fc <clearsc>:
    17fc:	ff010113          	addi	sp,sp,-16
    1800:	00912223          	sw	s1,4(sp)
    1804:	000054b7          	lui	s1,0x5
    1808:	00812423          	sw	s0,8(sp)
    180c:	00112623          	sw	ra,12(sp)
    1810:	c5048493          	addi	s1,s1,-944 # 4c50 <__global_pointer+0x57>
    1814:	02800413          	li	s0,40
    1818:	00048513          	mv	a0,s1
    181c:	fff40413          	addi	s0,s0,-1
    1820:	94cff0ef          	jal	96c <print>
    1824:	fe041ae3          	bnez	s0,1818 <clearsc+0x1c>
    1828:	00c12083          	lw	ra,12(sp)
    182c:	00812403          	lw	s0,8(sp)
    1830:	00412483          	lw	s1,4(sp)
    1834:	01010113          	addi	sp,sp,16
    1838:	00008067          	ret

0000183c <set_leds>:
    183c:	040007b7          	lui	a5,0x4000
    1840:	00a7a023          	sw	a0,0(a5) # 4000000 <_stack_end+0x3ef9824>
    1844:	00008067          	ret

00001848 <set_displays>:
    1848:	004007b7          	lui	a5,0x400
    184c:	00578793          	addi	a5,a5,5 # 400005 <_stack_end+0x2f9829>
    1850:	00f50533          	add	a0,a0,a5
    1854:	00451513          	slli	a0,a0,0x4
    1858:	00b52023          	sw	a1,0(a0)
    185c:	00008067          	ret

00001860 <get_sw>:
    1860:	040007b7          	lui	a5,0x4000
    1864:	0107a503          	lw	a0,16(a5) # 4000010 <_stack_end+0x3ef9834>
    1868:	3ff57513          	andi	a0,a0,1023
    186c:	00008067          	ret

00001870 <get_btn>:
    1870:	040007b7          	lui	a5,0x4000
    1874:	0d07a503          	lw	a0,208(a5) # 40000d0 <_stack_end+0x3ef98f4>
    1878:	0c07a823          	sw	zero,208(a5)
    187c:	00157513          	andi	a0,a0,1
    1880:	00008067          	ret

00001884 <hp2display>:
    1884:	666667b7          	lui	a5,0x66666
    1888:	66778793          	addi	a5,a5,1639 # 66666667 <_stack_end+0x6655fe8b>
    188c:	02f517b3          	mulh	a5,a0,a5
    1890:	00005737          	lui	a4,0x5
    1894:	8a070713          	addi	a4,a4,-1888 # 48a0 <mytime+0x1c>
    1898:	41f55613          	srai	a2,a0,0x1f
    189c:	00072803          	lw	a6,0(a4)
    18a0:	fd010113          	addi	sp,sp,-48
    18a4:	00472283          	lw	t0,4(a4)
    18a8:	01012423          	sw	a6,8(sp)
    18ac:	00872f83          	lw	t6,8(a4)
    18b0:	00c72f03          	lw	t5,12(a4)
    18b4:	4027d793          	srai	a5,a5,0x2
    18b8:	40c787b3          	sub	a5,a5,a2
    18bc:	00279693          	slli	a3,a5,0x2
    18c0:	00f686b3          	add	a3,a3,a5
    18c4:	01072e83          	lw	t4,16(a4)
    18c8:	01472e03          	lw	t3,20(a4)
    18cc:	01872303          	lw	t1,24(a4)
    18d0:	01c72883          	lw	a7,28(a4)
    18d4:	02072803          	lw	a6,32(a4)
    18d8:	00169693          	slli	a3,a3,0x1
    18dc:	02472703          	lw	a4,36(a4)
    18e0:	40d506b3          	sub	a3,a0,a3
    18e4:	00269693          	slli	a3,a3,0x2
    18e8:	00810593          	addi	a1,sp,8
    18ec:	02e12623          	sw	a4,44(sp)
    18f0:	00512623          	sw	t0,12(sp)
    18f4:	01f12823          	sw	t6,16(sp)
    18f8:	01e12a23          	sw	t5,20(sp)
    18fc:	01d12c23          	sw	t4,24(sp)
    1900:	01c12e23          	sw	t3,28(sp)
    1904:	02612023          	sw	t1,32(sp)
    1908:	03112223          	sw	a7,36(sp)
    190c:	03012423          	sw	a6,40(sp)
    1910:	00b686b3          	add	a3,a3,a1
    1914:	0006a683          	lw	a3,0(a3)
    1918:	04000737          	lui	a4,0x4000
    191c:	04d72823          	sw	a3,80(a4) # 4000050 <_stack_end+0x3ef9874>
    1920:	00900713          	li	a4,9
    1924:	06a75863          	bge	a4,a0,1994 <hp2display+0x110>
    1928:	ccccd737          	lui	a4,0xccccd
    192c:	ccd70713          	addi	a4,a4,-819 # cccccccd <_stack_end+0xccbc64f1>
    1930:	02e7b733          	mulhu	a4,a5,a4
    1934:	04000837          	lui	a6,0x4000
    1938:	06300893          	li	a7,99
    193c:	00375713          	srli	a4,a4,0x3
    1940:	00271693          	slli	a3,a4,0x2
    1944:	00e68733          	add	a4,a3,a4
    1948:	00171713          	slli	a4,a4,0x1
    194c:	40e78733          	sub	a4,a5,a4
    1950:	00271713          	slli	a4,a4,0x2
    1954:	00b70733          	add	a4,a4,a1
    1958:	00072783          	lw	a5,0(a4)
    195c:	06f82023          	sw	a5,96(a6) # 4000060 <_stack_end+0x3ef9884>
    1960:	04a8c263          	blt	a7,a0,19a4 <hp2display+0x120>
    1964:	040007b7          	lui	a5,0x4000
    1968:	0ff00713          	li	a4,255
    196c:	06e7a823          	sw	a4,112(a5) # 4000070 <_stack_end+0x3ef9894>
    1970:	040007b7          	lui	a5,0x4000
    1974:	0ff00693          	li	a3,255
    1978:	08d7a023          	sw	a3,128(a5) # 4000080 <_stack_end+0x3ef98a4>
    197c:	08900693          	li	a3,137
    1980:	0ad7a023          	sw	a3,160(a5)
    1984:	08c00713          	li	a4,140
    1988:	08e7a823          	sw	a4,144(a5)
    198c:	03010113          	addi	sp,sp,48
    1990:	00008067          	ret
    1994:	040007b7          	lui	a5,0x4000
    1998:	0ff00713          	li	a4,255
    199c:	06e7a023          	sw	a4,96(a5) # 4000060 <_stack_end+0x3ef9884>
    19a0:	fc5ff06f          	j	1964 <hp2display+0xe0>
    19a4:	51eb87b7          	lui	a5,0x51eb8
    19a8:	51f78793          	addi	a5,a5,1311 # 51eb851f <_stack_end+0x51db1d43>
    19ac:	02f517b3          	mulh	a5,a0,a5
    19b0:	04000737          	lui	a4,0x4000
    19b4:	4057d793          	srai	a5,a5,0x5
    19b8:	40c787b3          	sub	a5,a5,a2
    19bc:	00279793          	slli	a5,a5,0x2
    19c0:	00b787b3          	add	a5,a5,a1
    19c4:	0007a783          	lw	a5,0(a5)
    19c8:	06f72823          	sw	a5,112(a4) # 4000070 <_stack_end+0x3ef9894>
    19cc:	fa5ff06f          	j	1970 <hp2display+0xec>

000019d0 <set_hp>:
    19d0:	fc010113          	addi	sp,sp,-64
    19d4:	02812c23          	sw	s0,56(sp)
    19d8:	02112e23          	sw	ra,60(sp)
    19dc:	00050413          	mv	s0,a0
    19e0:	ff8fe0ef          	jal	1d8 <setP_hp>
    19e4:	00c42603          	lw	a2,12(s0)
    19e8:	666667b7          	lui	a5,0x66666
    19ec:	66778793          	addi	a5,a5,1639 # 66666667 <_stack_end+0x6655fe8b>
    19f0:	02f617b3          	mulh	a5,a2,a5
    19f4:	00005737          	lui	a4,0x5
    19f8:	8a070713          	addi	a4,a4,-1888 # 48a0 <mytime+0x1c>
    19fc:	41f65593          	srai	a1,a2,0x1f
    1a00:	00072883          	lw	a7,0(a4)
    1a04:	00472803          	lw	a6,4(a4)
    1a08:	00872283          	lw	t0,8(a4)
    1a0c:	01112423          	sw	a7,8(sp)
    1a10:	00c72f83          	lw	t6,12(a4)
    1a14:	02072883          	lw	a7,32(a4)
    1a18:	4027d793          	srai	a5,a5,0x2
    1a1c:	40b787b3          	sub	a5,a5,a1
    1a20:	00279693          	slli	a3,a5,0x2
    1a24:	00f686b3          	add	a3,a3,a5
    1a28:	01072f03          	lw	t5,16(a4)
    1a2c:	01472e83          	lw	t4,20(a4)
    1a30:	01872e03          	lw	t3,24(a4)
    1a34:	01c72303          	lw	t1,28(a4)
    1a38:	00169693          	slli	a3,a3,0x1
    1a3c:	02472703          	lw	a4,36(a4)
    1a40:	40d606b3          	sub	a3,a2,a3
    1a44:	01012623          	sw	a6,12(sp)
    1a48:	00269693          	slli	a3,a3,0x2
    1a4c:	00810813          	addi	a6,sp,8
    1a50:	03112423          	sw	a7,40(sp)
    1a54:	02e12623          	sw	a4,44(sp)
    1a58:	00512823          	sw	t0,16(sp)
    1a5c:	01f12a23          	sw	t6,20(sp)
    1a60:	01e12c23          	sw	t5,24(sp)
    1a64:	01d12e23          	sw	t4,28(sp)
    1a68:	03c12023          	sw	t3,32(sp)
    1a6c:	02612223          	sw	t1,36(sp)
    1a70:	01068733          	add	a4,a3,a6
    1a74:	00072683          	lw	a3,0(a4)
    1a78:	000048b7          	lui	a7,0x4
    1a7c:	04000737          	lui	a4,0x4000
    1a80:	40a8a023          	sw	a0,1024(a7) # 4400 <alive>
    1a84:	04d72823          	sw	a3,80(a4) # 4000050 <_stack_end+0x3ef9874>
    1a88:	00900713          	li	a4,9
    1a8c:	06c75c63          	bge	a4,a2,1b04 <set_hp+0x134>
    1a90:	ccccd737          	lui	a4,0xccccd
    1a94:	ccd70713          	addi	a4,a4,-819 # cccccccd <_stack_end+0xccbc64f1>
    1a98:	02e7b733          	mulhu	a4,a5,a4
    1a9c:	04000537          	lui	a0,0x4000
    1aa0:	06300893          	li	a7,99
    1aa4:	00375713          	srli	a4,a4,0x3
    1aa8:	00271693          	slli	a3,a4,0x2
    1aac:	00e68733          	add	a4,a3,a4
    1ab0:	00171713          	slli	a4,a4,0x1
    1ab4:	40e78733          	sub	a4,a5,a4
    1ab8:	00271713          	slli	a4,a4,0x2
    1abc:	01070733          	add	a4,a4,a6
    1ac0:	00072783          	lw	a5,0(a4)
    1ac4:	06f52023          	sw	a5,96(a0) # 4000060 <_stack_end+0x3ef9884>
    1ac8:	04c8c663          	blt	a7,a2,1b14 <set_hp+0x144>
    1acc:	040007b7          	lui	a5,0x4000
    1ad0:	0ff00713          	li	a4,255
    1ad4:	06e7a823          	sw	a4,112(a5) # 4000070 <_stack_end+0x3ef9894>
    1ad8:	040007b7          	lui	a5,0x4000
    1adc:	0ff00693          	li	a3,255
    1ae0:	08d7a023          	sw	a3,128(a5) # 4000080 <_stack_end+0x3ef98a4>
    1ae4:	03c12083          	lw	ra,60(sp)
    1ae8:	03812403          	lw	s0,56(sp)
    1aec:	08900693          	li	a3,137
    1af0:	0ad7a023          	sw	a3,160(a5)
    1af4:	08c00713          	li	a4,140
    1af8:	08e7a823          	sw	a4,144(a5)
    1afc:	04010113          	addi	sp,sp,64
    1b00:	00008067          	ret
    1b04:	040007b7          	lui	a5,0x4000
    1b08:	0ff00713          	li	a4,255
    1b0c:	06e7a023          	sw	a4,96(a5) # 4000060 <_stack_end+0x3ef9884>
    1b10:	fbdff06f          	j	1acc <set_hp+0xfc>
    1b14:	51eb87b7          	lui	a5,0x51eb8
    1b18:	51f78793          	addi	a5,a5,1311 # 51eb851f <_stack_end+0x51db1d43>
    1b1c:	02f617b3          	mulh	a5,a2,a5
    1b20:	04000737          	lui	a4,0x4000
    1b24:	4057d793          	srai	a5,a5,0x5
    1b28:	40b787b3          	sub	a5,a5,a1
    1b2c:	00279793          	slli	a5,a5,0x2
    1b30:	010787b3          	add	a5,a5,a6
    1b34:	0007a783          	lw	a5,0(a5)
    1b38:	06f72823          	sw	a5,112(a4) # 4000070 <_stack_end+0x3ef9894>
    1b3c:	f9dff06f          	j	1ad8 <set_hp+0x108>

00001b40 <set_hourtime>:
    1b40:	040007b7          	lui	a5,0x4000
    1b44:	0107a603          	lw	a2,16(a5) # 4000010 <_stack_end+0x3ef9834>
    1b48:	0107a703          	lw	a4,16(a5)
    1b4c:	01078793          	addi	a5,a5,16
    1b50:	0007a783          	lw	a5,0(a5)
    1b54:	0807f793          	andi	a5,a5,128
    1b58:	08079263          	bnez	a5,1bdc <set_hourtime+0x9c>
    1b5c:	040007b7          	lui	a5,0x4000
    1b60:	0d07a683          	lw	a3,208(a5) # 40000d0 <_stack_end+0x3ef98f4>
    1b64:	0c07a823          	sw	zero,208(a5)
    1b68:	0016f793          	andi	a5,a3,1
    1b6c:	06078863          	beqz	a5,1bdc <set_hourtime+0x9c>
    1b70:	40875713          	srai	a4,a4,0x8
    1b74:	000055b7          	lui	a1,0x5
    1b78:	00377713          	andi	a4,a4,3
    1b7c:	00100513          	li	a0,1
    1b80:	8805a783          	lw	a5,-1920(a1) # 4880 <hourtime>
    1b84:	03f67693          	andi	a3,a2,63
    1b88:	0aa70063          	beq	a4,a0,1c28 <set_hourtime+0xe8>
    1b8c:	00200613          	li	a2,2
    1b90:	04c71863          	bne	a4,a2,1be0 <set_hourtime+0xa0>
    1b94:	ccccd737          	lui	a4,0xccccd
    1b98:	ccd70713          	addi	a4,a4,-819 # cccccccd <_stack_end+0xccbc64f1>
    1b9c:	02e6b733          	mulhu	a4,a3,a4
    1ba0:	00ff0637          	lui	a2,0xff0
    1ba4:	0ff60613          	addi	a2,a2,255 # ff00ff <_stack_end+0xee9923>
    1ba8:	00c7f7b3          	and	a5,a5,a2
    1bac:	00375713          	srli	a4,a4,0x3
    1bb0:	00271613          	slli	a2,a4,0x2
    1bb4:	00e60633          	add	a2,a2,a4
    1bb8:	00161613          	slli	a2,a2,0x1
    1bbc:	40c686b3          	sub	a3,a3,a2
    1bc0:	00869693          	slli	a3,a3,0x8
    1bc4:	00c71713          	slli	a4,a4,0xc
    1bc8:	00d70733          	add	a4,a4,a3
    1bcc:	00f707b3          	add	a5,a4,a5
    1bd0:	88f5a023          	sw	a5,-1920(a1)
    1bd4:	00005737          	lui	a4,0x5
    1bd8:	88f72223          	sw	a5,-1916(a4) # 4884 <mytime>
    1bdc:	00008067          	ret
    1be0:	00300613          	li	a2,3
    1be4:	fec718e3          	bne	a4,a2,1bd4 <set_hourtime+0x94>
    1be8:	ccccd737          	lui	a4,0xccccd
    1bec:	ccd70713          	addi	a4,a4,-819 # cccccccd <_stack_end+0xccbc64f1>
    1bf0:	02e6b733          	mulhu	a4,a3,a4
    1bf4:	01079793          	slli	a5,a5,0x10
    1bf8:	0107d793          	srli	a5,a5,0x10
    1bfc:	00375713          	srli	a4,a4,0x3
    1c00:	00271613          	slli	a2,a4,0x2
    1c04:	00e60633          	add	a2,a2,a4
    1c08:	00161613          	slli	a2,a2,0x1
    1c0c:	40c686b3          	sub	a3,a3,a2
    1c10:	01069693          	slli	a3,a3,0x10
    1c14:	01471713          	slli	a4,a4,0x14
    1c18:	00d70733          	add	a4,a4,a3
    1c1c:	00f707b3          	add	a5,a4,a5
    1c20:	88f5a023          	sw	a5,-1920(a1)
    1c24:	fb1ff06f          	j	1bd4 <set_hourtime+0x94>
    1c28:	ccccd737          	lui	a4,0xccccd
    1c2c:	ccd70713          	addi	a4,a4,-819 # cccccccd <_stack_end+0xccbc64f1>
    1c30:	02e6b733          	mulhu	a4,a3,a4
    1c34:	01000637          	lui	a2,0x1000
    1c38:	f0060613          	addi	a2,a2,-256 # ffff00 <_stack_end+0xef9724>
    1c3c:	00c7f7b3          	and	a5,a5,a2
    1c40:	00375713          	srli	a4,a4,0x3
    1c44:	00271613          	slli	a2,a4,0x2
    1c48:	00e60633          	add	a2,a2,a4
    1c4c:	00161613          	slli	a2,a2,0x1
    1c50:	40c686b3          	sub	a3,a3,a2
    1c54:	00471713          	slli	a4,a4,0x4
    1c58:	00d70733          	add	a4,a4,a3
    1c5c:	00f707b3          	add	a5,a4,a5
    1c60:	88f5a023          	sw	a5,-1920(a1)
    1c64:	f71ff06f          	j	1bd4 <set_hourtime+0x94>

00001c68 <time2display>:
    1c68:	000057b7          	lui	a5,0x5
    1c6c:	8a078793          	addi	a5,a5,-1888 # 48a0 <mytime+0x1c>
    1c70:	0087a703          	lw	a4,8(a5)
    1c74:	fb010113          	addi	sp,sp,-80
    1c78:	0007a603          	lw	a2,0(a5)
    1c7c:	00e12423          	sw	a4,8(sp)
    1c80:	0147a703          	lw	a4,20(a5)
    1c84:	0047a683          	lw	a3,4(a5)
    1c88:	00c12023          	sw	a2,0(sp)
    1c8c:	00e12a23          	sw	a4,20(sp)
    1c90:	00c7a603          	lw	a2,12(a5)
    1c94:	0207a703          	lw	a4,32(a5)
    1c98:	00d12223          	sw	a3,4(sp)
    1c9c:	0107a683          	lw	a3,16(a5)
    1ca0:	00c12623          	sw	a2,12(sp)
    1ca4:	02e12023          	sw	a4,32(sp)
    1ca8:	0187a603          	lw	a2,24(a5)
    1cac:	02c7a703          	lw	a4,44(a5)
    1cb0:	00d12823          	sw	a3,16(sp)
    1cb4:	01c7a683          	lw	a3,28(a5)
    1cb8:	00c12c23          	sw	a2,24(sp)
    1cbc:	02e12623          	sw	a4,44(sp)
    1cc0:	0247a603          	lw	a2,36(a5)
    1cc4:	0307a703          	lw	a4,48(a5)
    1cc8:	00d12e23          	sw	a3,28(sp)
    1ccc:	0287a683          	lw	a3,40(a5)
    1cd0:	02c12223          	sw	a2,36(sp)
    1cd4:	02e12823          	sw	a4,48(sp)
    1cd8:	0347a603          	lw	a2,52(a5)
    1cdc:	00f57713          	andi	a4,a0,15
    1ce0:	00271713          	slli	a4,a4,0x2
    1ce4:	0387ae83          	lw	t4,56(a5)
    1ce8:	03c7ae03          	lw	t3,60(a5)
    1cec:	0407a303          	lw	t1,64(a5)
    1cf0:	0447a883          	lw	a7,68(a5)
    1cf4:	00e10733          	add	a4,sp,a4
    1cf8:	02d12423          	sw	a3,40(sp)
    1cfc:	0487a803          	lw	a6,72(a5)
    1d00:	04c7a583          	lw	a1,76(a5)
    1d04:	02c12a23          	sw	a2,52(sp)
    1d08:	00072603          	lw	a2,0(a4)
    1d0c:	00255793          	srli	a5,a0,0x2
    1d10:	04b12623          	sw	a1,76(sp)
    1d14:	03d12c23          	sw	t4,56(sp)
    1d18:	03c12e23          	sw	t3,60(sp)
    1d1c:	04612023          	sw	t1,64(sp)
    1d20:	05112223          	sw	a7,68(sp)
    1d24:	05012423          	sw	a6,72(sp)
    1d28:	04000737          	lui	a4,0x4000
    1d2c:	03c7f793          	andi	a5,a5,60
    1d30:	04c72823          	sw	a2,80(a4) # 4000050 <_stack_end+0x3ef9874>
    1d34:	00f107b3          	add	a5,sp,a5
    1d38:	0007a583          	lw	a1,0(a5)
    1d3c:	00655793          	srli	a5,a0,0x6
    1d40:	04000737          	lui	a4,0x4000
    1d44:	03c7f793          	andi	a5,a5,60
    1d48:	06b72023          	sw	a1,96(a4) # 4000060 <_stack_end+0x3ef9884>
    1d4c:	002787b3          	add	a5,a5,sp
    1d50:	0287a583          	lw	a1,40(a5)
    1d54:	00a55793          	srli	a5,a0,0xa
    1d58:	04000737          	lui	a4,0x4000
    1d5c:	03c7f793          	andi	a5,a5,60
    1d60:	06b72823          	sw	a1,112(a4) # 4000070 <_stack_end+0x3ef9894>
    1d64:	00f107b3          	add	a5,sp,a5
    1d68:	0007a583          	lw	a1,0(a5)
    1d6c:	00e55793          	srli	a5,a0,0xe
    1d70:	04000737          	lui	a4,0x4000
    1d74:	03c7f793          	andi	a5,a5,60
    1d78:	08b72023          	sw	a1,128(a4) # 4000080 <_stack_end+0x3ef98a4>
    1d7c:	002787b3          	add	a5,a5,sp
    1d80:	0287a703          	lw	a4,40(a5)
    1d84:	01255513          	srli	a0,a0,0x12
    1d88:	040007b7          	lui	a5,0x4000
    1d8c:	03c57513          	andi	a0,a0,60
    1d90:	08e7a823          	sw	a4,144(a5) # 4000090 <_stack_end+0x3ef98b4>
    1d94:	00a10533          	add	a0,sp,a0
    1d98:	00052703          	lw	a4,0(a0)
    1d9c:	040007b7          	lui	a5,0x4000
    1da0:	0ae7a023          	sw	a4,160(a5) # 40000a0 <_stack_end+0x3ef98c4>
    1da4:	05010113          	addi	sp,sp,80
    1da8:	00008067          	ret

00001dac <tick_hour>:
    1dac:	000057b7          	lui	a5,0x5
    1db0:	8847d783          	lhu	a5,-1916(a5) # 4884 <mytime>
    1db4:	000056b7          	lui	a3,0x5
    1db8:	8806a703          	lw	a4,-1920(a3) # 4880 <hourtime>
    1dbc:	02079c63          	bnez	a5,1df4 <tick_hour+0x48>
    1dc0:	41075613          	srai	a2,a4,0x10
    1dc4:	00900593          	li	a1,9
    1dc8:	04b60063          	beq	a2,a1,1e08 <tick_hour+0x5c>
    1dcc:	01900593          	li	a1,25
    1dd0:	04b60263          	beq	a2,a1,1e14 <tick_hour+0x68>
    1dd4:	02300593          	li	a1,35
    1dd8:	02b60463          	beq	a2,a1,1e00 <tick_hour+0x54>
    1ddc:	000107b7          	lui	a5,0x10
    1de0:	00f70733          	add	a4,a4,a5
    1de4:	00ff07b7          	lui	a5,0xff0
    1de8:	00f777b3          	and	a5,a4,a5
    1dec:	88f6a023          	sw	a5,-1920(a3)
    1df0:	00008067          	ret
    1df4:	00ff0637          	lui	a2,0xff0
    1df8:	00c77733          	and	a4,a4,a2
    1dfc:	00e7e7b3          	or	a5,a5,a4
    1e00:	88f6a023          	sw	a5,-1920(a3)
    1e04:	00008067          	ret
    1e08:	001007b7          	lui	a5,0x100
    1e0c:	88f6a023          	sw	a5,-1920(a3)
    1e10:	00008067          	ret
    1e14:	002007b7          	lui	a5,0x200
    1e18:	88f6a023          	sw	a5,-1920(a3)
    1e1c:	00008067          	ret

00001e20 <wait_for_option>:
    1e20:	ff010113          	addi	sp,sp,-16
    1e24:	00812423          	sw	s0,8(sp)
    1e28:	00005437          	lui	s0,0x5
    1e2c:	87442783          	lw	a5,-1932(s0) # 4874 <option>
    1e30:	00112623          	sw	ra,12(sp)
    1e34:	00079a63          	bnez	a5,1e48 <wait_for_option+0x28>
    1e38:	00a00513          	li	a0,10
    1e3c:	aedfe0ef          	jal	928 <delay>
    1e40:	87442783          	lw	a5,-1932(s0)
    1e44:	fe078ae3          	beqz	a5,1e38 <wait_for_option+0x18>
    1e48:	00c12083          	lw	ra,12(sp)
    1e4c:	00812403          	lw	s0,8(sp)
    1e50:	01010113          	addi	sp,sp,16
    1e54:	00008067          	ret

00001e58 <combat>:
    1e58:	03452703          	lw	a4,52(a0)
    1e5c:	00070863          	beqz	a4,1e6c <combat+0x14>
    1e60:	02052783          	lw	a5,32(a0)
    1e64:	00f05463          	blez	a5,1e6c <combat+0x14>
    1e68:	8e0ff06f          	j	f48 <combat.part.0>
    1e6c:	00008067          	ret

00001e70 <shop>:
    1e70:	fc010113          	addi	sp,sp,-64
    1e74:	02912a23          	sw	s1,52(sp)
    1e78:	03312623          	sw	s3,44(sp)
    1e7c:	000054b7          	lui	s1,0x5
    1e80:	000059b7          	lui	s3,0x5
    1e84:	03212823          	sw	s2,48(sp)
    1e88:	03412423          	sw	s4,40(sp)
    1e8c:	03512223          	sw	s5,36(sp)
    1e90:	03612023          	sw	s6,32(sp)
    1e94:	01712e23          	sw	s7,28(sp)
    1e98:	02112e23          	sw	ra,60(sp)
    1e9c:	02812c23          	sw	s0,56(sp)
    1ea0:	00050a13          	mv	s4,a0
    1ea4:	c5048493          	addi	s1,s1,-944 # 4c50 <__global_pointer+0x57>
    1ea8:	d6c98993          	addi	s3,s3,-660 # 4d6c <__global_pointer+0x173>
    1eac:	00005937          	lui	s2,0x5
    1eb0:	00100a93          	li	s5,1
    1eb4:	00200b13          	li	s6,2
    1eb8:	00300b93          	li	s7,3
    1ebc:	02800413          	li	s0,40
    1ec0:	00048513          	mv	a0,s1
    1ec4:	fff40413          	addi	s0,s0,-1
    1ec8:	aa5fe0ef          	jal	96c <print>
    1ecc:	fe041ae3          	bnez	s0,1ec0 <shop+0x50>
    1ed0:	00098513          	mv	a0,s3
    1ed4:	a99fe0ef          	jal	96c <print>
    1ed8:	87492783          	lw	a5,-1932(s2) # 4874 <option>
    1edc:	00079a63          	bnez	a5,1ef0 <shop+0x80>
    1ee0:	00a00513          	li	a0,10
    1ee4:	a45fe0ef          	jal	928 <delay>
    1ee8:	87492783          	lw	a5,-1932(s2)
    1eec:	fe078ae3          	beqz	a5,1ee0 <shop+0x70>
    1ef0:	02800413          	li	s0,40
    1ef4:	00048513          	mv	a0,s1
    1ef8:	fff40413          	addi	s0,s0,-1
    1efc:	a71fe0ef          	jal	96c <print>
    1f00:	fe041ae3          	bnez	s0,1ef4 <shop+0x84>
    1f04:	87492783          	lw	a5,-1932(s2)
    1f08:	07578063          	beq	a5,s5,1f68 <shop+0xf8>
    1f0c:	0f678c63          	beq	a5,s6,2004 <shop+0x194>
    1f10:	0f779663          	bne	a5,s7,1ffc <shop+0x18c>
    1f14:	00005537          	lui	a0,0x5
    1f18:	04050513          	addi	a0,a0,64 # 5040 <__global_pointer+0x447>
    1f1c:	86092a23          	sw	zero,-1932(s2)
    1f20:	a4dfe0ef          	jal	96c <print>
    1f24:	7d000513          	li	a0,2000
    1f28:	a01fe0ef          	jal	928 <delay>
    1f2c:	00005537          	lui	a0,0x5
    1f30:	06050513          	addi	a0,a0,96 # 5060 <__global_pointer+0x467>
    1f34:	a39fe0ef          	jal	96c <print>
    1f38:	03812403          	lw	s0,56(sp)
    1f3c:	03c12083          	lw	ra,60(sp)
    1f40:	03412483          	lw	s1,52(sp)
    1f44:	03012903          	lw	s2,48(sp)
    1f48:	02c12983          	lw	s3,44(sp)
    1f4c:	02812a03          	lw	s4,40(sp)
    1f50:	02412a83          	lw	s5,36(sp)
    1f54:	02012b03          	lw	s6,32(sp)
    1f58:	01c12b83          	lw	s7,28(sp)
    1f5c:	7d000513          	li	a0,2000
    1f60:	04010113          	addi	sp,sp,64
    1f64:	9c5fe06f          	j	928 <delay>
    1f68:	00005437          	lui	s0,0x5
    1f6c:	000057b7          	lui	a5,0x5
    1f70:	01812c23          	sw	s8,24(sp)
    1f74:	01a12823          	sw	s10,16(sp)
    1f78:	01b12623          	sw	s11,12(sp)
    1f7c:	01912a23          	sw	s9,20(sp)
    1f80:	dcc40d93          	addi	s11,s0,-564 # 4dcc <__global_pointer+0x1d3>
    1f84:	da478d13          	addi	s10,a5,-604 # 4da4 <__global_pointer+0x1ab>
    1f88:	00100c13          	li	s8,1
    1f8c:	00300413          	li	s0,3
    1f90:	000d0513          	mv	a0,s10
    1f94:	86092a23          	sw	zero,-1932(s2)
    1f98:	9d5fe0ef          	jal	96c <print>
    1f9c:	010a2503          	lw	a0,16(s4)
    1fa0:	a05fe0ef          	jal	9a4 <print_dec>
    1fa4:	000d8513          	mv	a0,s11
    1fa8:	9c5fe0ef          	jal	96c <print>
    1fac:	87492783          	lw	a5,-1932(s2)
    1fb0:	00079a63          	bnez	a5,1fc4 <shop+0x154>
    1fb4:	00a00513          	li	a0,10
    1fb8:	971fe0ef          	jal	928 <delay>
    1fbc:	87492783          	lw	a5,-1932(s2)
    1fc0:	fe078ae3          	beqz	a5,1fb4 <shop+0x144>
    1fc4:	02800c93          	li	s9,40
    1fc8:	00048513          	mv	a0,s1
    1fcc:	fffc8c93          	addi	s9,s9,-1
    1fd0:	99dfe0ef          	jal	96c <print>
    1fd4:	fe0c9ae3          	bnez	s9,1fc8 <shop+0x158>
    1fd8:	87492783          	lw	a5,-1932(s2)
    1fdc:	21878263          	beq	a5,s8,21e0 <shop+0x370>
    1fe0:	00200713          	li	a4,2
    1fe4:	22e78463          	beq	a5,a4,220c <shop+0x39c>
    1fe8:	fa8794e3          	bne	a5,s0,1f90 <shop+0x120>
    1fec:	01812c03          	lw	s8,24(sp)
    1ff0:	01412c83          	lw	s9,20(sp)
    1ff4:	01012d03          	lw	s10,16(sp)
    1ff8:	00c12d83          	lw	s11,12(sp)
    1ffc:	86092a23          	sw	zero,-1932(s2)
    2000:	ebdff06f          	j	1ebc <shop+0x4c>
    2004:	01812c23          	sw	s8,24(sp)
    2008:	01912a23          	sw	s9,20(sp)
    200c:	00005c37          	lui	s8,0x5
    2010:	00005cb7          	lui	s9,0x5
    2014:	01a12823          	sw	s10,16(sp)
    2018:	888c0c13          	addi	s8,s8,-1912 # 4888 <mytime+0x4>
    201c:	e8cc8d13          	addi	s10,s9,-372 # 4e8c <__global_pointer+0x293>
    2020:	00500c93          	li	s9,5
    2024:	000d0513          	mv	a0,s10
    2028:	86092a23          	sw	zero,-1932(s2)
    202c:	941fe0ef          	jal	96c <print>
    2030:	87492783          	lw	a5,-1932(s2)
    2034:	00079a63          	bnez	a5,2048 <shop+0x1d8>
    2038:	00a00513          	li	a0,10
    203c:	8edfe0ef          	jal	928 <delay>
    2040:	87492783          	lw	a5,-1932(s2)
    2044:	fe078ae3          	beqz	a5,2038 <shop+0x1c8>
    2048:	02800413          	li	s0,40
    204c:	00048513          	mv	a0,s1
    2050:	fff40413          	addi	s0,s0,-1
    2054:	919fe0ef          	jal	96c <print>
    2058:	fe041ae3          	bnez	s0,204c <shop+0x1dc>
    205c:	87492783          	lw	a5,-1932(s2)
    2060:	fcfce2e3          	bltu	s9,a5,2024 <shop+0x1b4>
    2064:	00279793          	slli	a5,a5,0x2
    2068:	00fc07b3          	add	a5,s8,a5
    206c:	0007a783          	lw	a5,0(a5)
    2070:	00078067          	jr	a5
    2074:	01812c03          	lw	s8,24(sp)
    2078:	01412c83          	lw	s9,20(sp)
    207c:	01012d03          	lw	s10,16(sp)
    2080:	86092a23          	sw	zero,-1932(s2)
    2084:	e39ff06f          	j	1ebc <shop+0x4c>
    2088:	000055b7          	lui	a1,0x5
    208c:	94458593          	addi	a1,a1,-1724 # 4944 <mytime+0xc0>
    2090:	000a0513          	mv	a0,s4
    2094:	86092a23          	sw	zero,-1932(s2)
    2098:	a68fe0ef          	jal	300 <peek_inventory>
    209c:	00050593          	mv	a1,a0
    20a0:	12050863          	beqz	a0,21d0 <shop+0x360>
    20a4:	000a0513          	mv	a0,s4
    20a8:	c1cfe0ef          	jal	4c4 <remove_from_inventory>
    20ac:	00005537          	lui	a0,0x5
    20b0:	ff850513          	addi	a0,a0,-8 # 4ff8 <__global_pointer+0x3ff>
    20b4:	8b9fe0ef          	jal	96c <print>
    20b8:	010a2783          	lw	a5,16(s4)
    20bc:	03278793          	addi	a5,a5,50
    20c0:	00fa2823          	sw	a5,16(s4)
    20c4:	0ac0006f          	j	2170 <shop+0x300>
    20c8:	000055b7          	lui	a1,0x5
    20cc:	fa858593          	addi	a1,a1,-88 # 4fa8 <__global_pointer+0x3af>
    20d0:	000a0513          	mv	a0,s4
    20d4:	86092a23          	sw	zero,-1932(s2)
    20d8:	a28fe0ef          	jal	300 <peek_inventory>
    20dc:	00050593          	mv	a1,a0
    20e0:	0e050063          	beqz	a0,21c0 <shop+0x350>
    20e4:	000a0513          	mv	a0,s4
    20e8:	bdcfe0ef          	jal	4c4 <remove_from_inventory>
    20ec:	00005537          	lui	a0,0x5
    20f0:	fb450513          	addi	a0,a0,-76 # 4fb4 <__global_pointer+0x3bb>
    20f4:	879fe0ef          	jal	96c <print>
    20f8:	010a2783          	lw	a5,16(s4)
    20fc:	06478793          	addi	a5,a5,100
    2100:	00fa2823          	sw	a5,16(s4)
    2104:	06c0006f          	j	2170 <shop+0x300>
    2108:	000055b7          	lui	a1,0x5
    210c:	c1458593          	addi	a1,a1,-1004 # 4c14 <__global_pointer+0x1b>
    2110:	000a0513          	mv	a0,s4
    2114:	86092a23          	sw	zero,-1932(s2)
    2118:	9e8fe0ef          	jal	300 <peek_inventory>
    211c:	00050593          	mv	a1,a0
    2120:	08050863          	beqz	a0,21b0 <shop+0x340>
    2124:	000a0513          	mv	a0,s4
    2128:	b9cfe0ef          	jal	4c4 <remove_from_inventory>
    212c:	00005537          	lui	a0,0x5
    2130:	f5c50513          	addi	a0,a0,-164 # 4f5c <__global_pointer+0x363>
    2134:	839fe0ef          	jal	96c <print>
    2138:	010a2783          	lw	a5,16(s4)
    213c:	01478793          	addi	a5,a5,20
    2140:	00fa2823          	sw	a5,16(s4)
    2144:	02c0006f          	j	2170 <shop+0x300>
    2148:	000055b7          	lui	a1,0x5
    214c:	93858593          	addi	a1,a1,-1736 # 4938 <mytime+0xb4>
    2150:	000a0513          	mv	a0,s4
    2154:	86092a23          	sw	zero,-1932(s2)
    2158:	9a8fe0ef          	jal	300 <peek_inventory>
    215c:	00050593          	mv	a1,a0
    2160:	02051663          	bnez	a0,218c <shop+0x31c>
    2164:	00005537          	lui	a0,0x5
    2168:	f3450513          	addi	a0,a0,-204 # 4f34 <__global_pointer+0x33b>
    216c:	801fe0ef          	jal	96c <print>
    2170:	00001537          	lui	a0,0x1
    2174:	fa050513          	addi	a0,a0,-96 # fa0 <combat.part.0+0x58>
    2178:	fb0fe0ef          	jal	928 <delay>
    217c:	01812c03          	lw	s8,24(sp)
    2180:	01412c83          	lw	s9,20(sp)
    2184:	01012d03          	lw	s10,16(sp)
    2188:	d35ff06f          	j	1ebc <shop+0x4c>
    218c:	000a0513          	mv	a0,s4
    2190:	b34fe0ef          	jal	4c4 <remove_from_inventory>
    2194:	00005537          	lui	a0,0x5
    2198:	f1850513          	addi	a0,a0,-232 # 4f18 <__global_pointer+0x31f>
    219c:	fd0fe0ef          	jal	96c <print>
    21a0:	010a2783          	lw	a5,16(s4)
    21a4:	01978793          	addi	a5,a5,25
    21a8:	00fa2823          	sw	a5,16(s4)
    21ac:	fc5ff06f          	j	2170 <shop+0x300>
    21b0:	00005537          	lui	a0,0x5
    21b4:	f7c50513          	addi	a0,a0,-132 # 4f7c <__global_pointer+0x383>
    21b8:	fb4fe0ef          	jal	96c <print>
    21bc:	fb5ff06f          	j	2170 <shop+0x300>
    21c0:	00005537          	lui	a0,0x5
    21c4:	fd450513          	addi	a0,a0,-44 # 4fd4 <__global_pointer+0x3db>
    21c8:	fa4fe0ef          	jal	96c <print>
    21cc:	fa5ff06f          	j	2170 <shop+0x300>
    21d0:	00005537          	lui	a0,0x5
    21d4:	01850513          	addi	a0,a0,24 # 5018 <__global_pointer+0x41f>
    21d8:	f94fe0ef          	jal	96c <print>
    21dc:	f95ff06f          	j	2170 <shop+0x300>
    21e0:	010a2703          	lw	a4,16(s4)
    21e4:	86092a23          	sw	zero,-1932(s2)
    21e8:	04a00793          	li	a5,74
    21ec:	06e7d263          	bge	a5,a4,2250 <shop+0x3e0>
    21f0:	000055b7          	lui	a1,0x5
    21f4:	94458593          	addi	a1,a1,-1724 # 4944 <mytime+0xc0>
    21f8:	000a0513          	mv	a0,s4
    21fc:	96cfe0ef          	jal	368 <add_to_inventory>
    2200:	07850c63          	beq	a0,s8,2278 <shop+0x408>
    2204:	00c12d83          	lw	s11,12(sp)
    2208:	f69ff06f          	j	2170 <shop+0x300>
    220c:	010a2703          	lw	a4,16(s4)
    2210:	86092a23          	sw	zero,-1932(s2)
    2214:	01800793          	li	a5,24
    2218:	04e7d663          	bge	a5,a4,2264 <shop+0x3f4>
    221c:	000055b7          	lui	a1,0x5
    2220:	c1458593          	addi	a1,a1,-1004 # 4c14 <__global_pointer+0x1b>
    2224:	000a0513          	mv	a0,s4
    2228:	940fe0ef          	jal	368 <add_to_inventory>
    222c:	fd851ce3          	bne	a0,s8,2204 <shop+0x394>
    2230:	010a2783          	lw	a5,16(s4)
    2234:	00005537          	lui	a0,0x5
    2238:	e4c50513          	addi	a0,a0,-436 # 4e4c <__global_pointer+0x253>
    223c:	fe778793          	addi	a5,a5,-25
    2240:	00fa2823          	sw	a5,16(s4)
    2244:	f28fe0ef          	jal	96c <print>
    2248:	00c12d83          	lw	s11,12(sp)
    224c:	f25ff06f          	j	2170 <shop+0x300>
    2250:	00005537          	lui	a0,0x5
    2254:	e2050513          	addi	a0,a0,-480 # 4e20 <__global_pointer+0x227>
    2258:	f14fe0ef          	jal	96c <print>
    225c:	00c12d83          	lw	s11,12(sp)
    2260:	f11ff06f          	j	2170 <shop+0x300>
    2264:	00005537          	lui	a0,0x5
    2268:	e6050513          	addi	a0,a0,-416 # 4e60 <__global_pointer+0x267>
    226c:	f00fe0ef          	jal	96c <print>
    2270:	00c12d83          	lw	s11,12(sp)
    2274:	efdff06f          	j	2170 <shop+0x300>
    2278:	010a2783          	lw	a5,16(s4)
    227c:	00005537          	lui	a0,0x5
    2280:	e1050513          	addi	a0,a0,-496 # 4e10 <__global_pointer+0x217>
    2284:	fb578793          	addi	a5,a5,-75
    2288:	00fa2823          	sw	a5,16(s4)
    228c:	ee0fe0ef          	jal	96c <print>
    2290:	00c12d83          	lw	s11,12(sp)
    2294:	eddff06f          	j	2170 <shop+0x300>

00002298 <timer_timeout>:
    2298:	040007b7          	lui	a5,0x4000
    229c:	0207d683          	lhu	a3,32(a5) # 4000020 <_stack_end+0x3ef9844>
    22a0:	00300713          	li	a4,3
    22a4:	02078793          	addi	a5,a5,32
    22a8:	00000513          	li	a0,0
    22ac:	00e68463          	beq	a3,a4,22b4 <timer_timeout+0x1c>
    22b0:	00008067          	ret
    22b4:	00200713          	li	a4,2
    22b8:	00e79023          	sh	a4,0(a5)
    22bc:	00100513          	li	a0,1
    22c0:	00008067          	ret

000022c4 <init>:
    22c4:	ffffc6b7          	lui	a3,0xffffc
    22c8:	040007b7          	lui	a5,0x4000
    22cc:	6bf68693          	addi	a3,a3,1727 # ffffc6bf <_stack_end+0xffef5ee3>
    22d0:	02d79423          	sh	a3,40(a5) # 4000028 <_stack_end+0x3ef984c>
    22d4:	02d00693          	li	a3,45
    22d8:	02d79623          	sh	a3,44(a5)
    22dc:	00700693          	li	a3,7
    22e0:	02d79223          	sh	a3,36(a5)
    22e4:	03f00693          	li	a3,63
    22e8:	00d7ac23          	sw	a3,24(a5)
    22ec:	00d7ae23          	sw	a3,28(a5)
    22f0:	e85fd06f          	j	174 <enable_interrupts>

000022f4 <room_init>:
    22f4:	ed010113          	addi	sp,sp,-304
    22f8:	00100793          	li	a5,1
    22fc:	000056b7          	lui	a3,0x5
    2300:	00005637          	lui	a2,0x5
    2304:	12812423          	sw	s0,296(sp)
    2308:	00078593          	mv	a1,a5
    230c:	00000713          	li	a4,0
    2310:	06010513          	addi	a0,sp,96
    2314:	06c68693          	addi	a3,a3,108 # 506c <__global_pointer+0x473>
    2318:	15860613          	addi	a2,a2,344 # 5158 <__global_pointer+0x55f>
    231c:	00004437          	lui	s0,0x4
    2320:	12112623          	sw	ra,300(sp)
    2324:	40840413          	addi	s0,s0,1032 # 4408 <rooms>
    2328:	be4fe0ef          	jal	70c <new_room>
    232c:	06010793          	addi	a5,sp,96
    2330:	07040713          	addi	a4,s0,112
    2334:	0d010813          	addi	a6,sp,208
    2338:	0007a503          	lw	a0,0(a5)
    233c:	0047a583          	lw	a1,4(a5)
    2340:	0087a603          	lw	a2,8(a5)
    2344:	00c7a683          	lw	a3,12(a5)
    2348:	00a72023          	sw	a0,0(a4)
    234c:	00b72223          	sw	a1,4(a4)
    2350:	00c72423          	sw	a2,8(a4)
    2354:	00d72623          	sw	a3,12(a4)
    2358:	01078793          	addi	a5,a5,16
    235c:	01070713          	addi	a4,a4,16
    2360:	fd079ce3          	bne	a5,a6,2338 <room_init+0x44>
    2364:	000056b7          	lui	a3,0x5
    2368:	00005637          	lui	a2,0x5
    236c:	00000793          	li	a5,0
    2370:	00100713          	li	a4,1
    2374:	16068693          	addi	a3,a3,352 # 5160 <__global_pointer+0x567>
    2378:	1e860613          	addi	a2,a2,488 # 51e8 <__global_pointer+0x5ef>
    237c:	00200593          	li	a1,2
    2380:	06010513          	addi	a0,sp,96
    2384:	b88fe0ef          	jal	70c <new_room>
    2388:	06010793          	addi	a5,sp,96
    238c:	0e040713          	addi	a4,s0,224
    2390:	0d010813          	addi	a6,sp,208
    2394:	0007a503          	lw	a0,0(a5)
    2398:	0047a583          	lw	a1,4(a5)
    239c:	0087a603          	lw	a2,8(a5)
    23a0:	00c7a683          	lw	a3,12(a5)
    23a4:	00a72023          	sw	a0,0(a4)
    23a8:	00b72223          	sw	a1,4(a4)
    23ac:	00c72423          	sw	a2,8(a4)
    23b0:	00d72623          	sw	a3,12(a4)
    23b4:	01078793          	addi	a5,a5,16
    23b8:	01070713          	addi	a4,a4,16
    23bc:	fd079ce3          	bne	a5,a6,2394 <room_init+0xa0>
    23c0:	000056b7          	lui	a3,0x5
    23c4:	00005637          	lui	a2,0x5
    23c8:	00000793          	li	a5,0
    23cc:	00000713          	li	a4,0
    23d0:	1f468693          	addi	a3,a3,500 # 51f4 <__global_pointer+0x5fb>
    23d4:	28060613          	addi	a2,a2,640 # 5280 <__global_pointer+0x687>
    23d8:	00300593          	li	a1,3
    23dc:	06010513          	addi	a0,sp,96
    23e0:	b2cfe0ef          	jal	70c <new_room>
    23e4:	06010793          	addi	a5,sp,96
    23e8:	15040713          	addi	a4,s0,336
    23ec:	0d010813          	addi	a6,sp,208
    23f0:	0007a503          	lw	a0,0(a5)
    23f4:	0047a583          	lw	a1,4(a5)
    23f8:	0087a603          	lw	a2,8(a5)
    23fc:	00c7a683          	lw	a3,12(a5)
    2400:	00a72023          	sw	a0,0(a4)
    2404:	00b72223          	sw	a1,4(a4)
    2408:	00c72423          	sw	a2,8(a4)
    240c:	00d72623          	sw	a3,12(a4)
    2410:	01078793          	addi	a5,a5,16
    2414:	01070713          	addi	a4,a4,16
    2418:	fd079ce3          	bne	a5,a6,23f0 <room_init+0xfc>
    241c:	000056b7          	lui	a3,0x5
    2420:	00005637          	lui	a2,0x5
    2424:	00100793          	li	a5,1
    2428:	00000713          	li	a4,0
    242c:	28c68693          	addi	a3,a3,652 # 528c <__global_pointer+0x693>
    2430:	3a060613          	addi	a2,a2,928 # 53a0 <__global_pointer+0x7a7>
    2434:	00400593          	li	a1,4
    2438:	06010513          	addi	a0,sp,96
    243c:	ad0fe0ef          	jal	70c <new_room>
    2440:	06010793          	addi	a5,sp,96
    2444:	1c040713          	addi	a4,s0,448
    2448:	0d010813          	addi	a6,sp,208
    244c:	0007a503          	lw	a0,0(a5)
    2450:	0047a583          	lw	a1,4(a5)
    2454:	0087a603          	lw	a2,8(a5)
    2458:	00c7a683          	lw	a3,12(a5)
    245c:	00a72023          	sw	a0,0(a4)
    2460:	00b72223          	sw	a1,4(a4)
    2464:	00c72423          	sw	a2,8(a4)
    2468:	00d72623          	sw	a3,12(a4)
    246c:	01078793          	addi	a5,a5,16
    2470:	01070713          	addi	a4,a4,16
    2474:	fd079ce3          	bne	a5,a6,244c <room_init+0x158>
    2478:	000056b7          	lui	a3,0x5
    247c:	00005637          	lui	a2,0x5
    2480:	00100793          	li	a5,1
    2484:	00000713          	li	a4,0
    2488:	3ac68693          	addi	a3,a3,940 # 53ac <__global_pointer+0x7b3>
    248c:	43460613          	addi	a2,a2,1076 # 5434 <__global_pointer+0x83b>
    2490:	00500593          	li	a1,5
    2494:	06010513          	addi	a0,sp,96
    2498:	a74fe0ef          	jal	70c <new_room>
    249c:	06010793          	addi	a5,sp,96
    24a0:	23040713          	addi	a4,s0,560
    24a4:	0d010813          	addi	a6,sp,208
    24a8:	0007a503          	lw	a0,0(a5)
    24ac:	0047a583          	lw	a1,4(a5)
    24b0:	0087a603          	lw	a2,8(a5)
    24b4:	00c7a683          	lw	a3,12(a5)
    24b8:	00a72023          	sw	a0,0(a4)
    24bc:	00b72223          	sw	a1,4(a4)
    24c0:	00c72423          	sw	a2,8(a4)
    24c4:	00d72623          	sw	a3,12(a4)
    24c8:	01078793          	addi	a5,a5,16
    24cc:	01070713          	addi	a4,a4,16
    24d0:	fd079ce3          	bne	a5,a6,24a8 <room_init+0x1b4>
    24d4:	00100793          	li	a5,1
    24d8:	000056b7          	lui	a3,0x5
    24dc:	00005637          	lui	a2,0x5
    24e0:	00078713          	mv	a4,a5
    24e4:	44068693          	addi	a3,a3,1088 # 5440 <__global_pointer+0x847>
    24e8:	49860613          	addi	a2,a2,1176 # 5498 <__global_pointer+0x89f>
    24ec:	00600593          	li	a1,6
    24f0:	06010513          	addi	a0,sp,96
    24f4:	a18fe0ef          	jal	70c <new_room>
    24f8:	06010793          	addi	a5,sp,96
    24fc:	2a040713          	addi	a4,s0,672
    2500:	0d010813          	addi	a6,sp,208
    2504:	0007a503          	lw	a0,0(a5)
    2508:	0047a583          	lw	a1,4(a5)
    250c:	0087a603          	lw	a2,8(a5)
    2510:	00c7a683          	lw	a3,12(a5)
    2514:	00a72023          	sw	a0,0(a4)
    2518:	00b72223          	sw	a1,4(a4)
    251c:	00c72423          	sw	a2,8(a4)
    2520:	00d72623          	sw	a3,12(a4)
    2524:	01078793          	addi	a5,a5,16
    2528:	01070713          	addi	a4,a4,16
    252c:	fd079ce3          	bne	a5,a6,2504 <room_init+0x210>
    2530:	000056b7          	lui	a3,0x5
    2534:	00005637          	lui	a2,0x5
    2538:	00000793          	li	a5,0
    253c:	00000713          	li	a4,0
    2540:	4a868693          	addi	a3,a3,1192 # 54a8 <__global_pointer+0x8af>
    2544:	57860613          	addi	a2,a2,1400 # 5578 <__global_pointer+0x97f>
    2548:	00700593          	li	a1,7
    254c:	06010513          	addi	a0,sp,96
    2550:	9bcfe0ef          	jal	70c <new_room>
    2554:	06010793          	addi	a5,sp,96
    2558:	31040713          	addi	a4,s0,784
    255c:	0d010813          	addi	a6,sp,208
    2560:	0007a503          	lw	a0,0(a5)
    2564:	0047a583          	lw	a1,4(a5)
    2568:	0087a603          	lw	a2,8(a5)
    256c:	00c7a683          	lw	a3,12(a5)
    2570:	00a72023          	sw	a0,0(a4)
    2574:	00b72223          	sw	a1,4(a4)
    2578:	00c72423          	sw	a2,8(a4)
    257c:	00d72623          	sw	a3,12(a4)
    2580:	01078793          	addi	a5,a5,16
    2584:	01070713          	addi	a4,a4,16
    2588:	fd079ce3          	bne	a5,a6,2560 <room_init+0x26c>
    258c:	000056b7          	lui	a3,0x5
    2590:	00005637          	lui	a2,0x5
    2594:	00000793          	li	a5,0
    2598:	00000713          	li	a4,0
    259c:	58468693          	addi	a3,a3,1412 # 5584 <__global_pointer+0x98b>
    25a0:	60860613          	addi	a2,a2,1544 # 5608 <__global_pointer+0xa0f>
    25a4:	00800593          	li	a1,8
    25a8:	06010513          	addi	a0,sp,96
    25ac:	960fe0ef          	jal	70c <new_room>
    25b0:	06010793          	addi	a5,sp,96
    25b4:	38040713          	addi	a4,s0,896
    25b8:	0d010813          	addi	a6,sp,208
    25bc:	0007a503          	lw	a0,0(a5)
    25c0:	0047a583          	lw	a1,4(a5)
    25c4:	0087a603          	lw	a2,8(a5)
    25c8:	00c7a683          	lw	a3,12(a5)
    25cc:	00a72023          	sw	a0,0(a4)
    25d0:	00b72223          	sw	a1,4(a4)
    25d4:	00c72423          	sw	a2,8(a4)
    25d8:	00d72623          	sw	a3,12(a4)
    25dc:	01078793          	addi	a5,a5,16
    25e0:	01070713          	addi	a4,a4,16
    25e4:	fd079ce3          	bne	a5,a6,25bc <room_init+0x2c8>
    25e8:	000056b7          	lui	a3,0x5
    25ec:	00005637          	lui	a2,0x5
    25f0:	00000793          	li	a5,0
    25f4:	00100713          	li	a4,1
    25f8:	61c68693          	addi	a3,a3,1564 # 561c <__global_pointer+0xa23>
    25fc:	6e460613          	addi	a2,a2,1764 # 56e4 <__global_pointer+0xaeb>
    2600:	00900593          	li	a1,9
    2604:	06010513          	addi	a0,sp,96
    2608:	904fe0ef          	jal	70c <new_room>
    260c:	06010793          	addi	a5,sp,96
    2610:	3f040713          	addi	a4,s0,1008
    2614:	0d010813          	addi	a6,sp,208
    2618:	0007a503          	lw	a0,0(a5)
    261c:	0047a583          	lw	a1,4(a5)
    2620:	0087a603          	lw	a2,8(a5)
    2624:	00c7a683          	lw	a3,12(a5)
    2628:	00a72023          	sw	a0,0(a4)
    262c:	00b72223          	sw	a1,4(a4)
    2630:	00c72423          	sw	a2,8(a4)
    2634:	00d72623          	sw	a3,12(a4)
    2638:	01078793          	addi	a5,a5,16
    263c:	01070713          	addi	a4,a4,16
    2640:	fd079ce3          	bne	a5,a6,2618 <room_init+0x324>
    2644:	00300693          	li	a3,3
    2648:	000057b7          	lui	a5,0x5
    264c:	00005637          	lui	a2,0x5
    2650:	00400f13          	li	t5,4
    2654:	00600813          	li	a6,6
    2658:	00700e93          	li	t4,7
    265c:	00800e13          	li	t3,8
    2660:	00200593          	li	a1,2
    2664:	00500713          	li	a4,5
    2668:	00100893          	li	a7,1
    266c:	00900313          	li	t1,9
    2670:	04010513          	addi	a0,sp,64
    2674:	fa878793          	addi	a5,a5,-88 # 4fa8 <__global_pointer+0x3af>
    2678:	6f060613          	addi	a2,a2,1776 # 56f0 <__global_pointer+0xaf7>
    267c:	0ed42823          	sw	a3,240(s0)
    2680:	22d42e23          	sw	a3,572(s0)
    2684:	01400693          	li	a3,20
    2688:	0f142623          	sw	a7,236(s0)
    268c:	0fe42a23          	sw	t5,244(s0)
    2690:	25e42023          	sw	t5,576(s0)
    2694:	25042223          	sw	a6,580(s0)
    2698:	31042e23          	sw	a6,796(s0)
    269c:	2bd42823          	sw	t4,688(s0)
    26a0:	39d42623          	sw	t4,908(s0)
    26a4:	33c42023          	sw	t3,800(s0)
    26a8:	3fc42e23          	sw	t3,1020(s0)
    26ac:	38642823          	sw	t1,912(s0)
    26b0:	06b42e23          	sw	a1,124(s0)
    26b4:	14b42e23          	sw	a1,348(s0)
    26b8:	1cb42623          	sw	a1,460(s0)
    26bc:	16e42023          	sw	a4,352(s0)
    26c0:	1ce42823          	sw	a4,464(s0)
    26c4:	2ae42623          	sw	a4,684(s0)
    26c8:	828fe0ef          	jal	6f0 <new_enemy>
    26cc:	04012683          	lw	a3,64(sp)
    26d0:	04412703          	lw	a4,68(sp)
    26d4:	04812783          	lw	a5,72(sp)
    26d8:	0ed42c23          	sw	a3,248(s0)
    26dc:	0ee42e23          	sw	a4,252(s0)
    26e0:	10f42023          	sw	a5,256(s0)
    26e4:	04c12683          	lw	a3,76(sp)
    26e8:	05012703          	lw	a4,80(sp)
    26ec:	05412783          	lw	a5,84(sp)
    26f0:	10d42223          	sw	a3,260(s0)
    26f4:	10e42423          	sw	a4,264(s0)
    26f8:	10f42623          	sw	a5,268(s0)
    26fc:	05812703          	lw	a4,88(sp)
    2700:	000057b7          	lui	a5,0x5
    2704:	00600593          	li	a1,6
    2708:	10e42823          	sw	a4,272(s0)
    270c:	00005737          	lui	a4,0x5
    2710:	6f870613          	addi	a2,a4,1784 # 56f8 <__global_pointer+0xaff>
    2714:	04010513          	addi	a0,sp,64
    2718:	93878793          	addi	a5,a5,-1736 # 4938 <mytime+0xb4>
    271c:	00c00713          	li	a4,12
    2720:	03200693          	li	a3,50
    2724:	fcdfd0ef          	jal	6f0 <new_enemy>
    2728:	04012683          	lw	a3,64(sp)
    272c:	04412703          	lw	a4,68(sp)
    2730:	04812783          	lw	a5,72(sp)
    2734:	2ad42c23          	sw	a3,696(s0)
    2738:	2ae42e23          	sw	a4,700(s0)
    273c:	2cf42023          	sw	a5,704(s0)
    2740:	04c12683          	lw	a3,76(sp)
    2744:	05012703          	lw	a4,80(sp)
    2748:	05412783          	lw	a5,84(sp)
    274c:	2cd42223          	sw	a3,708(s0)
    2750:	2ce42423          	sw	a4,712(s0)
    2754:	2cf42623          	sw	a5,716(s0)
    2758:	05812703          	lw	a4,88(sp)
    275c:	000057b7          	lui	a5,0x5
    2760:	00005637          	lui	a2,0x5
    2764:	2ce42823          	sw	a4,720(s0)
    2768:	00900593          	li	a1,9
    276c:	04010513          	addi	a0,sp,64
    2770:	70078793          	addi	a5,a5,1792 # 5700 <__global_pointer+0xb07>
    2774:	70c60613          	addi	a2,a2,1804 # 570c <__global_pointer+0xb13>
    2778:	01400713          	li	a4,20
    277c:	06400693          	li	a3,100
    2780:	f71fd0ef          	jal	6f0 <new_enemy>
    2784:	04012603          	lw	a2,64(sp)
    2788:	04412683          	lw	a3,68(sp)
    278c:	04812703          	lw	a4,72(sp)
    2790:	40c42423          	sw	a2,1032(s0)
    2794:	40d42623          	sw	a3,1036(s0)
    2798:	40e42823          	sw	a4,1040(s0)
    279c:	04c12603          	lw	a2,76(sp)
    27a0:	05012683          	lw	a3,80(sp)
    27a4:	05412703          	lw	a4,84(sp)
    27a8:	40c42a23          	sw	a2,1044(s0)
    27ac:	40d42c23          	sw	a3,1048(s0)
    27b0:	40e42e23          	sw	a4,1052(s0)
    27b4:	05812603          	lw	a2,88(sp)
    27b8:	000057b7          	lui	a5,0x5
    27bc:	8a078793          	addi	a5,a5,-1888 # 48a0 <mytime+0x1c>
    27c0:	0507a683          	lw	a3,80(a5)
    27c4:	0547a703          	lw	a4,84(a5)
    27c8:	42c42023          	sw	a2,1056(s0)
    27cc:	0587a603          	lw	a2,88(a5)
    27d0:	10d12423          	sw	a3,264(sp)
    27d4:	10e12623          	sw	a4,268(sp)
    27d8:	05c7a683          	lw	a3,92(a5)
    27dc:	0607a703          	lw	a4,96(a5)
    27e0:	10c12823          	sw	a2,272(sp)
    27e4:	0647a603          	lw	a2,100(a5)
    27e8:	10d12a23          	sw	a3,276(sp)
    27ec:	10e12c23          	sw	a4,280(sp)
    27f0:	0687a683          	lw	a3,104(a5)
    27f4:	06c7a703          	lw	a4,108(a5)
    27f8:	10c12e23          	sw	a2,284(sp)
    27fc:	0707a603          	lw	a2,112(a5)
    2800:	0ed12023          	sw	a3,224(sp)
    2804:	0ee12223          	sw	a4,228(sp)
    2808:	0747a683          	lw	a3,116(a5)
    280c:	0ec12423          	sw	a2,232(sp)
    2810:	08c7a803          	lw	a6,140(a5)
    2814:	0787af83          	lw	t6,120(a5)
    2818:	07c7af03          	lw	t5,124(a5)
    281c:	0807ae83          	lw	t4,128(a5)
    2820:	0847ae03          	lw	t3,132(a5)
    2824:	0887a303          	lw	t1,136(a5)
    2828:	00005737          	lui	a4,0x5
    282c:	00005637          	lui	a2,0x5
    2830:	71470793          	addi	a5,a4,1812 # 5714 <__global_pointer+0xb1b>
    2834:	0ed12623          	sw	a3,236(sp)
    2838:	00000713          	li	a4,0
    283c:	00100593          	li	a1,1
    2840:	00010513          	mv	a0,sp
    2844:	10810693          	addi	a3,sp,264
    2848:	74460613          	addi	a2,a2,1860 # 5744 <__global_pointer+0xb4b>
    284c:	0cf12e23          	sw	a5,220(sp)
    2850:	11012223          	sw	a6,260(sp)
    2854:	0ff12823          	sw	t6,240(sp)
    2858:	0fe12a23          	sw	t5,244(sp)
    285c:	0fd12c23          	sw	t4,248(sp)
    2860:	0fc12e23          	sw	t3,252(sp)
    2864:	10612023          	sw	t1,256(sp)
    2868:	ec9fd0ef          	jal	730 <new_npc>
    286c:	00010713          	mv	a4,sp
    2870:	0a840793          	addi	a5,s0,168
    2874:	03010813          	addi	a6,sp,48
    2878:	00072503          	lw	a0,0(a4)
    287c:	00472583          	lw	a1,4(a4)
    2880:	00872603          	lw	a2,8(a4)
    2884:	00c72683          	lw	a3,12(a4)
    2888:	00a7a023          	sw	a0,0(a5)
    288c:	00b7a223          	sw	a1,4(a5)
    2890:	00c7a423          	sw	a2,8(a5)
    2894:	00d7a623          	sw	a3,12(a5)
    2898:	01070713          	addi	a4,a4,16
    289c:	01078793          	addi	a5,a5,16
    28a0:	fd071ce3          	bne	a4,a6,2878 <room_init+0x584>
    28a4:	00082703          	lw	a4,0(a6)
    28a8:	00005637          	lui	a2,0x5
    28ac:	74c60613          	addi	a2,a2,1868 # 574c <__global_pointer+0xb53>
    28b0:	00e7a023          	sw	a4,0(a5)
    28b4:	0e010693          	addi	a3,sp,224
    28b8:	00000713          	li	a4,0
    28bc:	00400593          	li	a1,4
    28c0:	00010513          	mv	a0,sp
    28c4:	e6dfd0ef          	jal	730 <new_npc>
    28c8:	00010713          	mv	a4,sp
    28cc:	1f840793          	addi	a5,s0,504
    28d0:	03010813          	addi	a6,sp,48
    28d4:	00072503          	lw	a0,0(a4)
    28d8:	00472583          	lw	a1,4(a4)
    28dc:	00872603          	lw	a2,8(a4)
    28e0:	00c72683          	lw	a3,12(a4)
    28e4:	00a7a023          	sw	a0,0(a5)
    28e8:	00b7a223          	sw	a1,4(a5)
    28ec:	00c7a423          	sw	a2,8(a5)
    28f0:	00d7a623          	sw	a3,12(a5)
    28f4:	01070713          	addi	a4,a4,16
    28f8:	01078793          	addi	a5,a5,16
    28fc:	fd071ce3          	bne	a4,a6,28d4 <room_init+0x5e0>
    2900:	00082703          	lw	a4,0(a6)
    2904:	00005637          	lui	a2,0x5
    2908:	75860613          	addi	a2,a2,1880 # 5758 <__global_pointer+0xb5f>
    290c:	00e7a023          	sw	a4,0(a5)
    2910:	0dc10693          	addi	a3,sp,220
    2914:	00100713          	li	a4,1
    2918:	00500593          	li	a1,5
    291c:	00010513          	mv	a0,sp
    2920:	e11fd0ef          	jal	730 <new_npc>
    2924:	00010713          	mv	a4,sp
    2928:	26840793          	addi	a5,s0,616
    292c:	03010813          	addi	a6,sp,48
    2930:	00072503          	lw	a0,0(a4)
    2934:	00472583          	lw	a1,4(a4)
    2938:	00872603          	lw	a2,8(a4)
    293c:	00c72683          	lw	a3,12(a4)
    2940:	00a7a023          	sw	a0,0(a5)
    2944:	00b7a223          	sw	a1,4(a5)
    2948:	00c7a423          	sw	a2,8(a5)
    294c:	00d7a623          	sw	a3,12(a5)
    2950:	01070713          	addi	a4,a4,16
    2954:	01078793          	addi	a5,a5,16
    2958:	fd071ce3          	bne	a4,a6,2930 <room_init+0x63c>
    295c:	00082703          	lw	a4,0(a6)
    2960:	000056b7          	lui	a3,0x5
    2964:	6f868613          	addi	a2,a3,1784 # 56f8 <__global_pointer+0xaff>
    2968:	00e7a023          	sw	a4,0(a5)
    296c:	0f410693          	addi	a3,sp,244
    2970:	00000713          	li	a4,0
    2974:	00600593          	li	a1,6
    2978:	00010513          	mv	a0,sp
    297c:	db5fd0ef          	jal	730 <new_npc>
    2980:	00010793          	mv	a5,sp
    2984:	2d840413          	addi	s0,s0,728
    2988:	03010813          	addi	a6,sp,48
    298c:	0007a583          	lw	a1,0(a5)
    2990:	0047a603          	lw	a2,4(a5)
    2994:	0087a683          	lw	a3,8(a5)
    2998:	00c7a703          	lw	a4,12(a5)
    299c:	00b42023          	sw	a1,0(s0)
    29a0:	00c42223          	sw	a2,4(s0)
    29a4:	00d42423          	sw	a3,8(s0)
    29a8:	00e42623          	sw	a4,12(s0)
    29ac:	01078793          	addi	a5,a5,16
    29b0:	01040413          	addi	s0,s0,16
    29b4:	fd079ce3          	bne	a5,a6,298c <room_init+0x698>
    29b8:	0007a783          	lw	a5,0(a5)
    29bc:	12c12083          	lw	ra,300(sp)
    29c0:	00f42023          	sw	a5,0(s0)
    29c4:	12812403          	lw	s0,296(sp)
    29c8:	13010113          	addi	sp,sp,304
    29cc:	00008067          	ret

000029d0 <player_init>:
    29d0:	000055b7          	lui	a1,0x5
    29d4:	ff010113          	addi	sp,sp,-16
    29d8:	76058593          	addi	a1,a1,1888 # 5760 <__global_pointer+0xb67>
    29dc:	01600613          	li	a2,22
    29e0:	00100513          	li	a0,1
    29e4:	00112623          	sw	ra,12(sp)
    29e8:	f9cfd0ef          	jal	184 <new_player>
    29ec:	00c12083          	lw	ra,12(sp)
    29f0:	000057b7          	lui	a5,0x5
    29f4:	86a7ac23          	sw	a0,-1928(a5) # 4878 <p>
    29f8:	01010113          	addi	sp,sp,16
    29fc:	00008067          	ret

00002a00 <room_exits>:
    2a00:	fd010113          	addi	sp,sp,-48
    2a04:	02912223          	sw	s1,36(sp)
    2a08:	01412c23          	sw	s4,24(sp)
    2a0c:	01512a23          	sw	s5,20(sp)
    2a10:	01612823          	sw	s6,16(sp)
    2a14:	000054b7          	lui	s1,0x5
    2a18:	00005b37          	lui	s6,0x5
    2a1c:	00005ab7          	lui	s5,0x5
    2a20:	00004a37          	lui	s4,0x4
    2a24:	03212023          	sw	s2,32(sp)
    2a28:	01312e23          	sw	s3,28(sp)
    2a2c:	01712623          	sw	s7,12(sp)
    2a30:	01812423          	sw	s8,8(sp)
    2a34:	02112623          	sw	ra,44(sp)
    2a38:	02812423          	sw	s0,40(sp)
    2a3c:	00050993          	mv	s3,a0
    2a40:	c5048493          	addi	s1,s1,-944 # 4c50 <__global_pointer+0x57>
    2a44:	a14b0b13          	addi	s6,s6,-1516 # 4a14 <mytime+0x190>
    2a48:	9dca8a93          	addi	s5,s5,-1572 # 49dc <mytime+0x158>
    2a4c:	408a0a13          	addi	s4,s4,1032 # 4408 <rooms>
    2a50:	00005c37          	lui	s8,0x5
    2a54:	00005937          	lui	s2,0x5
    2a58:	00200b93          	li	s7,2
    2a5c:	02800413          	li	s0,40
    2a60:	00048513          	mv	a0,s1
    2a64:	fff40413          	addi	s0,s0,-1
    2a68:	f05fd0ef          	jal	96c <print>
    2a6c:	fe041ae3          	bnez	s0,2a60 <room_exits+0x60>
    2a70:	000b0513          	mv	a0,s6
    2a74:	ef9fd0ef          	jal	96c <print>
    2a78:	0049a503          	lw	a0,4(s3)
    2a7c:	ef1fd0ef          	jal	96c <print>
    2a80:	a24c0513          	addi	a0,s8,-1500 # 4a24 <mytime+0x1a0>
    2a84:	ee9fd0ef          	jal	96c <print>
    2a88:	00c9a783          	lw	a5,12(s3)
    2a8c:	0a079e63          	bnez	a5,2b48 <room_exits+0x148>
    2a90:	0109a783          	lw	a5,16(s3)
    2a94:	04079063          	bnez	a5,2ad4 <room_exits+0xd4>
    2a98:	0149a783          	lw	a5,20(s3)
    2a9c:	06079a63          	bnez	a5,2b10 <room_exits+0x110>
    2aa0:	86092a23          	sw	zero,-1932(s2) # 4874 <option>
    2aa4:	00a00513          	li	a0,10
    2aa8:	e81fd0ef          	jal	928 <delay>
    2aac:	87492783          	lw	a5,-1932(s2)
    2ab0:	fe078ae3          	beqz	a5,2aa4 <room_exits+0xa4>
    2ab4:	fff78793          	addi	a5,a5,-1
    2ab8:	00fbea63          	bltu	s7,a5,2acc <room_exits+0xcc>
    2abc:	00279793          	slli	a5,a5,0x2
    2ac0:	00f987b3          	add	a5,s3,a5
    2ac4:	00c7a783          	lw	a5,12(a5)
    2ac8:	0a079c63          	bnez	a5,2b80 <room_exits+0x180>
    2acc:	86092a23          	sw	zero,-1932(s2)
    2ad0:	f8dff06f          	j	2a5c <room_exits+0x5c>
    2ad4:	00200513          	li	a0,2
    2ad8:	ecdfd0ef          	jal	9a4 <print_dec>
    2adc:	000a8513          	mv	a0,s5
    2ae0:	e8dfd0ef          	jal	96c <print>
    2ae4:	0109a703          	lw	a4,16(s3)
    2ae8:	00371793          	slli	a5,a4,0x3
    2aec:	40e787b3          	sub	a5,a5,a4
    2af0:	00479793          	slli	a5,a5,0x4
    2af4:	00fa07b3          	add	a5,s4,a5
    2af8:	0047a503          	lw	a0,4(a5)
    2afc:	e71fd0ef          	jal	96c <print>
    2b00:	00048513          	mv	a0,s1
    2b04:	e69fd0ef          	jal	96c <print>
    2b08:	0149a783          	lw	a5,20(s3)
    2b0c:	f8078ae3          	beqz	a5,2aa0 <room_exits+0xa0>
    2b10:	00300513          	li	a0,3
    2b14:	e91fd0ef          	jal	9a4 <print_dec>
    2b18:	000a8513          	mv	a0,s5
    2b1c:	e51fd0ef          	jal	96c <print>
    2b20:	0149a703          	lw	a4,20(s3)
    2b24:	00371793          	slli	a5,a4,0x3
    2b28:	40e787b3          	sub	a5,a5,a4
    2b2c:	00479793          	slli	a5,a5,0x4
    2b30:	00fa07b3          	add	a5,s4,a5
    2b34:	0047a503          	lw	a0,4(a5)
    2b38:	e35fd0ef          	jal	96c <print>
    2b3c:	00048513          	mv	a0,s1
    2b40:	e2dfd0ef          	jal	96c <print>
    2b44:	f5dff06f          	j	2aa0 <room_exits+0xa0>
    2b48:	00100513          	li	a0,1
    2b4c:	e59fd0ef          	jal	9a4 <print_dec>
    2b50:	000a8513          	mv	a0,s5
    2b54:	e19fd0ef          	jal	96c <print>
    2b58:	00c9a703          	lw	a4,12(s3)
    2b5c:	00371793          	slli	a5,a4,0x3
    2b60:	40e787b3          	sub	a5,a5,a4
    2b64:	00479793          	slli	a5,a5,0x4
    2b68:	00fa07b3          	add	a5,s4,a5
    2b6c:	0047a503          	lw	a0,4(a5)
    2b70:	dfdfd0ef          	jal	96c <print>
    2b74:	00048513          	mv	a0,s1
    2b78:	df5fd0ef          	jal	96c <print>
    2b7c:	f15ff06f          	j	2a90 <room_exits+0x90>
    2b80:	00004737          	lui	a4,0x4
    2b84:	3fc72583          	lw	a1,1020(a4) # 43fc <current_room>
    2b88:	02c12083          	lw	ra,44(sp)
    2b8c:	02812403          	lw	s0,40(sp)
    2b90:	00005637          	lui	a2,0x5
    2b94:	000056b7          	lui	a3,0x5
    2b98:	3ef72e23          	sw	a5,1020(a4)
    2b9c:	86b62423          	sw	a1,-1944(a2) # 4868 <prev_room>
    2ba0:	8606a623          	sw	zero,-1940(a3) # 486c <next_room>
    2ba4:	02412483          	lw	s1,36(sp)
    2ba8:	02012903          	lw	s2,32(sp)
    2bac:	01c12983          	lw	s3,28(sp)
    2bb0:	01812a03          	lw	s4,24(sp)
    2bb4:	01412a83          	lw	s5,20(sp)
    2bb8:	01012b03          	lw	s6,16(sp)
    2bbc:	00c12b83          	lw	s7,12(sp)
    2bc0:	00812c03          	lw	s8,8(sp)
    2bc4:	03010113          	addi	sp,sp,48
    2bc8:	00008067          	ret

00002bcc <talk_to_npc>:
    2bcc:	fe010113          	addi	sp,sp,-32
    2bd0:	01412423          	sw	s4,8(sp)
    2bd4:	00050a13          	mv	s4,a0
    2bd8:	00001537          	lui	a0,0x1
    2bdc:	01312623          	sw	s3,12(sp)
    2be0:	fa050513          	addi	a0,a0,-96 # fa0 <combat.part.0+0x58>
    2be4:	000059b7          	lui	s3,0x5
    2be8:	00812c23          	sw	s0,24(sp)
    2bec:	00912a23          	sw	s1,20(sp)
    2bf0:	01512223          	sw	s5,4(sp)
    2bf4:	00112e23          	sw	ra,28(sp)
    2bf8:	01212823          	sw	s2,16(sp)
    2bfc:	00058a93          	mv	s5,a1
    2c00:	c5098493          	addi	s1,s3,-944 # 4c50 <__global_pointer+0x57>
    2c04:	d25fd0ef          	jal	928 <delay>
    2c08:	02800413          	li	s0,40
    2c0c:	00048513          	mv	a0,s1
    2c10:	fff40413          	addi	s0,s0,-1
    2c14:	d59fd0ef          	jal	96c <print>
    2c18:	fe041ae3          	bnez	s0,2c0c <talk_to_npc+0x40>
    2c1c:	03ca2503          	lw	a0,60(s4)
    2c20:	000055b7          	lui	a1,0x5
    2c24:	74458593          	addi	a1,a1,1860 # 5744 <__global_pointer+0xb4b>
    2c28:	920fe0ef          	jal	d48 <strcmp>
    2c2c:	00050913          	mv	s2,a0
    2c30:	0c051663          	bnez	a0,2cfc <talk_to_npc+0x130>
    2c34:	040a2783          	lw	a5,64(s4)
    2c38:	040a0413          	addi	s0,s4,64
    2c3c:	06078863          	beqz	a5,2cac <talk_to_npc+0xe0>
    2c40:	00005ab7          	lui	s5,0x5
    2c44:	000057b7          	lui	a5,0x5
    2c48:	c5098493          	addi	s1,s3,-944
    2c4c:	778a8a93          	addi	s5,s5,1912 # 5778 <__global_pointer+0xb7f>
    2c50:	dc878993          	addi	s3,a5,-568 # 4dc8 <__global_pointer+0x1cf>
    2c54:	0440006f          	j	2c98 <talk_to_npc+0xcc>
    2c58:	d15fd0ef          	jal	96c <print>
    2c5c:	03ca2503          	lw	a0,60(s4)
    2c60:	d0dfd0ef          	jal	96c <print>
    2c64:	00098513          	mv	a0,s3
    2c68:	d05fd0ef          	jal	96c <print>
    2c6c:	00042503          	lw	a0,0(s0)
    2c70:	00440413          	addi	s0,s0,4
    2c74:	00190913          	addi	s2,s2,1
    2c78:	cf5fd0ef          	jal	96c <print>
    2c7c:	00048513          	mv	a0,s1
    2c80:	cedfd0ef          	jal	96c <print>
    2c84:	00001537          	lui	a0,0x1
    2c88:	fa050513          	addi	a0,a0,-96 # fa0 <combat.part.0+0x58>
    2c8c:	c9dfd0ef          	jal	928 <delay>
    2c90:	00042783          	lw	a5,0(s0)
    2c94:	00078c63          	beqz	a5,2cac <talk_to_npc+0xe0>
    2c98:	00197793          	andi	a5,s2,1
    2c9c:	00048513          	mv	a0,s1
    2ca0:	fa078ce3          	beqz	a5,2c58 <talk_to_npc+0x8c>
    2ca4:	000a8513          	mv	a0,s5
    2ca8:	fc1ff06f          	j	2c68 <talk_to_npc+0x9c>
    2cac:	00005537          	lui	a0,0x5
    2cb0:	76850513          	addi	a0,a0,1896 # 5768 <__global_pointer+0xb6f>
    2cb4:	cb9fd0ef          	jal	96c <print>
    2cb8:	00005437          	lui	s0,0x5
    2cbc:	87442783          	lw	a5,-1932(s0) # 4874 <option>
    2cc0:	00079a63          	bnez	a5,2cd4 <talk_to_npc+0x108>
    2cc4:	00a00513          	li	a0,10
    2cc8:	c61fd0ef          	jal	928 <delay>
    2ccc:	87442783          	lw	a5,-1932(s0)
    2cd0:	fe078ae3          	beqz	a5,2cc4 <talk_to_npc+0xf8>
    2cd4:	000a0513          	mv	a0,s4
    2cd8:	01812403          	lw	s0,24(sp)
    2cdc:	01c12083          	lw	ra,28(sp)
    2ce0:	01412483          	lw	s1,20(sp)
    2ce4:	01012903          	lw	s2,16(sp)
    2ce8:	00c12983          	lw	s3,12(sp)
    2cec:	00812a03          	lw	s4,8(sp)
    2cf0:	00412a83          	lw	s5,4(sp)
    2cf4:	02010113          	addi	sp,sp,32
    2cf8:	884fe06f          	j	d7c <room_exits.constprop.0>
    2cfc:	03ca2503          	lw	a0,60(s4)
    2d00:	000055b7          	lui	a1,0x5
    2d04:	74c58593          	addi	a1,a1,1868 # 574c <__global_pointer+0xb53>
    2d08:	840fe0ef          	jal	d48 <strcmp>
    2d0c:	0e051663          	bnez	a0,2df8 <talk_to_npc+0x22c>
    2d10:	00048513          	mv	a0,s1
    2d14:	01612023          	sw	s6,0(sp)
    2d18:	c55fd0ef          	jal	96c <print>
    2d1c:	03ca2503          	lw	a0,60(s4)
    2d20:	00005437          	lui	s0,0x5
    2d24:	00100913          	li	s2,1
    2d28:	c45fd0ef          	jal	96c <print>
    2d2c:	00005537          	lui	a0,0x5
    2d30:	dc850513          	addi	a0,a0,-568 # 4dc8 <__global_pointer+0x1cf>
    2d34:	c39fd0ef          	jal	96c <print>
    2d38:	040a2503          	lw	a0,64(s4)
    2d3c:	00200b13          	li	s6,2
    2d40:	c2dfd0ef          	jal	96c <print>
    2d44:	00048513          	mv	a0,s1
    2d48:	c25fd0ef          	jal	96c <print>
    2d4c:	00005537          	lui	a0,0x5
    2d50:	77c50513          	addi	a0,a0,1916 # 577c <__global_pointer+0xb83>
    2d54:	c19fd0ef          	jal	96c <print>
    2d58:	010aa503          	lw	a0,16(s5)
    2d5c:	c49fd0ef          	jal	9a4 <print_dec>
    2d60:	00048513          	mv	a0,s1
    2d64:	c09fd0ef          	jal	96c <print>
    2d68:	044a2503          	lw	a0,68(s4)
    2d6c:	01800493          	li	s1,24
    2d70:	bfdfd0ef          	jal	96c <print>
    2d74:	048a2503          	lw	a0,72(s4)
    2d78:	bf5fd0ef          	jal	96c <print>
    2d7c:	86042a23          	sw	zero,-1932(s0) # 4874 <option>
    2d80:	00a00513          	li	a0,10
    2d84:	ba5fd0ef          	jal	928 <delay>
    2d88:	87442783          	lw	a5,-1932(s0)
    2d8c:	fe078ae3          	beqz	a5,2d80 <talk_to_npc+0x1b4>
    2d90:	010aa703          	lw	a4,16(s5)
    2d94:	1ce4d663          	bge	s1,a4,2f60 <talk_to_npc+0x394>
    2d98:	1f278463          	beq	a5,s2,2f80 <talk_to_npc+0x3b4>
    2d9c:	ff6790e3          	bne	a5,s6,2d7c <talk_to_npc+0x1b0>
    2da0:	7d000513          	li	a0,2000
    2da4:	86042a23          	sw	zero,-1932(s0)
    2da8:	b81fd0ef          	jal	928 <delay>
    2dac:	00005537          	lui	a0,0x5
    2db0:	7b050513          	addi	a0,a0,1968 # 57b0 <__global_pointer+0xbb7>
    2db4:	bb9fd0ef          	jal	96c <print>
    2db8:	050a2503          	lw	a0,80(s4)
    2dbc:	bb1fd0ef          	jal	96c <print>
    2dc0:	00001537          	lui	a0,0x1
    2dc4:	fa050513          	addi	a0,a0,-96 # fa0 <combat.part.0+0x58>
    2dc8:	b61fd0ef          	jal	928 <delay>
    2dcc:	00005537          	lui	a0,0x5
    2dd0:	7f050513          	addi	a0,a0,2032 # 57f0 <__global_pointer+0xbf7>
    2dd4:	b99fd0ef          	jal	96c <print>
    2dd8:	87442783          	lw	a5,-1932(s0)
    2ddc:	00079a63          	bnez	a5,2df0 <talk_to_npc+0x224>
    2de0:	00a00513          	li	a0,10
    2de4:	b45fd0ef          	jal	928 <delay>
    2de8:	87442783          	lw	a5,-1932(s0)
    2dec:	fe078ae3          	beqz	a5,2de0 <talk_to_npc+0x214>
    2df0:	00012b03          	lw	s6,0(sp)
    2df4:	ee1ff06f          	j	2cd4 <talk_to_npc+0x108>
    2df8:	03ca2503          	lw	a0,60(s4)
    2dfc:	000055b7          	lui	a1,0x5
    2e00:	75858593          	addi	a1,a1,1880 # 5758 <__global_pointer+0xb5f>
    2e04:	f45fd0ef          	jal	d48 <strcmp>
    2e08:	10050a63          	beqz	a0,2f1c <talk_to_npc+0x350>
    2e0c:	03ca2503          	lw	a0,60(s4)
    2e10:	000055b7          	lui	a1,0x5
    2e14:	6f858593          	addi	a1,a1,1784 # 56f8 <__global_pointer+0xaff>
    2e18:	f31fd0ef          	jal	d48 <strcmp>
    2e1c:	0c051e63          	bnez	a0,2ef8 <talk_to_npc+0x32c>
    2e20:	020a2783          	lw	a5,32(s4)
    2e24:	26f05463          	blez	a5,308c <talk_to_npc+0x4c0>
    2e28:	00048513          	mv	a0,s1
    2e2c:	01612023          	sw	s6,0(sp)
    2e30:	b3dfd0ef          	jal	96c <print>
    2e34:	03ca2503          	lw	a0,60(s4)
    2e38:	00005437          	lui	s0,0x5
    2e3c:	03100913          	li	s2,49
    2e40:	b2dfd0ef          	jal	96c <print>
    2e44:	00005537          	lui	a0,0x5
    2e48:	dc850513          	addi	a0,a0,-568 # 4dc8 <__global_pointer+0x1cf>
    2e4c:	b21fd0ef          	jal	96c <print>
    2e50:	040a2503          	lw	a0,64(s4)
    2e54:	00100493          	li	s1,1
    2e58:	00200b13          	li	s6,2
    2e5c:	b11fd0ef          	jal	96c <print>
    2e60:	044a2503          	lw	a0,68(s4)
    2e64:	b09fd0ef          	jal	96c <print>
    2e68:	048a2503          	lw	a0,72(s4)
    2e6c:	b01fd0ef          	jal	96c <print>
    2e70:	86042a23          	sw	zero,-1932(s0) # 4874 <option>
    2e74:	00a00513          	li	a0,10
    2e78:	ab1fd0ef          	jal	928 <delay>
    2e7c:	87442783          	lw	a5,-1932(s0)
    2e80:	fe078ae3          	beqz	a5,2e74 <talk_to_npc+0x2a8>
    2e84:	010aa703          	lw	a4,16(s5)
    2e88:	1ee95263          	bge	s2,a4,306c <talk_to_npc+0x4a0>
    2e8c:	18978063          	beq	a5,s1,300c <talk_to_npc+0x440>
    2e90:	ff6790e3          	bne	a5,s6,2e70 <talk_to_npc+0x2a4>
    2e94:	c5098513          	addi	a0,s3,-944
    2e98:	86042a23          	sw	zero,-1932(s0)
    2e9c:	ad1fd0ef          	jal	96c <print>
    2ea0:	050a2503          	lw	a0,80(s4)
    2ea4:	ac9fd0ef          	jal	96c <print>
    2ea8:	00001537          	lui	a0,0x1
    2eac:	fa050513          	addi	a0,a0,-96 # fa0 <combat.part.0+0x58>
    2eb0:	a79fd0ef          	jal	928 <delay>
    2eb4:	034a2783          	lw	a5,52(s4)
    2eb8:	00078c63          	beqz	a5,2ed0 <talk_to_npc+0x304>
    2ebc:	020a2783          	lw	a5,32(s4)
    2ec0:	00f05863          	blez	a5,2ed0 <talk_to_npc+0x304>
    2ec4:	000a8593          	mv	a1,s5
    2ec8:	000a0513          	mv	a0,s4
    2ecc:	87cfe0ef          	jal	f48 <combat.part.0>
    2ed0:	000057b7          	lui	a5,0x5
    2ed4:	86c7a703          	lw	a4,-1940(a5) # 486c <next_room>
    2ed8:	f0070ce3          	beqz	a4,2df0 <talk_to_npc+0x224>
    2edc:	8607a623          	sw	zero,-1940(a5)
    2ee0:	000047b7          	lui	a5,0x4
    2ee4:	3fc7a603          	lw	a2,1020(a5) # 43fc <current_room>
    2ee8:	00012b03          	lw	s6,0(sp)
    2eec:	000056b7          	lui	a3,0x5
    2ef0:	3ee7ae23          	sw	a4,1020(a5)
    2ef4:	86c6a423          	sw	a2,-1944(a3) # 4868 <prev_room>
    2ef8:	01c12083          	lw	ra,28(sp)
    2efc:	01812403          	lw	s0,24(sp)
    2f00:	01412483          	lw	s1,20(sp)
    2f04:	01012903          	lw	s2,16(sp)
    2f08:	00c12983          	lw	s3,12(sp)
    2f0c:	00812a03          	lw	s4,8(sp)
    2f10:	00412a83          	lw	s5,4(sp)
    2f14:	02010113          	addi	sp,sp,32
    2f18:	00008067          	ret
    2f1c:	00048513          	mv	a0,s1
    2f20:	a4dfd0ef          	jal	96c <print>
    2f24:	03ca2503          	lw	a0,60(s4)
    2f28:	a45fd0ef          	jal	96c <print>
    2f2c:	00005537          	lui	a0,0x5
    2f30:	dc850513          	addi	a0,a0,-568 # 4dc8 <__global_pointer+0x1cf>
    2f34:	a39fd0ef          	jal	96c <print>
    2f38:	040a2503          	lw	a0,64(s4)
    2f3c:	a31fd0ef          	jal	96c <print>
    2f40:	00048513          	mv	a0,s1
    2f44:	a29fd0ef          	jal	96c <print>
    2f48:	00001537          	lui	a0,0x1
    2f4c:	bb850513          	addi	a0,a0,-1096 # bb8 <handle_exception+0xf8>
    2f50:	9d9fd0ef          	jal	928 <delay>
    2f54:	000a8513          	mv	a0,s5
    2f58:	f19fe0ef          	jal	1e70 <shop>
    2f5c:	d79ff06f          	j	2cd4 <talk_to_npc+0x108>
    2f60:	00200713          	li	a4,2
    2f64:	e2e78ee3          	beq	a5,a4,2da0 <talk_to_npc+0x1d4>
    2f68:	00005537          	lui	a0,0x5
    2f6c:	7d050513          	addi	a0,a0,2000 # 57d0 <__global_pointer+0xbd7>
    2f70:	9fdfd0ef          	jal	96c <print>
    2f74:	7d000513          	li	a0,2000
    2f78:	9b1fd0ef          	jal	928 <delay>
    2f7c:	e25ff06f          	j	2da0 <talk_to_npc+0x1d4>
    2f80:	fe770713          	addi	a4,a4,-25
    2f84:	00005537          	lui	a0,0x5
    2f88:	00eaa823          	sw	a4,16(s5)
    2f8c:	78c50513          	addi	a0,a0,1932 # 578c <__global_pointer+0xb93>
    2f90:	86042a23          	sw	zero,-1932(s0)
    2f94:	9d9fd0ef          	jal	96c <print>
    2f98:	010aa503          	lw	a0,16(s5)
    2f9c:	a09fd0ef          	jal	9a4 <print_dec>
    2fa0:	00005537          	lui	a0,0x5
    2fa4:	7a850513          	addi	a0,a0,1960 # 57a8 <__global_pointer+0xbaf>
    2fa8:	9c5fd0ef          	jal	96c <print>
    2fac:	00001537          	lui	a0,0x1
    2fb0:	fa050513          	addi	a0,a0,-96 # fa0 <combat.part.0+0x58>
    2fb4:	975fd0ef          	jal	928 <delay>
    2fb8:	00005537          	lui	a0,0x5
    2fbc:	7b050513          	addi	a0,a0,1968 # 57b0 <__global_pointer+0xbb7>
    2fc0:	9adfd0ef          	jal	96c <print>
    2fc4:	04ca2503          	lw	a0,76(s4)
    2fc8:	9a5fd0ef          	jal	96c <print>
    2fcc:	c5098513          	addi	a0,s3,-944
    2fd0:	99dfd0ef          	jal	96c <print>
    2fd4:	00002537          	lui	a0,0x2
    2fd8:	f4050513          	addi	a0,a0,-192 # 1f40 <shop+0xd0>
    2fdc:	94dfd0ef          	jal	928 <delay>
    2fe0:	00005537          	lui	a0,0x5
    2fe4:	7c050513          	addi	a0,a0,1984 # 57c0 <__global_pointer+0xbc7>
    2fe8:	985fd0ef          	jal	96c <print>
    2fec:	87442783          	lw	a5,-1932(s0)
    2ff0:	e00790e3          	bnez	a5,2df0 <talk_to_npc+0x224>
    2ff4:	00a00513          	li	a0,10
    2ff8:	931fd0ef          	jal	928 <delay>
    2ffc:	87442783          	lw	a5,-1932(s0)
    3000:	fe078ae3          	beqz	a5,2ff4 <talk_to_npc+0x428>
    3004:	00012b03          	lw	s6,0(sp)
    3008:	ccdff06f          	j	2cd4 <talk_to_npc+0x108>
    300c:	fce70713          	addi	a4,a4,-50
    3010:	00006537          	lui	a0,0x6
    3014:	00eaa823          	sw	a4,16(s5)
    3018:	82850513          	addi	a0,a0,-2008 # 5828 <__global_pointer+0xc2f>
    301c:	86042a23          	sw	zero,-1932(s0)
    3020:	94dfd0ef          	jal	96c <print>
    3024:	010aa503          	lw	a0,16(s5)
    3028:	97dfd0ef          	jal	9a4 <print_dec>
    302c:	00005537          	lui	a0,0x5
    3030:	7a850513          	addi	a0,a0,1960 # 57a8 <__global_pointer+0xbaf>
    3034:	939fd0ef          	jal	96c <print>
    3038:	7d000513          	li	a0,2000
    303c:	8edfd0ef          	jal	928 <delay>
    3040:	00006537          	lui	a0,0x6
    3044:	84450513          	addi	a0,a0,-1980 # 5844 <__global_pointer+0xc4b>
    3048:	925fd0ef          	jal	96c <print>
    304c:	04ca2503          	lw	a0,76(s4)
    3050:	91dfd0ef          	jal	96c <print>
    3054:	00001537          	lui	a0,0x1
    3058:	fa050513          	addi	a0,a0,-96 # fa0 <combat.part.0+0x58>
    305c:	8cdfd0ef          	jal	928 <delay>
    3060:	000a0513          	mv	a0,s4
    3064:	00012b03          	lw	s6,0(sp)
    3068:	c71ff06f          	j	2cd8 <talk_to_npc+0x10c>
    306c:	00200713          	li	a4,2
    3070:	e2e782e3          	beq	a5,a4,2e94 <talk_to_npc+0x2c8>
    3074:	00005537          	lui	a0,0x5
    3078:	7d050513          	addi	a0,a0,2000 # 57d0 <__global_pointer+0xbd7>
    307c:	8f1fd0ef          	jal	96c <print>
    3080:	3e800513          	li	a0,1000
    3084:	8a5fd0ef          	jal	928 <delay>
    3088:	e0dff06f          	j	2e94 <talk_to_npc+0x2c8>
    308c:	00005537          	lui	a0,0x5
    3090:	7fc50513          	addi	a0,a0,2044 # 57fc <__global_pointer+0xc03>
    3094:	8d9fd0ef          	jal	96c <print>
    3098:	7d000513          	li	a0,2000
    309c:	88dfd0ef          	jal	928 <delay>
    30a0:	00005537          	lui	a0,0x5
    30a4:	7f050513          	addi	a0,a0,2032 # 57f0 <__global_pointer+0xbf7>
    30a8:	8c5fd0ef          	jal	96c <print>
    30ac:	00005437          	lui	s0,0x5
    30b0:	87442783          	lw	a5,-1932(s0) # 4874 <option>
    30b4:	c20790e3          	bnez	a5,2cd4 <talk_to_npc+0x108>
    30b8:	00a00513          	li	a0,10
    30bc:	86dfd0ef          	jal	928 <delay>
    30c0:	87442783          	lw	a5,-1932(s0)
    30c4:	fe078ae3          	beqz	a5,30b8 <talk_to_npc+0x4ec>
    30c8:	c0dff06f          	j	2cd4 <talk_to_npc+0x108>

000030cc <win>:
    30cc:	ff010113          	addi	sp,sp,-16
    30d0:	00912223          	sw	s1,4(sp)
    30d4:	000054b7          	lui	s1,0x5
    30d8:	00812423          	sw	s0,8(sp)
    30dc:	00112623          	sw	ra,12(sp)
    30e0:	c5048493          	addi	s1,s1,-944 # 4c50 <__global_pointer+0x57>
    30e4:	02800413          	li	s0,40
    30e8:	00048513          	mv	a0,s1
    30ec:	fff40413          	addi	s0,s0,-1
    30f0:	87dfd0ef          	jal	96c <print>
    30f4:	fe041ae3          	bnez	s0,30e8 <win+0x1c>
    30f8:	000054b7          	lui	s1,0x5
    30fc:	8844a583          	lw	a1,-1916(s1) # 4884 <mytime>
    3100:	00006437          	lui	s0,0x6
    3104:	32440513          	addi	a0,s0,804 # 6324 <__global_pointer+0x172b>
    3108:	f54fd0ef          	jal	85c <time2string>
    310c:	00006537          	lui	a0,0x6
    3110:	9ac50513          	addi	a0,a0,-1620 # 59ac <__global_pointer+0xdb3>
    3114:	859fd0ef          	jal	96c <print>
    3118:	00001537          	lui	a0,0x1
    311c:	fa050513          	addi	a0,a0,-96 # fa0 <combat.part.0+0x58>
    3120:	809fd0ef          	jal	928 <delay>
    3124:	00006537          	lui	a0,0x6
    3128:	a0850513          	addi	a0,a0,-1528 # 5a08 <__global_pointer+0xe0f>
    312c:	841fd0ef          	jal	96c <print>
    3130:	00001537          	lui	a0,0x1
    3134:	fa050513          	addi	a0,a0,-96 # fa0 <combat.part.0+0x58>
    3138:	ff0fd0ef          	jal	928 <delay>
    313c:	00006537          	lui	a0,0x6
    3140:	a5c50513          	addi	a0,a0,-1444 # 5a5c <__global_pointer+0xe63>
    3144:	829fd0ef          	jal	96c <print>
    3148:	00001537          	lui	a0,0x1
    314c:	fa050513          	addi	a0,a0,-96 # fa0 <combat.part.0+0x58>
    3150:	fd8fd0ef          	jal	928 <delay>
    3154:	00006537          	lui	a0,0x6
    3158:	ad050513          	addi	a0,a0,-1328 # 5ad0 <__global_pointer+0xed7>
    315c:	811fd0ef          	jal	96c <print>
    3160:	00001537          	lui	a0,0x1
    3164:	fa050513          	addi	a0,a0,-96 # fa0 <combat.part.0+0x58>
    3168:	fc0fd0ef          	jal	928 <delay>
    316c:	00006537          	lui	a0,0x6
    3170:	b1050513          	addi	a0,a0,-1264 # 5b10 <__global_pointer+0xf17>
    3174:	ff8fd0ef          	jal	96c <print>
    3178:	00001537          	lui	a0,0x1
    317c:	fa050513          	addi	a0,a0,-96 # fa0 <combat.part.0+0x58>
    3180:	fa8fd0ef          	jal	928 <delay>
    3184:	00006537          	lui	a0,0x6
    3188:	b5c50513          	addi	a0,a0,-1188 # 5b5c <__global_pointer+0xf63>
    318c:	fe0fd0ef          	jal	96c <print>
    3190:	00001537          	lui	a0,0x1
    3194:	fa050513          	addi	a0,a0,-96 # fa0 <combat.part.0+0x58>
    3198:	f90fd0ef          	jal	928 <delay>
    319c:	00006537          	lui	a0,0x6
    31a0:	bd850513          	addi	a0,a0,-1064 # 5bd8 <__global_pointer+0xfdf>
    31a4:	fc8fd0ef          	jal	96c <print>
    31a8:	00006537          	lui	a0,0x6
    31ac:	bf850513          	addi	a0,a0,-1032 # 5bf8 <__global_pointer+0xfff>
    31b0:	fbcfd0ef          	jal	96c <print>
    31b4:	32440513          	addi	a0,s0,804
    31b8:	fb4fd0ef          	jal	96c <print>
    31bc:	00001537          	lui	a0,0x1
    31c0:	fa050513          	addi	a0,a0,-96 # fa0 <combat.part.0+0x58>
    31c4:	f64fd0ef          	jal	928 <delay>
    31c8:	00006537          	lui	a0,0x6
    31cc:	c0c50513          	addi	a0,a0,-1012 # 5c0c <__global_pointer+0x1013>
    31d0:	f9cfd0ef          	jal	96c <print>
    31d4:	00001537          	lui	a0,0x1
    31d8:	fa050513          	addi	a0,a0,-96 # fa0 <combat.part.0+0x58>
    31dc:	f4cfd0ef          	jal	928 <delay>
    31e0:	00006537          	lui	a0,0x6
    31e4:	04000437          	lui	s0,0x4000
    31e8:	c1850513          	addi	a0,a0,-1000 # 5c18 <__global_pointer+0x101f>
    31ec:	f80fd0ef          	jal	96c <print>
    31f0:	0d042783          	lw	a5,208(s0) # 40000d0 <_stack_end+0x3ef98f4>
    31f4:	0c042823          	sw	zero,208(s0)
    31f8:	0d040413          	addi	s0,s0,208
    31fc:	0017f793          	andi	a5,a5,1
    3200:	00079e63          	bnez	a5,321c <win+0x150>
    3204:	00a00513          	li	a0,10
    3208:	f20fd0ef          	jal	928 <delay>
    320c:	00042783          	lw	a5,0(s0)
    3210:	00042023          	sw	zero,0(s0)
    3214:	0017f793          	andi	a5,a5,1
    3218:	fe0786e3          	beqz	a5,3204 <win+0x138>
    321c:	000057b7          	lui	a5,0x5
    3220:	8807a023          	sw	zero,-1920(a5) # 4880 <hourtime>
    3224:	000057b7          	lui	a5,0x5
    3228:	00812403          	lw	s0,8(sp)
    322c:	8607ae23          	sw	zero,-1924(a5) # 487c <timeoutcount>
    3230:	000057b7          	lui	a5,0x5
    3234:	00c12083          	lw	ra,12(sp)
    3238:	8804a223          	sw	zero,-1916(s1)
    323c:	8607aa23          	sw	zero,-1932(a5) # 4874 <option>
    3240:	00412483          	lw	s1,4(sp)
    3244:	00100793          	li	a5,1
    3248:	00004537          	lui	a0,0x4
    324c:	000045b7          	lui	a1,0x4
    3250:	00005637          	lui	a2,0x5
    3254:	000056b7          	lui	a3,0x5
    3258:	00005737          	lui	a4,0x5
    325c:	40f52023          	sw	a5,1024(a0) # 4400 <alive>
    3260:	3ef5ae23          	sw	a5,1020(a1) # 43fc <current_room>
    3264:	86062823          	sw	zero,-1936(a2) # 4870 <in_combat>
    3268:	8606a623          	sw	zero,-1940(a3) # 486c <next_room>
    326c:	86072423          	sw	zero,-1944(a4) # 4868 <prev_room>
    3270:	01010113          	addi	sp,sp,16
    3274:	6150006f          	j	4088 <main>

00003278 <room_actions>:
    3278:	fa010113          	addi	sp,sp,-96
    327c:	05212823          	sw	s2,80(sp)
    3280:	00050913          	mv	s2,a0
    3284:	05312623          	sw	s3,76(sp)
    3288:	00492503          	lw	a0,4(s2)
    328c:	000059b7          	lui	s3,0x5
    3290:	15898993          	addi	s3,s3,344 # 5158 <__global_pointer+0x55f>
    3294:	05512223          	sw	s5,68(sp)
    3298:	05612023          	sw	s6,64(sp)
    329c:	03712e23          	sw	s7,60(sp)
    32a0:	03812c23          	sw	s8,56(sp)
    32a4:	00005ab7          	lui	s5,0x5
    32a8:	00005b37          	lui	s6,0x5
    32ac:	00005bb7          	lui	s7,0x5
    32b0:	00058c13          	mv	s8,a1
    32b4:	00098593          	mv	a1,s3
    32b8:	05412423          	sw	s4,72(sp)
    32bc:	04112e23          	sw	ra,92(sp)
    32c0:	04812c23          	sw	s0,88(sp)
    32c4:	04912a23          	sw	s1,84(sp)
    32c8:	280a8a93          	addi	s5,s5,640 # 5280 <__global_pointer+0x687>
    32cc:	3a0b0b13          	addi	s6,s6,928 # 53a0 <__global_pointer+0x7a7>
    32d0:	434b8b93          	addi	s7,s7,1076 # 5434 <__global_pointer+0x83b>
    32d4:	00005a37          	lui	s4,0x5
    32d8:	a71fd0ef          	jal	d48 <strcmp>
    32dc:	0e050863          	beqz	a0,33cc <room_actions+0x154>
    32e0:	00492503          	lw	a0,4(s2)
    32e4:	1e8a0593          	addi	a1,s4,488 # 51e8 <__global_pointer+0x5ef>
    32e8:	a61fd0ef          	jal	d48 <strcmp>
    32ec:	14050463          	beqz	a0,3434 <room_actions+0x1bc>
    32f0:	00492503          	lw	a0,4(s2)
    32f4:	000a8593          	mv	a1,s5
    32f8:	a51fd0ef          	jal	d48 <strcmp>
    32fc:	1a050063          	beqz	a0,349c <room_actions+0x224>
    3300:	00492503          	lw	a0,4(s2)
    3304:	000b0593          	mv	a1,s6
    3308:	a41fd0ef          	jal	d48 <strcmp>
    330c:	1e050c63          	beqz	a0,3504 <room_actions+0x28c>
    3310:	00492503          	lw	a0,4(s2)
    3314:	000b8593          	mv	a1,s7
    3318:	a31fd0ef          	jal	d48 <strcmp>
    331c:	24050863          	beqz	a0,356c <room_actions+0x2f4>
    3320:	00492503          	lw	a0,4(s2)
    3324:	000055b7          	lui	a1,0x5
    3328:	49858593          	addi	a1,a1,1176 # 5498 <__global_pointer+0x89f>
    332c:	a1dfd0ef          	jal	d48 <strcmp>
    3330:	2a050463          	beqz	a0,35d8 <room_actions+0x360>
    3334:	00492503          	lw	a0,4(s2)
    3338:	000055b7          	lui	a1,0x5
    333c:	57858593          	addi	a1,a1,1400 # 5578 <__global_pointer+0x97f>
    3340:	a09fd0ef          	jal	d48 <strcmp>
    3344:	30050c63          	beqz	a0,365c <room_actions+0x3e4>
    3348:	00492503          	lw	a0,4(s2)
    334c:	000055b7          	lui	a1,0x5
    3350:	60858593          	addi	a1,a1,1544 # 5608 <__global_pointer+0xa0f>
    3354:	9f5fd0ef          	jal	d48 <strcmp>
    3358:	4c051a63          	bnez	a0,382c <room_actions+0x5b4>
    335c:	00006537          	lui	a0,0x6
    3360:	07850513          	addi	a0,a0,120 # 6078 <__global_pointer+0x147f>
    3364:	00005437          	lui	s0,0x5
    3368:	e04fd0ef          	jal	96c <print>
    336c:	86042a23          	sw	zero,-1932(s0) # 4874 <option>
    3370:	00a00513          	li	a0,10
    3374:	db4fd0ef          	jal	928 <delay>
    3378:	87442783          	lw	a5,-1932(s0)
    337c:	fe078ae3          	beqz	a5,3370 <room_actions+0xf8>
    3380:	00100713          	li	a4,1
    3384:	64e78463          	beq	a5,a4,39cc <room_actions+0x754>
    3388:	000054b7          	lui	s1,0x5
    338c:	86042a23          	sw	zero,-1932(s0)
    3390:	c5048493          	addi	s1,s1,-944 # 4c50 <__global_pointer+0x57>
    3394:	02800413          	li	s0,40
    3398:	00048513          	mv	a0,s1
    339c:	fff40413          	addi	s0,s0,-1
    33a0:	dccfd0ef          	jal	96c <print>
    33a4:	fe041ae3          	bnez	s0,3398 <room_actions+0x120>
    33a8:	00892503          	lw	a0,8(s2)
    33ac:	dc0fd0ef          	jal	96c <print>
    33b0:	00006537          	lui	a0,0x6
    33b4:	8ac50513          	addi	a0,a0,-1876 # 58ac <__global_pointer+0xcb3>
    33b8:	db4fd0ef          	jal	96c <print>
    33bc:	00492503          	lw	a0,4(s2)
    33c0:	00098593          	mv	a1,s3
    33c4:	985fd0ef          	jal	d48 <strcmp>
    33c8:	f0051ce3          	bnez	a0,32e0 <room_actions+0x68>
    33cc:	00006537          	lui	a0,0x6
    33d0:	c4850513          	addi	a0,a0,-952 # 5c48 <__global_pointer+0x104f>
    33d4:	d98fd0ef          	jal	96c <print>
    33d8:	00006537          	lui	a0,0x6
    33dc:	c6450513          	addi	a0,a0,-924 # 5c64 <__global_pointer+0x106b>
    33e0:	00005437          	lui	s0,0x5
    33e4:	d88fd0ef          	jal	96c <print>
    33e8:	86042a23          	sw	zero,-1932(s0) # 4874 <option>
    33ec:	00a00513          	li	a0,10
    33f0:	d38fd0ef          	jal	928 <delay>
    33f4:	87442783          	lw	a5,-1932(s0)
    33f8:	fe078ae3          	beqz	a5,33ec <room_actions+0x174>
    33fc:	00100713          	li	a4,1
    3400:	5ae78663          	beq	a5,a4,39ac <room_actions+0x734>
    3404:	00200713          	li	a4,2
    3408:	f8e790e3          	bne	a5,a4,3388 <room_actions+0x110>
    340c:	00006537          	lui	a0,0x6
    3410:	c9850513          	addi	a0,a0,-872 # 5c98 <__global_pointer+0x109f>
    3414:	d58fd0ef          	jal	96c <print>
    3418:	00090513          	mv	a0,s2
    341c:	86042a23          	sw	zero,-1932(s0)
    3420:	95dfd0ef          	jal	d7c <room_exits.constprop.0>
    3424:	00492503          	lw	a0,4(s2)
    3428:	1e8a0593          	addi	a1,s4,488
    342c:	91dfd0ef          	jal	d48 <strcmp>
    3430:	ec0510e3          	bnez	a0,32f0 <room_actions+0x78>
    3434:	00006537          	lui	a0,0x6
    3438:	cb050513          	addi	a0,a0,-848 # 5cb0 <__global_pointer+0x10b7>
    343c:	d30fd0ef          	jal	96c <print>
    3440:	00006537          	lui	a0,0x6
    3444:	c6450513          	addi	a0,a0,-924 # 5c64 <__global_pointer+0x106b>
    3448:	00005437          	lui	s0,0x5
    344c:	d20fd0ef          	jal	96c <print>
    3450:	86042a23          	sw	zero,-1932(s0) # 4874 <option>
    3454:	00a00513          	li	a0,10
    3458:	cd0fd0ef          	jal	928 <delay>
    345c:	87442783          	lw	a5,-1932(s0)
    3460:	fe078ae3          	beqz	a5,3454 <room_actions+0x1dc>
    3464:	00100713          	li	a4,1
    3468:	44e78e63          	beq	a5,a4,38c4 <room_actions+0x64c>
    346c:	00200713          	li	a4,2
    3470:	f0e79ce3          	bne	a5,a4,3388 <room_actions+0x110>
    3474:	00006537          	lui	a0,0x6
    3478:	c9850513          	addi	a0,a0,-872 # 5c98 <__global_pointer+0x109f>
    347c:	cf0fd0ef          	jal	96c <print>
    3480:	00090513          	mv	a0,s2
    3484:	86042a23          	sw	zero,-1932(s0)
    3488:	8f5fd0ef          	jal	d7c <room_exits.constprop.0>
    348c:	00492503          	lw	a0,4(s2)
    3490:	000a8593          	mv	a1,s5
    3494:	8b5fd0ef          	jal	d48 <strcmp>
    3498:	e60514e3          	bnez	a0,3300 <room_actions+0x88>
    349c:	00006537          	lui	a0,0x6
    34a0:	d3850513          	addi	a0,a0,-712 # 5d38 <__global_pointer+0x113f>
    34a4:	cc8fd0ef          	jal	96c <print>
    34a8:	00006537          	lui	a0,0x6
    34ac:	c6450513          	addi	a0,a0,-924 # 5c64 <__global_pointer+0x106b>
    34b0:	00005437          	lui	s0,0x5
    34b4:	cb8fd0ef          	jal	96c <print>
    34b8:	86042a23          	sw	zero,-1932(s0) # 4874 <option>
    34bc:	00a00513          	li	a0,10
    34c0:	c68fd0ef          	jal	928 <delay>
    34c4:	87442783          	lw	a5,-1932(s0)
    34c8:	fe078ae3          	beqz	a5,34bc <room_actions+0x244>
    34cc:	00100713          	li	a4,1
    34d0:	44e78063          	beq	a5,a4,3910 <room_actions+0x698>
    34d4:	00200713          	li	a4,2
    34d8:	eae798e3          	bne	a5,a4,3388 <room_actions+0x110>
    34dc:	00006537          	lui	a0,0x6
    34e0:	c9850513          	addi	a0,a0,-872 # 5c98 <__global_pointer+0x109f>
    34e4:	86042a23          	sw	zero,-1932(s0)
    34e8:	c84fd0ef          	jal	96c <print>
    34ec:	00090513          	mv	a0,s2
    34f0:	88dfd0ef          	jal	d7c <room_exits.constprop.0>
    34f4:	00492503          	lw	a0,4(s2)
    34f8:	000b0593          	mv	a1,s6
    34fc:	84dfd0ef          	jal	d48 <strcmp>
    3500:	e00518e3          	bnez	a0,3310 <room_actions+0x98>
    3504:	00006537          	lui	a0,0x6
    3508:	e4c50513          	addi	a0,a0,-436 # 5e4c <__global_pointer+0x1253>
    350c:	c60fd0ef          	jal	96c <print>
    3510:	00006537          	lui	a0,0x6
    3514:	c6450513          	addi	a0,a0,-924 # 5c64 <__global_pointer+0x106b>
    3518:	00005437          	lui	s0,0x5
    351c:	c50fd0ef          	jal	96c <print>
    3520:	86042a23          	sw	zero,-1932(s0) # 4874 <option>
    3524:	00a00513          	li	a0,10
    3528:	c00fd0ef          	jal	928 <delay>
    352c:	87442783          	lw	a5,-1932(s0)
    3530:	fe078ae3          	beqz	a5,3524 <room_actions+0x2ac>
    3534:	00100713          	li	a4,1
    3538:	42e78a63          	beq	a5,a4,396c <room_actions+0x6f4>
    353c:	00200713          	li	a4,2
    3540:	e4e794e3          	bne	a5,a4,3388 <room_actions+0x110>
    3544:	00006537          	lui	a0,0x6
    3548:	c9850513          	addi	a0,a0,-872 # 5c98 <__global_pointer+0x109f>
    354c:	86042a23          	sw	zero,-1932(s0)
    3550:	c1cfd0ef          	jal	96c <print>
    3554:	00090513          	mv	a0,s2
    3558:	825fd0ef          	jal	d7c <room_exits.constprop.0>
    355c:	00492503          	lw	a0,4(s2)
    3560:	000b8593          	mv	a1,s7
    3564:	fe4fd0ef          	jal	d48 <strcmp>
    3568:	da051ce3          	bnez	a0,3320 <room_actions+0xa8>
    356c:	00006537          	lui	a0,0x6
    3570:	e9050513          	addi	a0,a0,-368 # 5e90 <__global_pointer+0x1297>
    3574:	bf8fd0ef          	jal	96c <print>
    3578:	00006537          	lui	a0,0x6
    357c:	c6450513          	addi	a0,a0,-924 # 5c64 <__global_pointer+0x106b>
    3580:	00005437          	lui	s0,0x5
    3584:	be8fd0ef          	jal	96c <print>
    3588:	86042a23          	sw	zero,-1932(s0) # 4874 <option>
    358c:	00a00513          	li	a0,10
    3590:	b98fd0ef          	jal	928 <delay>
    3594:	87442783          	lw	a5,-1932(s0)
    3598:	fe078ae3          	beqz	a5,358c <room_actions+0x314>
    359c:	00100713          	li	a4,1
    35a0:	3ee78663          	beq	a5,a4,398c <room_actions+0x714>
    35a4:	00200713          	li	a4,2
    35a8:	dee790e3          	bne	a5,a4,3388 <room_actions+0x110>
    35ac:	00006537          	lui	a0,0x6
    35b0:	c9850513          	addi	a0,a0,-872 # 5c98 <__global_pointer+0x109f>
    35b4:	86042a23          	sw	zero,-1932(s0)
    35b8:	bb4fd0ef          	jal	96c <print>
    35bc:	00090513          	mv	a0,s2
    35c0:	fbcfd0ef          	jal	d7c <room_exits.constprop.0>
    35c4:	00492503          	lw	a0,4(s2)
    35c8:	000055b7          	lui	a1,0x5
    35cc:	49858593          	addi	a1,a1,1176 # 5498 <__global_pointer+0x89f>
    35d0:	f78fd0ef          	jal	d48 <strcmp>
    35d4:	d60510e3          	bnez	a0,3334 <room_actions+0xbc>
    35d8:	00006537          	lui	a0,0x6
    35dc:	ed450513          	addi	a0,a0,-300 # 5ed4 <__global_pointer+0x12db>
    35e0:	b8cfd0ef          	jal	96c <print>
    35e4:	00006537          	lui	a0,0x6
    35e8:	ef450513          	addi	a0,a0,-268 # 5ef4 <__global_pointer+0x12fb>
    35ec:	00005437          	lui	s0,0x5
    35f0:	b7cfd0ef          	jal	96c <print>
    35f4:	86042a23          	sw	zero,-1932(s0) # 4874 <option>
    35f8:	00a00513          	li	a0,10
    35fc:	b2cfd0ef          	jal	928 <delay>
    3600:	87442783          	lw	a5,-1932(s0)
    3604:	fe078ae3          	beqz	a5,35f8 <room_actions+0x380>
    3608:	00100713          	li	a4,1
    360c:	4ae78063          	beq	a5,a4,3aac <room_actions+0x834>
    3610:	00200713          	li	a4,2
    3614:	d6e79ae3          	bne	a5,a4,3388 <room_actions+0x110>
    3618:	00006537          	lui	a0,0x6
    361c:	c9850513          	addi	a0,a0,-872 # 5c98 <__global_pointer+0x109f>
    3620:	86042a23          	sw	zero,-1932(s0)
    3624:	b48fd0ef          	jal	96c <print>
    3628:	000047b7          	lui	a5,0x4
    362c:	3fc7a603          	lw	a2,1020(a5) # 43fc <current_room>
    3630:	00500593          	li	a1,5
    3634:	00492503          	lw	a0,4(s2)
    3638:	3eb7ae23          	sw	a1,1020(a5)
    363c:	000055b7          	lui	a1,0x5
    3640:	000056b7          	lui	a3,0x5
    3644:	00005737          	lui	a4,0x5
    3648:	57858593          	addi	a1,a1,1400 # 5578 <__global_pointer+0x97f>
    364c:	86c6a423          	sw	a2,-1944(a3) # 4868 <prev_room>
    3650:	86072623          	sw	zero,-1940(a4) # 486c <next_room>
    3654:	ef4fd0ef          	jal	d48 <strcmp>
    3658:	ce0518e3          	bnez	a0,3348 <room_actions+0xd0>
    365c:	00006537          	lui	a0,0x6
    3660:	f4c50513          	addi	a0,a0,-180 # 5f4c <__global_pointer+0x1353>
    3664:	00005437          	lui	s0,0x5
    3668:	b04fd0ef          	jal	96c <print>
    366c:	86042a23          	sw	zero,-1932(s0) # 4874 <option>
    3670:	00a00513          	li	a0,10
    3674:	ab4fd0ef          	jal	928 <delay>
    3678:	87442783          	lw	a5,-1932(s0)
    367c:	fe078ae3          	beqz	a5,3670 <room_actions+0x3f8>
    3680:	00100713          	li	a4,1
    3684:	d0e792e3          	bne	a5,a4,3388 <room_actions+0x110>
    3688:	00006537          	lui	a0,0x6
    368c:	f6450513          	addi	a0,a0,-156 # 5f64 <__global_pointer+0x136b>
    3690:	86042a23          	sw	zero,-1932(s0)
    3694:	ad8fd0ef          	jal	96c <print>
    3698:	00001537          	lui	a0,0x1
    369c:	fa050513          	addi	a0,a0,-96 # fa0 <combat.part.0+0x58>
    36a0:	a88fd0ef          	jal	928 <delay>
    36a4:	00006537          	lui	a0,0x6
    36a8:	fac50513          	addi	a0,a0,-84 # 5fac <__global_pointer+0x13b3>
    36ac:	ac0fd0ef          	jal	96c <print>
    36b0:	00006537          	lui	a0,0x6
    36b4:	ff450513          	addi	a0,a0,-12 # 5ff4 <__global_pointer+0x13fb>
    36b8:	ab4fd0ef          	jal	96c <print>
    36bc:	00001537          	lui	a0,0x1
    36c0:	38850513          	addi	a0,a0,904 # 1388 <combat.part.0+0x440>
    36c4:	a64fd0ef          	jal	928 <delay>
    36c8:	87442703          	lw	a4,-1932(s0)
    36cc:	00300793          	li	a5,3
    36d0:	48f70a63          	beq	a4,a5,3b64 <room_actions+0x8ec>
    36d4:	fe700593          	li	a1,-25
    36d8:	000c0513          	mv	a0,s8
    36dc:	afdfc0ef          	jal	1d8 <setP_hp>
    36e0:	00cc2583          	lw	a1,12(s8)
    36e4:	666666b7          	lui	a3,0x66666
    36e8:	66768693          	addi	a3,a3,1639 # 66666667 <_stack_end+0x6655fe8b>
    36ec:	02d596b3          	mulh	a3,a1,a3
    36f0:	00005737          	lui	a4,0x5
    36f4:	8a070713          	addi	a4,a4,-1888 # 48a0 <mytime+0x1c>
    36f8:	41f5d613          	srai	a2,a1,0x1f
    36fc:	00472e03          	lw	t3,4(a4)
    3700:	00872303          	lw	t1,8(a4)
    3704:	00c72883          	lw	a7,12(a4)
    3708:	01072803          	lw	a6,16(a4)
    370c:	01c12623          	sw	t3,12(sp)
    3710:	00612823          	sw	t1,16(sp)
    3714:	4026d693          	srai	a3,a3,0x2
    3718:	40c687b3          	sub	a5,a3,a2
    371c:	00279693          	slli	a3,a5,0x2
    3720:	00f686b3          	add	a3,a3,a5
    3724:	01112a23          	sw	a7,20(sp)
    3728:	00072f03          	lw	t5,0(a4)
    372c:	02072883          	lw	a7,32(a4)
    3730:	01472e83          	lw	t4,20(a4)
    3734:	01872e03          	lw	t3,24(a4)
    3738:	01c72303          	lw	t1,28(a4)
    373c:	00169693          	slli	a3,a3,0x1
    3740:	02472703          	lw	a4,36(a4)
    3744:	40d586b3          	sub	a3,a1,a3
    3748:	01012c23          	sw	a6,24(sp)
    374c:	00269693          	slli	a3,a3,0x2
    3750:	00810813          	addi	a6,sp,8
    3754:	03112423          	sw	a7,40(sp)
    3758:	02e12623          	sw	a4,44(sp)
    375c:	01e12423          	sw	t5,8(sp)
    3760:	01d12e23          	sw	t4,28(sp)
    3764:	03c12023          	sw	t3,32(sp)
    3768:	02612223          	sw	t1,36(sp)
    376c:	01068733          	add	a4,a3,a6
    3770:	00072683          	lw	a3,0(a4)
    3774:	000048b7          	lui	a7,0x4
    3778:	04000737          	lui	a4,0x4000
    377c:	40a8a023          	sw	a0,1024(a7) # 4400 <alive>
    3780:	04d72823          	sw	a3,80(a4) # 4000050 <_stack_end+0x3ef9874>
    3784:	00900713          	li	a4,9
    3788:	38b75663          	bge	a4,a1,3b14 <room_actions+0x89c>
    378c:	ccccd737          	lui	a4,0xccccd
    3790:	ccd70713          	addi	a4,a4,-819 # cccccccd <_stack_end+0xccbc64f1>
    3794:	02e7b733          	mulhu	a4,a5,a4
    3798:	04000537          	lui	a0,0x4000
    379c:	06300893          	li	a7,99
    37a0:	00375713          	srli	a4,a4,0x3
    37a4:	00271693          	slli	a3,a4,0x2
    37a8:	00e68733          	add	a4,a3,a4
    37ac:	00171713          	slli	a4,a4,0x1
    37b0:	40e78733          	sub	a4,a5,a4
    37b4:	00271713          	slli	a4,a4,0x2
    37b8:	01070733          	add	a4,a4,a6
    37bc:	00072783          	lw	a5,0(a4)
    37c0:	06f52023          	sw	a5,96(a0) # 4000060 <_stack_end+0x3ef9884>
    37c4:	3ab8c863          	blt	a7,a1,3b74 <room_actions+0x8fc>
    37c8:	040007b7          	lui	a5,0x4000
    37cc:	0ff00713          	li	a4,255
    37d0:	06e7a823          	sw	a4,112(a5) # 4000070 <_stack_end+0x3ef9894>
    37d4:	040007b7          	lui	a5,0x4000
    37d8:	0ff00693          	li	a3,255
    37dc:	08d7a023          	sw	a3,128(a5) # 4000080 <_stack_end+0x3ef98a4>
    37e0:	08900693          	li	a3,137
    37e4:	0ad7a023          	sw	a3,160(a5)
    37e8:	08c00713          	li	a4,140
    37ec:	06400513          	li	a0,100
    37f0:	08e7a823          	sw	a4,144(a5)
    37f4:	934fd0ef          	jal	928 <delay>
    37f8:	00006537          	lui	a0,0x6
    37fc:	04450513          	addi	a0,a0,68 # 6044 <__global_pointer+0x144b>
    3800:	96cfd0ef          	jal	96c <print>
    3804:	00001537          	lui	a0,0x1
    3808:	fa050513          	addi	a0,a0,-96 # fa0 <combat.part.0+0x58>
    380c:	91cfd0ef          	jal	928 <delay>
    3810:	00090513          	mv	a0,s2
    3814:	d68fd0ef          	jal	d7c <room_exits.constprop.0>
    3818:	00492503          	lw	a0,4(s2)
    381c:	000055b7          	lui	a1,0x5
    3820:	60858593          	addi	a1,a1,1544 # 5608 <__global_pointer+0xa0f>
    3824:	d24fd0ef          	jal	d48 <strcmp>
    3828:	b2050ae3          	beqz	a0,335c <room_actions+0xe4>
    382c:	00492503          	lw	a0,4(s2)
    3830:	000055b7          	lui	a1,0x5
    3834:	6e458593          	addi	a1,a1,1764 # 56e4 <__global_pointer+0xaeb>
    3838:	d10fd0ef          	jal	d48 <strcmp>
    383c:	24051063          	bnez	a0,3a7c <room_actions+0x804>
    3840:	00006537          	lui	a0,0x6
    3844:	13850513          	addi	a0,a0,312 # 6138 <__global_pointer+0x153f>
    3848:	924fd0ef          	jal	96c <print>
    384c:	00006537          	lui	a0,0x6
    3850:	c6450513          	addi	a0,a0,-924 # 5c64 <__global_pointer+0x106b>
    3854:	00005437          	lui	s0,0x5
    3858:	914fd0ef          	jal	96c <print>
    385c:	86042a23          	sw	zero,-1932(s0) # 4874 <option>
    3860:	00a00513          	li	a0,10
    3864:	8c4fd0ef          	jal	928 <delay>
    3868:	87442783          	lw	a5,-1932(s0)
    386c:	fe078ae3          	beqz	a5,3860 <room_actions+0x5e8>
    3870:	00100713          	li	a4,1
    3874:	32e78663          	beq	a5,a4,3ba0 <room_actions+0x928>
    3878:	00200713          	li	a4,2
    387c:	b0e796e3          	bne	a5,a4,3388 <room_actions+0x110>
    3880:	00006537          	lui	a0,0x6
    3884:	c9850513          	addi	a0,a0,-872 # 5c98 <__global_pointer+0x109f>
    3888:	86042a23          	sw	zero,-1932(s0)
    388c:	8e0fd0ef          	jal	96c <print>
    3890:	05812403          	lw	s0,88(sp)
    3894:	05c12083          	lw	ra,92(sp)
    3898:	05412483          	lw	s1,84(sp)
    389c:	04c12983          	lw	s3,76(sp)
    38a0:	04812a03          	lw	s4,72(sp)
    38a4:	04412a83          	lw	s5,68(sp)
    38a8:	04012b03          	lw	s6,64(sp)
    38ac:	03c12b83          	lw	s7,60(sp)
    38b0:	03812c03          	lw	s8,56(sp)
    38b4:	00090513          	mv	a0,s2
    38b8:	05012903          	lw	s2,80(sp)
    38bc:	06010113          	addi	sp,sp,96
    38c0:	cbcfd06f          	j	d7c <room_exits.constprop.0>
    38c4:	00006537          	lui	a0,0x6
    38c8:	cc850513          	addi	a0,a0,-824 # 5cc8 <__global_pointer+0x10cf>
    38cc:	8a0fd0ef          	jal	96c <print>
    38d0:	7d000513          	li	a0,2000
    38d4:	854fd0ef          	jal	928 <delay>
    38d8:	02092783          	lw	a5,32(s2)
    38dc:	86042a23          	sw	zero,-1932(s0)
    38e0:	36f05a63          	blez	a5,3c54 <room_actions+0x9dc>
    38e4:	03492783          	lw	a5,52(s2)
    38e8:	00078863          	beqz	a5,38f8 <room_actions+0x680>
    38ec:	000c0593          	mv	a1,s8
    38f0:	00090513          	mv	a0,s2
    38f4:	e54fd0ef          	jal	f48 <combat.part.0>
    38f8:	000057b7          	lui	a5,0x5
    38fc:	86c7a703          	lw	a4,-1940(a5) # 486c <next_room>
    3900:	3c071663          	bnez	a4,3ccc <room_actions+0xa54>
    3904:	00090513          	mv	a0,s2
    3908:	c74fd0ef          	jal	d7c <room_exits.constprop.0>
    390c:	9e5ff06f          	j	32f0 <room_actions+0x78>
    3910:	00006537          	lui	a0,0x6
    3914:	d5050513          	addi	a0,a0,-688 # 5d50 <__global_pointer+0x1157>
    3918:	86042a23          	sw	zero,-1932(s0)
    391c:	850fd0ef          	jal	96c <print>
    3920:	7d000513          	li	a0,2000
    3924:	804fd0ef          	jal	928 <delay>
    3928:	00006437          	lui	s0,0x6
    392c:	000c0513          	mv	a0,s8
    3930:	d7440593          	addi	a1,s0,-652 # 5d74 <__global_pointer+0x117b>
    3934:	9cdfc0ef          	jal	300 <peek_inventory>
    3938:	18050a63          	beqz	a0,3acc <room_actions+0x854>
    393c:	00006537          	lui	a0,0x6
    3940:	d7850513          	addi	a0,a0,-648 # 5d78 <__global_pointer+0x117f>
    3944:	828fd0ef          	jal	96c <print>
    3948:	00001537          	lui	a0,0x1
    394c:	fa050513          	addi	a0,a0,-96 # fa0 <combat.part.0+0x58>
    3950:	fd9fc0ef          	jal	928 <delay>
    3954:	00001537          	lui	a0,0x1
    3958:	fa050513          	addi	a0,a0,-96 # fa0 <combat.part.0+0x58>
    395c:	fcdfc0ef          	jal	928 <delay>
    3960:	00090513          	mv	a0,s2
    3964:	c18fd0ef          	jal	d7c <room_exits.constprop.0>
    3968:	999ff06f          	j	3300 <room_actions+0x88>
    396c:	00006537          	lui	a0,0x6
    3970:	e6850513          	addi	a0,a0,-408 # 5e68 <__global_pointer+0x126f>
    3974:	86042a23          	sw	zero,-1932(s0)
    3978:	ff5fc0ef          	jal	96c <print>
    397c:	000c0593          	mv	a1,s8
    3980:	00090513          	mv	a0,s2
    3984:	a48ff0ef          	jal	2bcc <talk_to_npc>
    3988:	989ff06f          	j	3310 <room_actions+0x98>
    398c:	00006537          	lui	a0,0x6
    3990:	eac50513          	addi	a0,a0,-340 # 5eac <__global_pointer+0x12b3>
    3994:	86042a23          	sw	zero,-1932(s0)
    3998:	fd5fc0ef          	jal	96c <print>
    399c:	000c0593          	mv	a1,s8
    39a0:	00090513          	mv	a0,s2
    39a4:	a28ff0ef          	jal	2bcc <talk_to_npc>
    39a8:	979ff06f          	j	3320 <room_actions+0xa8>
    39ac:	00006537          	lui	a0,0x6
    39b0:	c7050513          	addi	a0,a0,-912 # 5c70 <__global_pointer+0x1077>
    39b4:	86042a23          	sw	zero,-1932(s0)
    39b8:	fb5fc0ef          	jal	96c <print>
    39bc:	000c0593          	mv	a1,s8
    39c0:	00090513          	mv	a0,s2
    39c4:	a08ff0ef          	jal	2bcc <talk_to_npc>
    39c8:	919ff06f          	j	32e0 <room_actions+0x68>
    39cc:	00006537          	lui	a0,0x6
    39d0:	09050513          	addi	a0,a0,144 # 6090 <__global_pointer+0x1497>
    39d4:	86042a23          	sw	zero,-1932(s0)
    39d8:	f95fc0ef          	jal	96c <print>
    39dc:	00001537          	lui	a0,0x1
    39e0:	fa050513          	addi	a0,a0,-96 # fa0 <combat.part.0+0x58>
    39e4:	f45fc0ef          	jal	928 <delay>
    39e8:	00006537          	lui	a0,0x6
    39ec:	0b450513          	addi	a0,a0,180 # 60b4 <__global_pointer+0x14bb>
    39f0:	f7dfc0ef          	jal	96c <print>
    39f4:	00006537          	lui	a0,0x6
    39f8:	11850513          	addi	a0,a0,280 # 6118 <__global_pointer+0x151f>
    39fc:	040004b7          	lui	s1,0x4000
    3a00:	f6dfc0ef          	jal	96c <print>
    3a04:	0d048493          	addi	s1,s1,208 # 40000d0 <_stack_end+0x3ef98f4>
    3a08:	25800413          	li	s0,600
    3a0c:	0100006f          	j	3a1c <room_actions+0x7a4>
    3a10:	fff40413          	addi	s0,s0,-1
    3a14:	f15fc0ef          	jal	928 <delay>
    3a18:	10040663          	beqz	s0,3b24 <room_actions+0x8ac>
    3a1c:	0004a783          	lw	a5,0(s1)
    3a20:	0004a023          	sw	zero,0(s1)
    3a24:	00a00513          	li	a0,10
    3a28:	0017f793          	andi	a5,a5,1
    3a2c:	fe0782e3          	beqz	a5,3a10 <room_actions+0x798>
    3a30:	00006537          	lui	a0,0x6
    3a34:	1f450513          	addi	a0,a0,500 # 61f4 <__global_pointer+0x15fb>
    3a38:	f35fc0ef          	jal	96c <print>
    3a3c:	00001537          	lui	a0,0x1
    3a40:	fa050513          	addi	a0,a0,-96 # fa0 <combat.part.0+0x58>
    3a44:	ee5fc0ef          	jal	928 <delay>
    3a48:	00006537          	lui	a0,0x6
    3a4c:	25450513          	addi	a0,a0,596 # 6254 <__global_pointer+0x165b>
    3a50:	f1dfc0ef          	jal	96c <print>
    3a54:	00001537          	lui	a0,0x1
    3a58:	fa050513          	addi	a0,a0,-96 # fa0 <combat.part.0+0x58>
    3a5c:	ecdfc0ef          	jal	928 <delay>
    3a60:	00090513          	mv	a0,s2
    3a64:	b18fd0ef          	jal	d7c <room_exits.constprop.0>
    3a68:	00492503          	lw	a0,4(s2)
    3a6c:	000055b7          	lui	a1,0x5
    3a70:	6e458593          	addi	a1,a1,1764 # 56e4 <__global_pointer+0xaeb>
    3a74:	ad4fd0ef          	jal	d48 <strcmp>
    3a78:	dc0504e3          	beqz	a0,3840 <room_actions+0x5c8>
    3a7c:	05c12083          	lw	ra,92(sp)
    3a80:	05812403          	lw	s0,88(sp)
    3a84:	05412483          	lw	s1,84(sp)
    3a88:	05012903          	lw	s2,80(sp)
    3a8c:	04c12983          	lw	s3,76(sp)
    3a90:	04812a03          	lw	s4,72(sp)
    3a94:	04412a83          	lw	s5,68(sp)
    3a98:	04012b03          	lw	s6,64(sp)
    3a9c:	03c12b83          	lw	s7,60(sp)
    3aa0:	03812c03          	lw	s8,56(sp)
    3aa4:	06010113          	addi	sp,sp,96
    3aa8:	00008067          	ret
    3aac:	00006537          	lui	a0,0x6
    3ab0:	f1450513          	addi	a0,a0,-236 # 5f14 <__global_pointer+0x131b>
    3ab4:	86042a23          	sw	zero,-1932(s0)
    3ab8:	eb5fc0ef          	jal	96c <print>
    3abc:	000c0593          	mv	a1,s8
    3ac0:	00090513          	mv	a0,s2
    3ac4:	908ff0ef          	jal	2bcc <talk_to_npc>
    3ac8:	86dff06f          	j	3334 <room_actions+0xbc>
    3acc:	00006537          	lui	a0,0x6
    3ad0:	de050513          	addi	a0,a0,-544 # 5de0 <__global_pointer+0x11e7>
    3ad4:	e99fc0ef          	jal	96c <print>
    3ad8:	00001537          	lui	a0,0x1
    3adc:	fa050513          	addi	a0,a0,-96 # fa0 <combat.part.0+0x58>
    3ae0:	e49fc0ef          	jal	928 <delay>
    3ae4:	00006537          	lui	a0,0x6
    3ae8:	e2850513          	addi	a0,a0,-472 # 5e28 <__global_pointer+0x122f>
    3aec:	e81fc0ef          	jal	96c <print>
    3af0:	7d000513          	li	a0,2000
    3af4:	e35fc0ef          	jal	928 <delay>
    3af8:	00006537          	lui	a0,0x6
    3afc:	e4050513          	addi	a0,a0,-448 # 5e40 <__global_pointer+0x1247>
    3b00:	e6dfc0ef          	jal	96c <print>
    3b04:	d7440593          	addi	a1,s0,-652
    3b08:	000c0513          	mv	a0,s8
    3b0c:	85dfc0ef          	jal	368 <add_to_inventory>
    3b10:	e45ff06f          	j	3954 <room_actions+0x6dc>
    3b14:	040007b7          	lui	a5,0x4000
    3b18:	0ff00713          	li	a4,255
    3b1c:	06e7a023          	sw	a4,96(a5) # 4000060 <_stack_end+0x3ef9884>
    3b20:	ca9ff06f          	j	37c8 <room_actions+0x550>
    3b24:	00006537          	lui	a0,0x6
    3b28:	26450513          	addi	a0,a0,612 # 6264 <__global_pointer+0x166b>
    3b2c:	e41fc0ef          	jal	96c <print>
    3b30:	7d000513          	li	a0,2000
    3b34:	df5fc0ef          	jal	928 <delay>
    3b38:	00006537          	lui	a0,0x6
    3b3c:	2b050513          	addi	a0,a0,688 # 62b0 <__global_pointer+0x16b7>
    3b40:	e2dfc0ef          	jal	96c <print>
    3b44:	00001537          	lui	a0,0x1
    3b48:	fa050513          	addi	a0,a0,-96 # fa0 <combat.part.0+0x58>
    3b4c:	dddfc0ef          	jal	928 <delay>
    3b50:	00004737          	lui	a4,0x4
    3b54:	000057b7          	lui	a5,0x5
    3b58:	40072023          	sw	zero,1024(a4) # 4400 <alive>
    3b5c:	8607a823          	sw	zero,-1936(a5) # 4870 <in_combat>
    3b60:	ccdff06f          	j	382c <room_actions+0x5b4>
    3b64:	00006537          	lui	a0,0x6
    3b68:	00c50513          	addi	a0,a0,12 # 600c <__global_pointer+0x1413>
    3b6c:	86042a23          	sw	zero,-1932(s0)
    3b70:	c91ff06f          	j	3800 <room_actions+0x588>
    3b74:	51eb87b7          	lui	a5,0x51eb8
    3b78:	51f78793          	addi	a5,a5,1311 # 51eb851f <_stack_end+0x51db1d43>
    3b7c:	02f597b3          	mulh	a5,a1,a5
    3b80:	04000737          	lui	a4,0x4000
    3b84:	4057d793          	srai	a5,a5,0x5
    3b88:	40c787b3          	sub	a5,a5,a2
    3b8c:	00279793          	slli	a5,a5,0x2
    3b90:	010787b3          	add	a5,a5,a6
    3b94:	0007a783          	lw	a5,0(a5)
    3b98:	06f72823          	sw	a5,112(a4) # 4000070 <_stack_end+0x3ef9894>
    3b9c:	c39ff06f          	j	37d4 <room_actions+0x55c>
    3ba0:	00006537          	lui	a0,0x6
    3ba4:	16050513          	addi	a0,a0,352 # 6160 <__global_pointer+0x1567>
    3ba8:	86042a23          	sw	zero,-1932(s0)
    3bac:	dc1fc0ef          	jal	96c <print>
    3bb0:	7d000513          	li	a0,2000
    3bb4:	d75fc0ef          	jal	928 <delay>
    3bb8:	000065b7          	lui	a1,0x6
    3bbc:	000c0513          	mv	a0,s8
    3bc0:	d7458593          	addi	a1,a1,-652 # 5d74 <__global_pointer+0x117b>
    3bc4:	f3cfc0ef          	jal	300 <peek_inventory>
    3bc8:	00050493          	mv	s1,a0
    3bcc:	0c050263          	beqz	a0,3c90 <room_actions+0xa18>
    3bd0:	00006537          	lui	a0,0x6
    3bd4:	18450513          	addi	a0,a0,388 # 6184 <__global_pointer+0x158b>
    3bd8:	d95fc0ef          	jal	96c <print>
    3bdc:	00048593          	mv	a1,s1
    3be0:	000c0513          	mv	a0,s8
    3be4:	8e1fc0ef          	jal	4c4 <remove_from_inventory>
    3be8:	00001537          	lui	a0,0x1
    3bec:	bb850513          	addi	a0,a0,-1096 # bb8 <handle_exception+0xf8>
    3bf0:	d39fc0ef          	jal	928 <delay>
    3bf4:	03492783          	lw	a5,52(s2)
    3bf8:	00078c63          	beqz	a5,3c10 <room_actions+0x998>
    3bfc:	02092783          	lw	a5,32(s2)
    3c00:	00f05863          	blez	a5,3c10 <room_actions+0x998>
    3c04:	000c0593          	mv	a1,s8
    3c08:	00090513          	mv	a0,s2
    3c0c:	b3cfd0ef          	jal	f48 <combat.part.0>
    3c10:	000057b7          	lui	a5,0x5
    3c14:	86c7a703          	lw	a4,-1940(a5) # 486c <next_room>
    3c18:	0a071a63          	bnez	a4,3ccc <room_actions+0xa54>
    3c1c:	3e800513          	li	a0,1000
    3c20:	d09fc0ef          	jal	928 <delay>
    3c24:	05812403          	lw	s0,88(sp)
    3c28:	05c12083          	lw	ra,92(sp)
    3c2c:	05412483          	lw	s1,84(sp)
    3c30:	05012903          	lw	s2,80(sp)
    3c34:	04c12983          	lw	s3,76(sp)
    3c38:	04812a03          	lw	s4,72(sp)
    3c3c:	04412a83          	lw	s5,68(sp)
    3c40:	04012b03          	lw	s6,64(sp)
    3c44:	03c12b83          	lw	s7,60(sp)
    3c48:	03812c03          	lw	s8,56(sp)
    3c4c:	06010113          	addi	sp,sp,96
    3c50:	c7cff06f          	j	30cc <win>
    3c54:	00006537          	lui	a0,0x6
    3c58:	cec50513          	addi	a0,a0,-788 # 5cec <__global_pointer+0x10f3>
    3c5c:	d11fc0ef          	jal	96c <print>
    3c60:	7d000513          	li	a0,2000
    3c64:	cc5fc0ef          	jal	928 <delay>
    3c68:	00005537          	lui	a0,0x5
    3c6c:	7f050513          	addi	a0,a0,2032 # 57f0 <__global_pointer+0xbf7>
    3c70:	cfdfc0ef          	jal	96c <print>
    3c74:	87442783          	lw	a5,-1932(s0)
    3c78:	c80796e3          	bnez	a5,3904 <room_actions+0x68c>
    3c7c:	00a00513          	li	a0,10
    3c80:	ca9fc0ef          	jal	928 <delay>
    3c84:	87442783          	lw	a5,-1932(s0)
    3c88:	fe078ae3          	beqz	a5,3c7c <room_actions+0xa04>
    3c8c:	c79ff06f          	j	3904 <room_actions+0x68c>
    3c90:	00006537          	lui	a0,0x6
    3c94:	1ac50513          	addi	a0,a0,428 # 61ac <__global_pointer+0x15b3>
    3c98:	cd5fc0ef          	jal	96c <print>
    3c9c:	7d000513          	li	a0,2000
    3ca0:	c89fc0ef          	jal	928 <delay>
    3ca4:	00006537          	lui	a0,0x6
    3ca8:	1e850513          	addi	a0,a0,488 # 61e8 <__global_pointer+0x15ef>
    3cac:	cc1fc0ef          	jal	96c <print>
    3cb0:	87442783          	lw	a5,-1932(s0)
    3cb4:	bc079ee3          	bnez	a5,3890 <room_actions+0x618>
    3cb8:	00a00513          	li	a0,10
    3cbc:	c6dfc0ef          	jal	928 <delay>
    3cc0:	87442783          	lw	a5,-1932(s0)
    3cc4:	fe078ae3          	beqz	a5,3cb8 <room_actions+0xa40>
    3cc8:	bc9ff06f          	j	3890 <room_actions+0x618>
    3ccc:	8607a623          	sw	zero,-1940(a5)
    3cd0:	000047b7          	lui	a5,0x4
    3cd4:	3fc7a603          	lw	a2,1020(a5) # 43fc <current_room>
    3cd8:	000056b7          	lui	a3,0x5
    3cdc:	3ee7ae23          	sw	a4,1020(a5)
    3ce0:	86c6a423          	sw	a2,-1944(a3) # 4868 <prev_room>
    3ce4:	d99ff06f          	j	3a7c <room_actions+0x804>

00003ce8 <handle_interrupt>:
    3ce8:	ff010113          	addi	sp,sp,-16
    3cec:	00112623          	sw	ra,12(sp)
    3cf0:	01100793          	li	a5,17
    3cf4:	12f50263          	beq	a0,a5,3e18 <handle_interrupt+0x130>
    3cf8:	01000793          	li	a5,16
    3cfc:	10f51863          	bne	a0,a5,3e0c <handle_interrupt+0x124>
    3d00:	040007b7          	lui	a5,0x4000
    3d04:	00200713          	li	a4,2
    3d08:	00005637          	lui	a2,0x5
    3d0c:	02e79023          	sh	a4,32(a5) # 4000020 <_stack_end+0x3ef9844>
    3d10:	000056b7          	lui	a3,0x5
    3d14:	87c62703          	lw	a4,-1924(a2) # 487c <timeoutcount>
    3d18:	000047b7          	lui	a5,0x4
    3d1c:	4007a783          	lw	a5,1024(a5) # 4400 <alive>
    3d20:	8706a683          	lw	a3,-1936(a3) # 4870 <in_combat>
    3d24:	00170713          	addi	a4,a4,1
    3d28:	86e62e23          	sw	a4,-1924(a2)
    3d2c:	00d7e7b3          	or	a5,a5,a3
    3d30:	0a079a63          	bnez	a5,3de4 <handle_interrupt+0xfc>
    3d34:	00912223          	sw	s1,4(sp)
    3d38:	000054b7          	lui	s1,0x5
    3d3c:	00812423          	sw	s0,8(sp)
    3d40:	c5048493          	addi	s1,s1,-944 # 4c50 <__global_pointer+0x57>
    3d44:	02800413          	li	s0,40
    3d48:	00048513          	mv	a0,s1
    3d4c:	fff40413          	addi	s0,s0,-1
    3d50:	c1dfc0ef          	jal	96c <print>
    3d54:	fe041ae3          	bnez	s0,3d48 <handle_interrupt+0x60>
    3d58:	00006537          	lui	a0,0x6
    3d5c:	31850513          	addi	a0,a0,792 # 6318 <__global_pointer+0x171f>
    3d60:	c0dfc0ef          	jal	96c <print>
    3d64:	00002537          	lui	a0,0x2
    3d68:	f4050513          	addi	a0,a0,-192 # 1f40 <shop+0xd0>
    3d6c:	bbdfc0ef          	jal	928 <delay>
    3d70:	00006537          	lui	a0,0x6
    3d74:	32850513          	addi	a0,a0,808 # 6328 <__global_pointer+0x172f>
    3d78:	bf5fc0ef          	jal	96c <print>
    3d7c:	00001537          	lui	a0,0x1
    3d80:	fa050513          	addi	a0,a0,-96 # fa0 <combat.part.0+0x58>
    3d84:	ba5fc0ef          	jal	928 <delay>
    3d88:	000058b7          	lui	a7,0x5
    3d8c:	00100793          	li	a5,1
    3d90:	00005737          	lui	a4,0x5
    3d94:	00005437          	lui	s0,0x5
    3d98:	00004837          	lui	a6,0x4
    3d9c:	00005537          	lui	a0,0x5
    3da0:	000055b7          	lui	a1,0x5
    3da4:	00005637          	lui	a2,0x5
    3da8:	000056b7          	lui	a3,0x5
    3dac:	8608a823          	sw	zero,-1936(a7) # 4870 <in_combat>
    3db0:	000048b7          	lui	a7,0x4
    3db4:	86042e23          	sw	zero,-1924(s0) # 487c <timeoutcount>
    3db8:	86072423          	sw	zero,-1944(a4) # 4868 <prev_room>
    3dbc:	40f8a023          	sw	a5,1024(a7) # 4400 <alive>
    3dc0:	3ef82e23          	sw	a5,1020(a6) # 43fc <current_room>
    3dc4:	88052223          	sw	zero,-1916(a0) # 4884 <mytime>
    3dc8:	8805a023          	sw	zero,-1920(a1) # 4880 <hourtime>
    3dcc:	86062a23          	sw	zero,-1932(a2) # 4874 <option>
    3dd0:	8606a623          	sw	zero,-1940(a3) # 486c <next_room>
    3dd4:	2b4000ef          	jal	4088 <main>
    3dd8:	87c42703          	lw	a4,-1924(s0)
    3ddc:	00412483          	lw	s1,4(sp)
    3de0:	00812403          	lw	s0,8(sp)
    3de4:	666667b7          	lui	a5,0x66666
    3de8:	66778793          	addi	a5,a5,1639 # 66666667 <_stack_end+0x6655fe8b>
    3dec:	02f717b3          	mulh	a5,a4,a5
    3df0:	41f75693          	srai	a3,a4,0x1f
    3df4:	4027d793          	srai	a5,a5,0x2
    3df8:	40d787b3          	sub	a5,a5,a3
    3dfc:	00279693          	slli	a3,a5,0x2
    3e00:	00f687b3          	add	a5,a3,a5
    3e04:	00179793          	slli	a5,a5,0x1
    3e08:	0ef70863          	beq	a4,a5,3ef8 <handle_interrupt+0x210>
    3e0c:	00c12083          	lw	ra,12(sp)
    3e10:	01010113          	addi	sp,sp,16
    3e14:	00008067          	ret
    3e18:	040007b7          	lui	a5,0x4000
    3e1c:	01c7a703          	lw	a4,28(a5) # 400001c <_stack_end+0x3ef9840>
    3e20:	02000693          	li	a3,32
    3e24:	01c78793          	addi	a5,a5,28
    3e28:	12d70663          	beq	a4,a3,3f54 <handle_interrupt+0x26c>
    3e2c:	0007a703          	lw	a4,0(a5)
    3e30:	01000693          	li	a3,16
    3e34:	14d70a63          	beq	a4,a3,3f88 <handle_interrupt+0x2a0>
    3e38:	0007a703          	lw	a4,0(a5)
    3e3c:	00800693          	li	a3,8
    3e40:	16d70c63          	beq	a4,a3,3fb8 <handle_interrupt+0x2d0>
    3e44:	0007a703          	lw	a4,0(a5)
    3e48:	00400693          	li	a3,4
    3e4c:	18d70c63          	beq	a4,a3,3fe4 <handle_interrupt+0x2fc>
    3e50:	0007a703          	lw	a4,0(a5)
    3e54:	00200693          	li	a3,2
    3e58:	1ad70463          	beq	a4,a3,4000 <handle_interrupt+0x318>
    3e5c:	0007a703          	lw	a4,0(a5)
    3e60:	00100513          	li	a0,1
    3e64:	14a71063          	bne	a4,a0,3fa4 <handle_interrupt+0x2bc>
    3e68:	00812423          	sw	s0,8(sp)
    3e6c:	00912223          	sw	s1,4(sp)
    3e70:	000054b7          	lui	s1,0x5
    3e74:	00e7a023          	sw	a4,0(a5)
    3e78:	c5048493          	addi	s1,s1,-944 # 4c50 <__global_pointer+0x57>
    3e7c:	02800413          	li	s0,40
    3e80:	00048513          	mv	a0,s1
    3e84:	fff40413          	addi	s0,s0,-1
    3e88:	ae5fc0ef          	jal	96c <print>
    3e8c:	fe041ae3          	bnez	s0,3e80 <handle_interrupt+0x198>
    3e90:	000057b7          	lui	a5,0x5
    3e94:	8787a503          	lw	a0,-1928(a5) # 4878 <p>
    3e98:	04000437          	lui	s0,0x4000
    3e9c:	0d040413          	addi	s0,s0,208 # 40000d0 <_stack_end+0x3ef98f4>
    3ea0:	f50fc0ef          	jal	5f0 <print_inventory>
    3ea4:	7d000513          	li	a0,2000
    3ea8:	a81fc0ef          	jal	928 <delay>
    3eac:	00006537          	lui	a0,0x6
    3eb0:	2f850513          	addi	a0,a0,760 # 62f8 <__global_pointer+0x16ff>
    3eb4:	ab9fc0ef          	jal	96c <print>
    3eb8:	00042783          	lw	a5,0(s0)
    3ebc:	00042023          	sw	zero,0(s0)
    3ec0:	0017f793          	andi	a5,a5,1
    3ec4:	00079e63          	bnez	a5,3ee0 <handle_interrupt+0x1f8>
    3ec8:	00a00513          	li	a0,10
    3ecc:	a5dfc0ef          	jal	928 <delay>
    3ed0:	00042783          	lw	a5,0(s0)
    3ed4:	00042023          	sw	zero,0(s0)
    3ed8:	0017f793          	andi	a5,a5,1
    3edc:	fe0786e3          	beqz	a5,3ec8 <handle_interrupt+0x1e0>
    3ee0:	000057b7          	lui	a5,0x5
    3ee4:	00600713          	li	a4,6
    3ee8:	00812403          	lw	s0,8(sp)
    3eec:	00412483          	lw	s1,4(sp)
    3ef0:	86e7aa23          	sw	a4,-1932(a5) # 4874 <option>
    3ef4:	f19ff06f          	j	3e0c <handle_interrupt+0x124>
    3ef8:	00812423          	sw	s0,8(sp)
    3efc:	c45fd0ef          	jal	1b40 <set_hourtime>
    3f00:	00005437          	lui	s0,0x5
    3f04:	88440513          	addi	a0,s0,-1916 # 4884 <mytime>
    3f08:	8ddfc0ef          	jal	7e4 <tick>
    3f0c:	88445683          	lhu	a3,-1916(s0)
    3f10:	00005737          	lui	a4,0x5
    3f14:	88072783          	lw	a5,-1920(a4) # 4880 <hourtime>
    3f18:	04069c63          	bnez	a3,3f70 <handle_interrupt+0x288>
    3f1c:	4107d693          	srai	a3,a5,0x10
    3f20:	00900613          	li	a2,9
    3f24:	0ac68863          	beq	a3,a2,3fd4 <handle_interrupt+0x2ec>
    3f28:	01900613          	li	a2,25
    3f2c:	0ec68863          	beq	a3,a2,401c <handle_interrupt+0x334>
    3f30:	02300613          	li	a2,35
    3f34:	0ec68c63          	beq	a3,a2,402c <handle_interrupt+0x344>
    3f38:	000106b7          	lui	a3,0x10
    3f3c:	00d787b3          	add	a5,a5,a3
    3f40:	00ff06b7          	lui	a3,0xff0
    3f44:	00d7f7b3          	and	a5,a5,a3
    3f48:	00812403          	lw	s0,8(sp)
    3f4c:	88f72023          	sw	a5,-1920(a4)
    3f50:	ebdff06f          	j	3e0c <handle_interrupt+0x124>
    3f54:	00e7a023          	sw	a4,0(a5)
    3f58:	00100513          	li	a0,1
    3f5c:	9cdfc0ef          	jal	928 <delay>
    3f60:	000057b7          	lui	a5,0x5
    3f64:	00500713          	li	a4,5
    3f68:	86e7aa23          	sw	a4,-1932(a5) # 4874 <option>
    3f6c:	ea1ff06f          	j	3e0c <handle_interrupt+0x124>
    3f70:	00ff0637          	lui	a2,0xff0
    3f74:	00c7f7b3          	and	a5,a5,a2
    3f78:	00d7e7b3          	or	a5,a5,a3
    3f7c:	00812403          	lw	s0,8(sp)
    3f80:	88f72023          	sw	a5,-1920(a4)
    3f84:	e89ff06f          	j	3e0c <handle_interrupt+0x124>
    3f88:	00e7a023          	sw	a4,0(a5)
    3f8c:	00100513          	li	a0,1
    3f90:	999fc0ef          	jal	928 <delay>
    3f94:	000057b7          	lui	a5,0x5
    3f98:	00400713          	li	a4,4
    3f9c:	86e7aa23          	sw	a4,-1932(a5) # 4874 <option>
    3fa0:	e6dff06f          	j	3e0c <handle_interrupt+0x124>
    3fa4:	00c12083          	lw	ra,12(sp)
    3fa8:	3ff00713          	li	a4,1023
    3fac:	00e7a023          	sw	a4,0(a5)
    3fb0:	01010113          	addi	sp,sp,16
    3fb4:	975fc06f          	j	928 <delay>
    3fb8:	00e7a023          	sw	a4,0(a5)
    3fbc:	00100513          	li	a0,1
    3fc0:	969fc0ef          	jal	928 <delay>
    3fc4:	000057b7          	lui	a5,0x5
    3fc8:	00300713          	li	a4,3
    3fcc:	86e7aa23          	sw	a4,-1932(a5) # 4874 <option>
    3fd0:	e3dff06f          	j	3e0c <handle_interrupt+0x124>
    3fd4:	001007b7          	lui	a5,0x100
    3fd8:	00812403          	lw	s0,8(sp)
    3fdc:	88f72023          	sw	a5,-1920(a4)
    3fe0:	e2dff06f          	j	3e0c <handle_interrupt+0x124>
    3fe4:	00e7a023          	sw	a4,0(a5) # 100000 <__stack_size>
    3fe8:	00100513          	li	a0,1
    3fec:	93dfc0ef          	jal	928 <delay>
    3ff0:	000057b7          	lui	a5,0x5
    3ff4:	00200713          	li	a4,2
    3ff8:	86e7aa23          	sw	a4,-1932(a5) # 4874 <option>
    3ffc:	e11ff06f          	j	3e0c <handle_interrupt+0x124>
    4000:	00e7a023          	sw	a4,0(a5)
    4004:	00100513          	li	a0,1
    4008:	921fc0ef          	jal	928 <delay>
    400c:	000057b7          	lui	a5,0x5
    4010:	00100713          	li	a4,1
    4014:	86e7aa23          	sw	a4,-1932(a5) # 4874 <option>
    4018:	df5ff06f          	j	3e0c <handle_interrupt+0x124>
    401c:	002007b7          	lui	a5,0x200
    4020:	00812403          	lw	s0,8(sp)
    4024:	88f72023          	sw	a5,-1920(a4)
    4028:	de5ff06f          	j	3e0c <handle_interrupt+0x124>
    402c:	00812403          	lw	s0,8(sp)
    4030:	88072023          	sw	zero,-1920(a4)
    4034:	dd9ff06f          	j	3e0c <handle_interrupt+0x124>

00004038 <reset>:
    4038:	000057b7          	lui	a5,0x5
    403c:	8807a223          	sw	zero,-1916(a5) # 4884 <mytime>
    4040:	000057b7          	lui	a5,0x5
    4044:	8807a023          	sw	zero,-1920(a5) # 4880 <hourtime>
    4048:	000057b7          	lui	a5,0x5
    404c:	8607ae23          	sw	zero,-1924(a5) # 487c <timeoutcount>
    4050:	000057b7          	lui	a5,0x5
    4054:	8607aa23          	sw	zero,-1932(a5) # 4874 <option>
    4058:	00004537          	lui	a0,0x4
    405c:	00100793          	li	a5,1
    4060:	000045b7          	lui	a1,0x4
    4064:	00005637          	lui	a2,0x5
    4068:	000056b7          	lui	a3,0x5
    406c:	00005737          	lui	a4,0x5
    4070:	40f52023          	sw	a5,1024(a0) # 4400 <alive>
    4074:	3ef5ae23          	sw	a5,1020(a1) # 43fc <current_room>
    4078:	86062823          	sw	zero,-1936(a2) # 4870 <in_combat>
    407c:	8606a623          	sw	zero,-1940(a3) # 486c <next_room>
    4080:	86072423          	sw	zero,-1944(a4) # 4868 <prev_room>
    4084:	0040006f          	j	4088 <main>

00004088 <main>:
    4088:	fd010113          	addi	sp,sp,-48
    408c:	ffffc737          	lui	a4,0xffffc
    4090:	02112623          	sw	ra,44(sp)
    4094:	02812423          	sw	s0,40(sp)
    4098:	02912223          	sw	s1,36(sp)
    409c:	03212023          	sw	s2,32(sp)
    40a0:	01412c23          	sw	s4,24(sp)
    40a4:	01312e23          	sw	s3,28(sp)
    40a8:	01712623          	sw	s7,12(sp)
    40ac:	040007b7          	lui	a5,0x4000
    40b0:	6bf70713          	addi	a4,a4,1727 # ffffc6bf <_stack_end+0xffef5ee3>
    40b4:	02e79423          	sh	a4,40(a5) # 4000028 <_stack_end+0x3ef984c>
    40b8:	040007b7          	lui	a5,0x4000
    40bc:	02d00713          	li	a4,45
    40c0:	02e79623          	sh	a4,44(a5) # 400002c <_stack_end+0x3ef9850>
    40c4:	040007b7          	lui	a5,0x4000
    40c8:	00700713          	li	a4,7
    40cc:	02e79223          	sh	a4,36(a5) # 4000024 <_stack_end+0x3ef9848>
    40d0:	03f00713          	li	a4,63
    40d4:	040007b7          	lui	a5,0x4000
    40d8:	00e7ac23          	sw	a4,24(a5) # 4000018 <_stack_end+0x3ef983c>
    40dc:	040007b7          	lui	a5,0x4000
    40e0:	00e7ae23          	sw	a4,28(a5) # 400001c <_stack_end+0x3ef9840>
    40e4:	890fc0ef          	jal	174 <enable_interrupts>
    40e8:	a0cfe0ef          	jal	22f4 <room_init>
    40ec:	000055b7          	lui	a1,0x5
    40f0:	76058593          	addi	a1,a1,1888 # 5760 <__global_pointer+0xb67>
    40f4:	01600613          	li	a2,22
    40f8:	00100513          	li	a0,1
    40fc:	888fc0ef          	jal	184 <new_player>
    4100:	00005a37          	lui	s4,0x5
    4104:	000054b7          	lui	s1,0x5
    4108:	86aa2c23          	sw	a0,-1928(s4) # 4878 <p>
    410c:	c5048913          	addi	s2,s1,-944 # 4c50 <__global_pointer+0x57>
    4110:	02800413          	li	s0,40
    4114:	00090513          	mv	a0,s2
    4118:	fff40413          	addi	s0,s0,-1
    411c:	851fc0ef          	jal	96c <print>
    4120:	fe041ae3          	bnez	s0,4114 <main+0x8c>
    4124:	00006437          	lui	s0,0x6
    4128:	85040513          	addi	a0,s0,-1968 # 5850 <__global_pointer+0xc57>
    412c:	841fc0ef          	jal	96c <print>
    4130:	00006537          	lui	a0,0x6
    4134:	86850513          	addi	a0,a0,-1944 # 5868 <__global_pointer+0xc6f>
    4138:	835fc0ef          	jal	96c <print>
    413c:	85040513          	addi	a0,s0,-1968
    4140:	82dfc0ef          	jal	96c <print>
    4144:	7d000513          	li	a0,2000
    4148:	fe0fc0ef          	jal	928 <delay>
    414c:	00006537          	lui	a0,0x6
    4150:	88050513          	addi	a0,a0,-1920 # 5880 <__global_pointer+0xc87>
    4154:	819fc0ef          	jal	96c <print>
    4158:	7d000513          	li	a0,2000
    415c:	fccfc0ef          	jal	928 <delay>
    4160:	000069b7          	lui	s3,0x6
    4164:	04000437          	lui	s0,0x4000
    4168:	8b098513          	addi	a0,s3,-1872 # 58b0 <__global_pointer+0xcb7>
    416c:	801fc0ef          	jal	96c <print>
    4170:	0d042783          	lw	a5,208(s0) # 40000d0 <_stack_end+0x3ef98f4>
    4174:	0c042823          	sw	zero,208(s0)
    4178:	0d040413          	addi	s0,s0,208
    417c:	0017f793          	andi	a5,a5,1
    4180:	00079e63          	bnez	a5,419c <main+0x114>
    4184:	00a00513          	li	a0,10
    4188:	fa0fc0ef          	jal	928 <delay>
    418c:	00042783          	lw	a5,0(s0)
    4190:	00042023          	sw	zero,0(s0)
    4194:	0017f793          	andi	a5,a5,1
    4198:	fe0786e3          	beqz	a5,4184 <main+0xfc>
    419c:	02800413          	li	s0,40
    41a0:	c5048913          	addi	s2,s1,-944
    41a4:	00090513          	mv	a0,s2
    41a8:	fff40413          	addi	s0,s0,-1
    41ac:	fc0fc0ef          	jal	96c <print>
    41b0:	fe041ae3          	bnez	s0,41a4 <main+0x11c>
    41b4:	00006537          	lui	a0,0x6
    41b8:	8d050513          	addi	a0,a0,-1840 # 58d0 <__global_pointer+0xcd7>
    41bc:	fb0fc0ef          	jal	96c <print>
    41c0:	878a2783          	lw	a5,-1928(s4)
    41c4:	04000437          	lui	s0,0x4000
    41c8:	0d040413          	addi	s0,s0,208 # 40000d0 <_stack_end+0x3ef98f4>
    41cc:	0047a503          	lw	a0,4(a5)
    41d0:	f9cfc0ef          	jal	96c <print>
    41d4:	00006537          	lui	a0,0x6
    41d8:	8f450513          	addi	a0,a0,-1804 # 58f4 <__global_pointer+0xcfb>
    41dc:	f90fc0ef          	jal	96c <print>
    41e0:	878a2783          	lw	a5,-1928(s4)
    41e4:	00c7a503          	lw	a0,12(a5)
    41e8:	e9cfd0ef          	jal	1884 <hp2display>
    41ec:	00090513          	mv	a0,s2
    41f0:	f7cfc0ef          	jal	96c <print>
    41f4:	00006537          	lui	a0,0x6
    41f8:	92050513          	addi	a0,a0,-1760 # 5920 <__global_pointer+0xd27>
    41fc:	f70fc0ef          	jal	96c <print>
    4200:	00006537          	lui	a0,0x6
    4204:	98050513          	addi	a0,a0,-1664 # 5980 <__global_pointer+0xd87>
    4208:	f64fc0ef          	jal	96c <print>
    420c:	7d000513          	li	a0,2000
    4210:	f18fc0ef          	jal	928 <delay>
    4214:	8b098513          	addi	a0,s3,-1872
    4218:	f54fc0ef          	jal	96c <print>
    421c:	00042783          	lw	a5,0(s0)
    4220:	00042023          	sw	zero,0(s0)
    4224:	0017f793          	andi	a5,a5,1
    4228:	00079e63          	bnez	a5,4244 <main+0x1bc>
    422c:	00a00513          	li	a0,10
    4230:	ef8fc0ef          	jal	928 <delay>
    4234:	00042783          	lw	a5,0(s0)
    4238:	00042023          	sw	zero,0(s0)
    423c:	0017f793          	andi	a5,a5,1
    4240:	fe0786e3          	beqz	a5,422c <main+0x1a4>
    4244:	c5048493          	addi	s1,s1,-944
    4248:	02800413          	li	s0,40
    424c:	00048513          	mv	a0,s1
    4250:	fff40413          	addi	s0,s0,-1
    4254:	f18fc0ef          	jal	96c <print>
    4258:	fe041ae3          	bnez	s0,424c <main+0x1c4>
    425c:	00004bb7          	lui	s7,0x4
    4260:	400ba783          	lw	a5,1024(s7) # 4400 <alive>
    4264:	08078863          	beqz	a5,42f4 <main+0x26c>
    4268:	01512a23          	sw	s5,20(sp)
    426c:	01612823          	sw	s6,16(sp)
    4270:	00004ab7          	lui	s5,0x4
    4274:	00006b37          	lui	s6,0x6
    4278:	01812423          	sw	s8,8(sp)
    427c:	01912223          	sw	s9,4(sp)
    4280:	408a8a93          	addi	s5,s5,1032 # 4408 <rooms>
    4284:	8acb0b13          	addi	s6,s6,-1876 # 58ac <__global_pointer+0xcb3>
    4288:	00004c37          	lui	s8,0x4
    428c:	3fcc2c83          	lw	s9,1020(s8) # 43fc <current_room>
    4290:	02800413          	li	s0,40
    4294:	003c9913          	slli	s2,s9,0x3
    4298:	419909b3          	sub	s3,s2,s9
    429c:	00499993          	slli	s3,s3,0x4
    42a0:	013a89b3          	add	s3,s5,s3
    42a4:	00048513          	mv	a0,s1
    42a8:	fff40413          	addi	s0,s0,-1
    42ac:	ec0fc0ef          	jal	96c <print>
    42b0:	fe041ae3          	bnez	s0,42a4 <main+0x21c>
    42b4:	419907b3          	sub	a5,s2,s9
    42b8:	00479793          	slli	a5,a5,0x4
    42bc:	00fa87b3          	add	a5,s5,a5
    42c0:	0087a503          	lw	a0,8(a5)
    42c4:	ea8fc0ef          	jal	96c <print>
    42c8:	000b0513          	mv	a0,s6
    42cc:	ea0fc0ef          	jal	96c <print>
    42d0:	878a2583          	lw	a1,-1928(s4)
    42d4:	00098513          	mv	a0,s3
    42d8:	fa1fe0ef          	jal	3278 <room_actions>
    42dc:	400ba783          	lw	a5,1024(s7)
    42e0:	fa0796e3          	bnez	a5,428c <main+0x204>
    42e4:	01412a83          	lw	s5,20(sp)
    42e8:	01012b03          	lw	s6,16(sp)
    42ec:	00812c03          	lw	s8,8(sp)
    42f0:	00412c83          	lw	s9,4(sp)
    42f4:	02c12083          	lw	ra,44(sp)
    42f8:	02812403          	lw	s0,40(sp)
    42fc:	02412483          	lw	s1,36(sp)
    4300:	02012903          	lw	s2,32(sp)
    4304:	01c12983          	lw	s3,28(sp)
    4308:	01812a03          	lw	s4,24(sp)
    430c:	00c12b83          	lw	s7,12(sp)
    4310:	00000513          	li	a0,0
    4314:	03010113          	addi	sp,sp,48
    4318:	00008067          	ret
